

Microchip MPLAB XC8 Assembler V2.10 build 88905656 
                                                                                               Wed Oct 02 23:24:58 2019

Microchip MPLAB XC8 C Compiler v2.10 (Free license) build 20190730164152 Og1 
     1                           	processor	16F887
     2                           	opt	pw 120
     3                           	opt	flic
     4                           	psect	strings,global,class=STRING,delta=2
     5                           	psect	cinit,global,class=CODE,merge=1,delta=2
     6                           	psect	bssBANK1,global,class=BANK1,space=1,delta=1
     7                           	psect	bssBANK3,global,class=BANK3,space=1,delta=1
     8                           	psect	bssBANK2,global,class=BANK2,space=1,delta=1
     9                           	psect	clrtext,global,class=CODE,delta=2
    10                           	psect	cstackBANK3,global,class=BANK3,space=1,delta=1
    11                           	psect	cstackBANK1,global,class=BANK1,space=1,delta=1
    12                           	psect	cstackCOMMON,global,class=COMMON,space=1,delta=1
    13                           	psect	cstackBANK0,global,class=BANK0,space=1,delta=1
    14                           	psect	maintext,global,class=CODE,split=1,delta=2
    15                           	psect	text1,local,class=CODE,merge=1,delta=2
    16                           	psect	text2,local,class=CODE,merge=1,delta=2,group=2
    17                           	psect	text3,local,class=CODE,merge=1,delta=2,group=2
    18                           	psect	text4,local,class=CODE,merge=1,delta=2,group=2
    19                           	psect	text5,local,class=CODE,merge=1,delta=2,group=1
    20                           	psect	text6,local,class=CODE,merge=1,delta=2
    21                           	psect	text7,local,class=CODE,merge=1,delta=2
    22                           	psect	text8,local,class=CODE,merge=1,delta=2
    23                           	psect	text9,local,class=CODE,merge=1,delta=2
    24                           	psect	text10,local,class=CODE,merge=1,delta=2
    25                           	psect	text11,local,class=CODE,merge=1,delta=2,group=2
    26                           	psect	text12,local,class=CODE,merge=1,delta=2,group=2
    27                           	psect	text13,local,class=CODE,merge=1,delta=2,group=1
    28                           	psect	text14,local,class=CODE,merge=1,delta=2,group=1
    29                           	psect	text15,local,class=CODE,merge=1,delta=2
    30                           	psect	text16,local,class=CODE,merge=1,delta=2,group=2
    31                           	psect	text17,local,class=CODE,merge=1,delta=2
    32                           	psect	text18,local,class=CODE,merge=1,delta=2
    33                           	psect	text19,local,class=CODE,merge=1,delta=2,group=1
    34                           	psect	text20,local,class=CODE,merge=1,delta=2,group=1
    35                           	psect	text21,local,class=CODE,merge=1,delta=2,group=1
    36                           	psect	text22,local,class=CODE,merge=1,delta=2,group=1
    37                           	psect	text23,local,class=CODE,merge=1,delta=2,group=1
    38                           	psect	text24,local,class=CODE,merge=1,delta=2,group=1
    39                           	psect	text25,local,class=CODE,merge=1,delta=2,group=1
    40                           	psect	text26,local,class=CODE,merge=1,delta=2,group=1
    41                           	psect	text27,local,class=CODE,merge=1,delta=2,group=1
    42                           	psect	text28,local,class=CODE,merge=1,delta=2,group=1
    43                           	psect	text17_split_1,local,class=CODE,merge=1,delta=2
    44                           	psect	text18_split_2,local,class=CODE,merge=1,delta=2
    45                           	psect	text18_split_3,local,class=CODE,merge=1,delta=2
    46                           	dabs	1,0x7E,2
    47  0000                     
    48                           ; Version 2.10
    49                           ; Generated 31/07/2019 GMT
    50                           ; 
    51                           ; Copyright © 2019, Microchip Technology Inc. and its subsidiaries ("Microchip")
    52                           ; All rights reserved.
    53                           ; 
    54                           ; This software is developed by Microchip Technology Inc. and its subsidiaries ("Microch
      +                          ip").
    55                           ; 
    56                           ; Redistribution and use in source and binary forms, with or without modification, are
    57                           ; permitted provided that the following conditions are met:
    58                           ; 
    59                           ;     1. Redistributions of source code must retain the above copyright notice, this lis
      +                          t of
    60                           ;        conditions and the following disclaimer.
    61                           ; 
    62                           ;     2. Redistributions in binary form must reproduce the above copyright notice, this 
      +                          list
    63                           ;        of conditions and the following disclaimer in the documentation and/or other
    64                           ;        materials provided with the distribution.
    65                           ; 
    66                           ;     3. Microchip's name may not be used to endorse or promote products derived from th
      +                          is
    67                           ;        software without specific prior written permission.
    68                           ; 
    69                           ; THIS SOFTWARE IS PROVIDED BY MICROCHIP "AS IS" AND ANY EXPRESS OR IMPLIED WARRANTIES,
    70                           ; INCLUDING, BUT NOT LIMITED TO, THE IMPLIED WARRANTIES OF MERCHANTABILITY AND FITNESS F
      +                          OR
    71                           ; PURPOSE ARE DISCLAIMED.  IN NO EVENT SHALL MICROCHIP BE LIABLE FOR ANY DIRECT, INDIREC
      +                          T,
    72                           ; INCIDENTAL, SPECIAL, EXEMPLARY, OR CONSEQUENTIAL DAMAGES (INCLUDING BUT NOT LIMITED TO
    73                           ; PROCUREMENT OF SUBSTITUTE GOODS OR SERVICES; LOSS OF USE, DATA OR PROFITS; OR BUSINESS
    74                           ; INTERRUPTION) HOWSOEVER CAUSED AND ON ANY THEORY OF LIABILITY, WHETHER IN CONTRACT, ST
      +                          RICT
    75                           ; LIABILITY, OR TORT (INCLUDING NEGLIGENCE OR OTHERWISE) ARISING IN ANY WAY OUT OF THE U
      +                          SE OF
    76                           ; THIS SOFTWARE, EVEN IF ADVISED OF THE POSSIBILITY OF SUCH DAMAGE.
    77                           ; 
    78                           ; 
    79                           ; Code-generator required, PIC16F887 Definitions
    80                           ; 
    81                           ; SFR Addresses
    82  0000                     	;# 
    83  0001                     	;# 
    84  0002                     	;# 
    85  0003                     	;# 
    86  0004                     	;# 
    87  0005                     	;# 
    88  0006                     	;# 
    89  0007                     	;# 
    90  0008                     	;# 
    91  0009                     	;# 
    92  000A                     	;# 
    93  000B                     	;# 
    94  000C                     	;# 
    95  000D                     	;# 
    96  000E                     	;# 
    97  000E                     	;# 
    98  000F                     	;# 
    99  0010                     	;# 
   100  0011                     	;# 
   101  0012                     	;# 
   102  0013                     	;# 
   103  0014                     	;# 
   104  0015                     	;# 
   105  0015                     	;# 
   106  0016                     	;# 
   107  0017                     	;# 
   108  0018                     	;# 
   109  0019                     	;# 
   110  001A                     	;# 
   111  001B                     	;# 
   112  001B                     	;# 
   113  001C                     	;# 
   114  001D                     	;# 
   115  001E                     	;# 
   116  001F                     	;# 
   117  0081                     	;# 
   118  0085                     	;# 
   119  0086                     	;# 
   120  0087                     	;# 
   121  0088                     	;# 
   122  0089                     	;# 
   123  008C                     	;# 
   124  008D                     	;# 
   125  008E                     	;# 
   126  008F                     	;# 
   127  0090                     	;# 
   128  0091                     	;# 
   129  0092                     	;# 
   130  0093                     	;# 
   131  0093                     	;# 
   132  0093                     	;# 
   133  0094                     	;# 
   134  0095                     	;# 
   135  0096                     	;# 
   136  0097                     	;# 
   137  0098                     	;# 
   138  0099                     	;# 
   139  009A                     	;# 
   140  009B                     	;# 
   141  009C                     	;# 
   142  009D                     	;# 
   143  009E                     	;# 
   144  009F                     	;# 
   145  0105                     	;# 
   146  0107                     	;# 
   147  0108                     	;# 
   148  0109                     	;# 
   149  010C                     	;# 
   150  010C                     	;# 
   151  010D                     	;# 
   152  010E                     	;# 
   153  010F                     	;# 
   154  0185                     	;# 
   155  0187                     	;# 
   156  0188                     	;# 
   157  0189                     	;# 
   158  018C                     	;# 
   159  018D                     	;# 
   160  0000                     	;# 
   161  0001                     	;# 
   162  0002                     	;# 
   163  0003                     	;# 
   164  0004                     	;# 
   165  0005                     	;# 
   166  0006                     	;# 
   167  0007                     	;# 
   168  0008                     	;# 
   169  0009                     	;# 
   170  000A                     	;# 
   171  000B                     	;# 
   172  000C                     	;# 
   173  000D                     	;# 
   174  000E                     	;# 
   175  000E                     	;# 
   176  000F                     	;# 
   177  0010                     	;# 
   178  0011                     	;# 
   179  0012                     	;# 
   180  0013                     	;# 
   181  0014                     	;# 
   182  0015                     	;# 
   183  0015                     	;# 
   184  0016                     	;# 
   185  0017                     	;# 
   186  0018                     	;# 
   187  0019                     	;# 
   188  001A                     	;# 
   189  001B                     	;# 
   190  001B                     	;# 
   191  001C                     	;# 
   192  001D                     	;# 
   193  001E                     	;# 
   194  001F                     	;# 
   195  0081                     	;# 
   196  0085                     	;# 
   197  0086                     	;# 
   198  0087                     	;# 
   199  0088                     	;# 
   200  0089                     	;# 
   201  008C                     	;# 
   202  008D                     	;# 
   203  008E                     	;# 
   204  008F                     	;# 
   205  0090                     	;# 
   206  0091                     	;# 
   207  0092                     	;# 
   208  0093                     	;# 
   209  0093                     	;# 
   210  0093                     	;# 
   211  0094                     	;# 
   212  0095                     	;# 
   213  0096                     	;# 
   214  0097                     	;# 
   215  0098                     	;# 
   216  0099                     	;# 
   217  009A                     	;# 
   218  009B                     	;# 
   219  009C                     	;# 
   220  009D                     	;# 
   221  009E                     	;# 
   222  009F                     	;# 
   223  0105                     	;# 
   224  0107                     	;# 
   225  0108                     	;# 
   226  0109                     	;# 
   227  010C                     	;# 
   228  010C                     	;# 
   229  010D                     	;# 
   230  010E                     	;# 
   231  010F                     	;# 
   232  0185                     	;# 
   233  0187                     	;# 
   234  0188                     	;# 
   235  0189                     	;# 
   236  018C                     	;# 
   237  018D                     	;# 
   238  000E                     _TMR1	set	14
   239  000E                     _TMR1L	set	14
   240  000F                     _TMR1H	set	15
   241  001D                     _CCP2CON	set	29
   242  0012                     _T2CON	set	18
   243  0010                     _T1CON	set	16
   244  0007                     _PORTC	set	7
   245  001B                     _CCPR2L	set	27
   246  0008                     _PORTD	set	8
   247  0040                     _RD0	set	64
   248  0080                     _TMR1ON	set	128
   249  0041                     _RD1	set	65
   250  0043                     _RD3	set	67
   251  0042                     _RD2	set	66
   252  0088                     _TRISD	set	136
   253  0087                     _TRISC	set	135
   254  008F                     _OSCCON	set	143
   255  0092                     _PR2	set	146
   256                           
   257                           	psect	strings
   258  0000'                    __pstrings:	
   259  0000'                    stringtab:	
   260  0000'                    __stringtab:	
   261                           
   262                           ;	String table - string pointers are 1 byte each
   263  0000' 1BFF               	btfsc	btemp+1,7
   264  0001' 2800'              	ljmp	stringcode
   265  0002' 1383               	bcf	3,7
   266  0003' 187F               	btfsc	btemp+1,0
   267  0004' 1783               	bsf	3,7
   268  0005' 0800               	movf	0,w
   269  0006' 0A84               	incf	4,f
   270  0007' 1903               	skipnz
   271  0008' 0AFF               	incf	btemp+1,f
   272  0009' 0008               	return
   273  000A'                    stringcode:	
   274  000A'                    stringdir:	
   275  000A' 3000'              	movlw	high stringdir
   276  000B' 008A               	movwf	10
   277  000C' 0804               	movf	4,w
   278  000D' 0A84               	incf	4,f
   279  000E' 0782               	addwf	2,f
   280  000F'                    __stringbase:	
   281  000F' 3400               	retlw	0
   282  0010'                    __end_of__stringtab:	
   283  0010'                    STR_1:	
   284  0010' 3450               	retlw	80	;'P'
   285  0011' 346F               	retlw	111	;'o'
   286  0012' 3473               	retlw	115	;'s'
   287  0013' 345B               	retlw	91	;'['
   288  0014' 3463               	retlw	99	;'c'
   289  0015' 346D               	retlw	109	;'m'
   290  0016' 345D               	retlw	93	;']'
   291  0017' 343A               	retlw	58	;':'
   292  0018' 3420               	retlw	32	;' '
   293  0019' 3420               	retlw	32	;' '
   294  001A' 3420               	retlw	32	;' '
   295  001B' 3420               	retlw	32	;' '
   296  001C' 3420               	retlw	32	;' '
   297  001D' 3420               	retlw	32	;' '
   298  001E' 3420               	retlw	32	;' '
   299  001F' 3420               	retlw	32	;' '
   300  0020' 3420               	retlw	32	;' '
   301  0021' 3400               	retlw	0
   302  0022'                    STR_3:	
   303  0022' 3456               	retlw	86	;'V'
   304  0023' 3465               	retlw	101	;'e'
   305  0024' 346C               	retlw	108	;'l'
   306  0025' 345B               	retlw	91	;'['
   307  0026' 3463               	retlw	99	;'c'
   308  0027' 346D               	retlw	109	;'m'
   309  0028' 342F               	retlw	47	;'/'
   310  0029' 3473               	retlw	115	;'s'
   311  002A' 345D               	retlw	93	;']'
   312  002B' 343A               	retlw	58	;':'
   313  002C' 3420               	retlw	32	;' '
   314  002D' 3420               	retlw	32	;' '
   315  002E' 3420               	retlw	32	;' '
   316  002F' 3420               	retlw	32	;' '
   317  0030' 3420               	retlw	32	;' '
   318  0031' 3420               	retlw	32	;' '
   319  0032' 3400               	retlw	0
   320  0010'                    
   321                           ; #config settings
   322  0000                     
   323                           	psect	cinit
   324  0000'                    start_initialization:	
   325  0000'                    __initialization:	
   326                           
   327                           ; Clear objects allocated to BANK1
   328  0000' 1383               	bcf	3,7	;select IRP bank0
   329  0001' 3000'              	movlw	low __pbssBANK1
   330  0002' 0084               	movwf	4
   331  0003' 3000'              	movlw	low (__pbssBANK1+8)
   332  0004' 120A' 118A' 2000' 120A' 118A' 	fcall	clear_ram0
   333                           
   334                           ; Clear objects allocated to BANK3
   335  0009' 1783               	bsf	3,7	;select IRP bank2
   336  000A' 3000'              	movlw	low __pbssBANK3
   337  000B' 0084               	movwf	4
   338  000C' 3000'              	movlw	low (__pbssBANK3+12)
   339  000D' 120A' 118A' 2000' 120A' 118A' 	fcall	clear_ram0
   340                           
   341                           ; Clear objects allocated to BANK2
   342  0012' 3000'              	movlw	low __pbssBANK2
   343  0013' 0084               	movwf	4
   344  0014' 3000'              	movlw	low (__pbssBANK2+78)
   345  0015' 120A' 118A' 2000' 120A' 118A' 	fcall	clear_ram0
   346  001A'                    end_of_initialization:	
   347                           ;End of C runtime variable initialization code
   348                           
   349  001A'                    __end_of__initialization:	
   350  001A' 0183               	clrf	3
   351  001B' 120A' 118A' 2800'  	ljmp	_main	;jump to C main() function
   352                           
   353                           	psect	bssBANK1
   354  0000'                    __pbssBANK1:	
   355  0000'                    _V:	
   356  0000'                    	ds	2
   357  0002'                    _us:	
   358  0002'                    	ds	2
   359  0004'                    _cm:	
   360  0004'                    	ds	2
   361  0006'                    _P:	
   362  0006'                    	ds	2
   363                           
   364                           	psect	bssBANK3
   365  0000'                    __pbssBANK3:	
   366  0000'                    _tiempo:	
   367  0000'                    	ds	4
   368  0004'                    _f:	
   369  0004'                    	ds	4
   370  0008'                    _errno:	
   371  0008'                    	ds	2
   372  000A'                    _DUTY:	
   373  000A'                    	ds	2
   374                           
   375                           	psect	bssBANK2
   376  0000'                    __pbssBANK2:	
   377  0000'                    Fuz@F1578:	
   378  0000'                    	ds	32
   379  0020'                    Fuz@F1580:	
   380  0020'                    	ds	10
   381  002A'                    Fuz@F1575:	
   382  002A'                    	ds	8
   383  0032'                    Fuz@F1573:	
   384  0032'                    	ds	8
   385  003A'                    _d2:	
   386  003A'                    	ds	4
   387  003E'                    _d1:	
   388  003E'                    	ds	4
   389  0042'                    _cmf:	
   390  0042'                    	ds	4
   391  0046'                    _velo:	
   392  0046'                    	ds	5
   393  004B'                    _centi:	
   394  004B'                    	ds	3
   395                           
   396                           	psect	clrtext
   397  0000'                    clear_ram0:	
   398                           ;	Called with FSR containing the base address, and
   399                           ;	W with the last address+1
   400                           
   401  0000' 0064               	clrwdt	;clear the watchdog before getting into this loop
   402  0001'                    clrloop0:	
   403  0001' 0180               	clrf	0	;clear RAM location pointed to by FSR
   404  0002' 0A84               	incf	4,f	;increment pointer
   405  0003' 0604               	xorwf	4,w	;XOR with final address
   406  0004' 1903               	btfsc	3,2	;have we reached the end yet?
   407  0005' 3400               	retlw	0	;all done for this memory range, return
   408  0006' 0604               	xorwf	4,w	;XOR again to restore value
   409  0007' 2800'              	goto	clrloop0	;do the next byte
   410                           
   411                           	psect	cstackBANK3
   412  0000'                    __pcstackBANK3:	
   413  0000'                    	ds	4
   414  0004'                    Fuz@Centroid:	
   415                           
   416                           ; 2 bytes @ 0x4
   417  0004'                    	ds	2
   418  0006'                    Fuz@step:	
   419                           
   420                           ; 4 bytes @ 0x6
   421  0006'                    	ds	4
   422  000A'                    Fuz@n:	
   423                           
   424                           ; 2 bytes @ 0xA
   425  000A'                    	ds	2
   426  000C'                    Fuz@N:	
   427                           
   428                           ; 2 bytes @ 0xC
   429  000C'                    	ds	2
   430  000E'                    Fuz@D:	
   431                           
   432                           ; 2 bytes @ 0xE
   433  000E'                    	ds	2
   434  0010'                    Fuz@FCL:	
   435                           
   436                           ; 2 bytes @ 0x10
   437  0010'                    	ds	2
   438  0012'                    Fuz@A:	
   439                           
   440                           ; 8 bytes @ 0x12
   441  0012'                    	ds	8
   442  001A'                    Fuz@j:	
   443                           
   444                           ; 2 bytes @ 0x1A
   445  001A'                    	ds	2
   446  001C'                    Fuz@i:	
   447                           
   448                           ; 2 bytes @ 0x1C
   449  001C'                    	ds	2
   450  001E'                    Fuz@CL:	
   451                           
   452                           ; 10 bytes @ 0x1E
   453  001E'                    	ds	10
   454  0028'                    Fuz@Min:	
   455                           
   456                           ; 32 bytes @ 0x28
   457  0028'                    	ds	32
   458  0048'                    Fuz@B:	
   459                           
   460                           ; 8 bytes @ 0x48
   461  0048'                    	ds	8
   462  0050'                    Fuz@ii:	
   463                           
   464                           ; 2 bytes @ 0x50
   465  0050'                    	ds	2
   466  0052'                    Fuz@z:	
   467                           
   468                           ; 2 bytes @ 0x52
   469  0052'                    	ds	2
   470                           
   471                           	psect	cstackBANK1
   472  0000'                    __pcstackBANK1:	
   473  0000'                    ___flmul@sign:	
   474  0000'                    trunc@i:	
   475                           ; 1 bytes @ 0x0
   476                           
   477                           
   478                           ; 4 bytes @ 0x0
   479  0000'                    	ds	1
   480  0001'                    ___flmul@grs:	
   481                           
   482                           ; 4 bytes @ 0x1
   483  0001'                    	ds	3
   484  0004'                    trunc@expon:	
   485                           
   486                           ; 2 bytes @ 0x4
   487  0004'                    	ds	1
   488  0005'                    ___flmul@aexp:	
   489                           
   490                           ; 1 bytes @ 0x5
   491  0005'                    	ds	1
   492  0006'                    ?_round:	
   493  0006'                    ___flmul@bexp:	
   494                           ; 4 bytes @ 0x6
   495                           
   496  0006'                    round@x:	
   497                           ; 1 bytes @ 0x6
   498                           
   499                           
   500                           ; 4 bytes @ 0x6
   501  0006'                    	ds	1
   502  0007'                    ___flmul@prod:	
   503                           
   504                           ; 4 bytes @ 0x7
   505  0007'                    	ds	3
   506  000A'                    round@f:	
   507                           
   508                           ; 4 bytes @ 0xA
   509  000A'                    	ds	1
   510  000B'                    ___flmul@temp:	
   511                           
   512                           ; 2 bytes @ 0xB
   513  000B'                    	ds	2
   514  000D'                    ?_pimf:	
   515  000D'                    pimf@x:	
   516                           ; 2 bytes @ 0xD
   517                           
   518                           
   519                           ; 2 bytes @ 0xD
   520  000D'                    	ds	2
   521  000F'                    pimf@a:	
   522                           
   523                           ; 4 bytes @ 0xF
   524  000F'                    	ds	4
   525  0013'                    pimf@b:	
   526                           
   527                           ; 4 bytes @ 0x13
   528  0013'                    	ds	4
   529  0017'                    pimf@c:	
   530                           
   531                           ; 4 bytes @ 0x17
   532  0017'                    	ds	4
   533  001B'                    pimf@d:	
   534                           
   535                           ; 4 bytes @ 0x1B
   536  001B'                    	ds	4
   537  001F'                    _pimf$823:	
   538                           
   539                           ; 4 bytes @ 0x1F
   540  001F'                    	ds	4
   541  0023'                    _pimf$824:	
   542                           
   543                           ; 4 bytes @ 0x23
   544  0023'                    	ds	4
   545  0027'                    ?_Fuz:	
   546  0027'                    Fuz@X:	
   547                           ; 2 bytes @ 0x27
   548                           
   549                           
   550                           ; 2 bytes @ 0x27
   551  0027'                    	ds	2
   552  0029'                    Fuz@Y:	
   553                           
   554                           ; 2 bytes @ 0x29
   555  0029'                    	ds	2
   556  002B'                    ??_Fuz:	
   557                           
   558                           ; 1 bytes @ 0x2B
   559  002B'                    	ds	7
   560  0032'                    ??_main:	
   561                           
   562                           ; 1 bytes @ 0x32
   563  0032'                    	ds	2
   564  0034'                    _main$825:	
   565                           
   566                           ; 4 bytes @ 0x34
   567  0034'                    	ds	4
   568  0038'                    _main$826:	
   569                           
   570                           ; 4 bytes @ 0x38
   571  0038'                    	ds	4
   572  003C'                    _main$827:	
   573                           
   574                           ; 4 bytes @ 0x3C
   575  003C'                    	ds	4
   576  0040'                    _main$828:	
   577                           
   578                           ; 4 bytes @ 0x40
   579  0040'                    	ds	4
   580  0044'                    _main$829:	
   581                           
   582                           ; 4 bytes @ 0x44
   583  0044'                    	ds	4
   584                           
   585                           	psect	cstackCOMMON
   586  0000'                    __pcstackCOMMON:	
   587  0000'                    ?___fleq:	
   588  0000'                    ?_lcd_cmd:	
   589                           ; 1 bit 
   590                           
   591  0000'                    ?_setup:	
   592                           ; 1 bytes @ 0x0
   593                           
   594  0000'                    ??_setup:	
   595                           ; 1 bytes @ 0x0
   596                           
   597  0000'                    ?_distancia:	
   598                           ; 1 bytes @ 0x0
   599                           
   600  0000'                    ?_lcd_ini:	
   601                           ; 1 bytes @ 0x0
   602                           
   603  0000'                    ?_lcd_write_c:	
   604                           ; 1 bytes @ 0x0
   605                           
   606  0000'                    ??_lcd_write_c:	
   607                           ; 1 bytes @ 0x0
   608                           
   609  0000'                    ?_main:	
   610                           ; 1 bytes @ 0x0
   611                           
   612  0000'                    ?_abs:	
   613                           ; 1 bytes @ 0x0
   614                           
   615  0000'                    ?__Umul8_16:	
   616                           ; 2 bytes @ 0x0
   617                           
   618  0000'                    ?___wmul:	
   619                           ; 2 bytes @ 0x0
   620                           
   621  0000'                    ?___awdiv:	
   622                           ; 2 bytes @ 0x0
   623                           
   624  0000'                    ?___lwdiv:	
   625                           ; 2 bytes @ 0x0
   626                           
   627  0000'                    ?___lwmod:	
   628                           ; 2 bytes @ 0x0
   629                           
   630  0000'                    __Umul8_16@multiplicand:	
   631                           ; 2 bytes @ 0x0
   632                           
   633  0000'                    lcd_cmd@cmd:	
   634                           ; 1 bytes @ 0x0
   635                           
   636  0000'                    ___wmul@multiplier:	
   637                           ; 2 bytes @ 0x0
   638                           
   639  0000'                    ___awdiv@divisor:	
   640                           ; 2 bytes @ 0x0
   641                           
   642  0000'                    ___lwdiv@divisor:	
   643                           ; 2 bytes @ 0x0
   644                           
   645  0000'                    ___lwmod@divisor:	
   646                           ; 2 bytes @ 0x0
   647                           
   648  0000'                    abs@a:	
   649                           ; 2 bytes @ 0x0
   650                           
   651  0000'                    ___fleq@ff1:	
   652                           ; 2 bytes @ 0x0
   653                           
   654                           
   655                           ; 4 bytes @ 0x0
   656  0000'                    	ds	2
   657  0002'                    ??_lcd_cmd:	
   658  0002'                    ??_abs:	
   659                           ; 1 bytes @ 0x2
   660                           
   661  0002'                    ??__Umul8_16:	
   662                           ; 1 bytes @ 0x2
   663                           
   664  0002'                    lcd_write_c@ch:	
   665                           ; 1 bytes @ 0x2
   666                           
   667  0002'                    ___wmul@multiplicand:	
   668                           ; 1 bytes @ 0x2
   669                           
   670  0002'                    ___awdiv@dividend:	
   671                           ; 2 bytes @ 0x2
   672                           
   673  0002'                    ___lwdiv@dividend:	
   674                           ; 2 bytes @ 0x2
   675                           
   676  0002'                    ___lwmod@dividend:	
   677                           ; 2 bytes @ 0x2
   678                           
   679                           
   680                           ; 2 bytes @ 0x2
   681  0002'                    	ds	1
   682  0003'                    ?_lcd_write_s:	
   683  0003'                    lcd_write_s@st:	
   684                           ; 1 bytes @ 0x3
   685                           
   686                           
   687                           ; 2 bytes @ 0x3
   688  0003'                    	ds	1
   689  0004'                    ??_lcd_ini:	
   690  0004'                    ?_lcd_pos:	
   691                           ; 1 bytes @ 0x4
   692                           
   693  0004'                    ??___wmul:	
   694                           ; 1 bytes @ 0x4
   695                           
   696  0004'                    ??___awdiv:	
   697                           ; 1 bytes @ 0x4
   698                           
   699  0004'                    ??___lwdiv:	
   700                           ; 1 bytes @ 0x4
   701                           
   702  0004'                    ??___lwmod:	
   703                           ; 1 bytes @ 0x4
   704                           
   705  0004'                    lcd_pos@fila:	
   706                           ; 1 bytes @ 0x4
   707                           
   708  0004'                    ___wmul@product:	
   709                           ; 2 bytes @ 0x4
   710                           
   711  0004'                    __Umul8_16@product:	
   712                           ; 2 bytes @ 0x4
   713                           
   714  0004'                    ___fleq@ff2:	
   715                           ; 2 bytes @ 0x4
   716                           
   717                           
   718                           ; 4 bytes @ 0x4
   719  0004'                    	ds	1
   720  0005'                    ??_lcd_write_s:	
   721  0005'                    ___awdiv@counter:	
   722                           ; 1 bytes @ 0x5
   723                           
   724  0005'                    ___lwmod@counter:	
   725                           ; 1 bytes @ 0x5
   726                           
   727  0005'                    ___lwdiv@quotient:	
   728                           ; 1 bytes @ 0x5
   729                           
   730                           
   731                           ; 2 bytes @ 0x5
   732  0005'                    	ds	1
   733  0006'                    ___awdiv@sign:	
   734  0006'                    lcd_pos@columna:	
   735                           ; 1 bytes @ 0x6
   736                           
   737  0006'                    __Umul8_16@word_mpld:	
   738                           ; 2 bytes @ 0x6
   739                           
   740                           
   741                           ; 2 bytes @ 0x6
   742  0006'                    	ds	1
   743  0007'                    ___lwdiv@counter:	
   744  0007'                    ___awdiv@quotient:	
   745                           ; 1 bytes @ 0x7
   746                           
   747                           
   748                           ; 2 bytes @ 0x7
   749  0007'                    	ds	1
   750  0008'                    ?_utoa:	
   751  0008'                    ??_lcd_pos:	
   752                           ; 1 bytes @ 0x8
   753                           
   754  0008'                    ??___fleq:	
   755                           ; 1 bytes @ 0x8
   756                           
   757  0008'                    __Umul8_16@multiplier:	
   758                           ; 1 bytes @ 0x8
   759                           
   760  0008'                    utoa@val:	
   761                           ; 1 bytes @ 0x8
   762                           
   763                           
   764                           ; 2 bytes @ 0x8
   765  0008'                    	ds	1
   766  0009'                    ?___xxtofl:	
   767  0009'                    ___xxtofl@val:	
   768                           ; 4 bytes @ 0x9
   769                           
   770                           
   771                           ; 4 bytes @ 0x9
   772  0009'                    	ds	1
   773  000A'                    utoa@base:	
   774                           
   775                           ; 2 bytes @ 0xA
   776  000A'                    	ds	2
   777  000C'                    ??_utoa:	
   778  000C'                    ??_frexp:	
   779                           ; 1 bytes @ 0xC
   780                           
   781                           
   782                           ; 1 bytes @ 0xC
   783  000C'                    	ds	1
   784  000D'                    ??_itoa:	
   785                           
   786                           ; 1 bytes @ 0xD
   787  000D'                    	ds	1
   788  000E'                    ??_round:	
   789  000E'                    ??_pimf:	
   790                           ; 1 bytes @ 0xE
   791                           
   792  000E'                    ??___flsub:	
   793                           ; 1 bytes @ 0xE
   794                           
   795                           
   796                           	psect	cstackBANK0
   797  0000'                    __pcstackBANK0:	
   798                           ; 1 bytes @ 0xE
   799                           
   800  0000'                    ??___xxtofl:	
   801  0000'                    ?_frexp:	
   802                           ; 1 bytes @ 0x0
   803                           
   804  0000'                    utoa@v:	
   805                           ; 4 bytes @ 0x0
   806                           
   807  0000'                    frexp@value:	
   808                           ; 2 bytes @ 0x0
   809                           
   810                           
   811                           ; 4 bytes @ 0x0
   812  0000'                    	ds	2
   813  0002'                    utoa@c:	
   814                           
   815                           ; 1 bytes @ 0x2
   816  0002'                    	ds	1
   817  0003'                    utoa@buf:	
   818                           
   819                           ; 1 bytes @ 0x3
   820  0003'                    	ds	1
   821  0004'                    ?_itoa:	
   822  0004'                    ___xxtofl@sign:	
   823                           ; 1 bytes @ 0x4
   824                           
   825  0004'                    frexp@eptr:	
   826                           ; 1 bytes @ 0x4
   827                           
   828  0004'                    itoa@val:	
   829                           ; 1 bytes @ 0x4
   830                           
   831                           
   832                           ; 2 bytes @ 0x4
   833  0004'                    	ds	1
   834  0005'                    ___xxtofl@exp:	
   835                           
   836                           ; 1 bytes @ 0x5
   837  0005'                    	ds	1
   838  0006'                    itoa@base:	
   839  0006'                    ___xxtofl@arg:	
   840                           ; 2 bytes @ 0x6
   841                           
   842                           
   843                           ; 4 bytes @ 0x6
   844  0006'                    	ds	3
   845  0009'                    itoa@buf:	
   846                           
   847                           ; 1 bytes @ 0x9
   848  0009'                    	ds	1
   849  000A'                    ?___fldiv:	
   850  000A'                    ___fldiv@a:	
   851                           ; 4 bytes @ 0xA
   852                           
   853                           
   854                           ; 4 bytes @ 0xA
   855  000A'                    	ds	4
   856  000E'                    ___fldiv@b:	
   857                           
   858                           ; 4 bytes @ 0xE
   859  000E'                    	ds	4
   860  0012'                    ??___fldiv:	
   861                           
   862                           ; 1 bytes @ 0x12
   863  0012'                    	ds	5
   864  0017'                    ___fldiv@rem:	
   865                           
   866                           ; 4 bytes @ 0x17
   867  0017'                    	ds	4
   868  001B'                    ___fldiv@sign:	
   869                           
   870                           ; 1 bytes @ 0x1B
   871  001B'                    	ds	1
   872  001C'                    ___fldiv@new_exp:	
   873                           
   874                           ; 2 bytes @ 0x1C
   875  001C'                    	ds	2
   876  001E'                    ___fldiv@grs:	
   877                           
   878                           ; 4 bytes @ 0x1E
   879  001E'                    	ds	4
   880  0022'                    ___fldiv@bexp:	
   881                           
   882                           ; 1 bytes @ 0x22
   883  0022'                    	ds	1
   884  0023'                    ___fldiv@aexp:	
   885                           
   886                           ; 1 bytes @ 0x23
   887  0023'                    	ds	1
   888  0024'                    ?___fladd:	
   889  0024'                    ___fladd@b:	
   890                           ; 4 bytes @ 0x24
   891                           
   892                           
   893                           ; 4 bytes @ 0x24
   894  0024'                    	ds	4
   895  0028'                    ___fladd@a:	
   896                           
   897                           ; 4 bytes @ 0x28
   898  0028'                    	ds	4
   899  002C'                    ??___fladd:	
   900                           
   901                           ; 1 bytes @ 0x2C
   902  002C'                    	ds	8
   903  0034'                    ___fladd@signs:	
   904                           
   905                           ; 1 bytes @ 0x34
   906  0034'                    	ds	1
   907  0035'                    ___fladd@aexp:	
   908                           
   909                           ; 1 bytes @ 0x35
   910  0035'                    	ds	1
   911  0036'                    ___fladd@bexp:	
   912                           
   913                           ; 1 bytes @ 0x36
   914  0036'                    	ds	1
   915  0037'                    ___fladd@grs:	
   916                           
   917                           ; 1 bytes @ 0x37
   918  0037'                    	ds	1
   919  0038'                    ?___flge:	
   920  0038'                    ??_distancia:	
   921                           ; 1 bit 
   922                           
   923  0038'                    ?___flsub:	
   924                           ; 1 bytes @ 0x38
   925                           
   926  0038'                    ___flge@ff1:	
   927                           ; 4 bytes @ 0x38
   928                           
   929  0038'                    ___flsub@a:	
   930                           ; 4 bytes @ 0x38
   931                           
   932                           
   933                           ; 4 bytes @ 0x38
   934  0038'                    	ds	4
   935  003C'                    ___flge@ff2:	
   936  003C'                    ___flsub@b:	
   937                           ; 4 bytes @ 0x3C
   938                           
   939                           
   940                           ; 4 bytes @ 0x3C
   941  003C'                    	ds	4
   942  0040'                    ??___flge:	
   943  0040'                    ?___fltol:	
   944                           ; 1 bytes @ 0x40
   945                           
   946  0040'                    ?___flmul:	
   947                           ; 4 bytes @ 0x40
   948                           
   949  0040'                    ___fltol@f1:	
   950                           ; 4 bytes @ 0x40
   951                           
   952  0040'                    ___flmul@b:	
   953                           ; 4 bytes @ 0x40
   954                           
   955                           
   956                           ; 4 bytes @ 0x40
   957  0040'                    	ds	4
   958  0044'                    ??___fltol:	
   959  0044'                    ___flmul@a:	
   960                           ; 1 bytes @ 0x44
   961                           
   962                           
   963                           ; 4 bytes @ 0x44
   964  0044'                    	ds	4
   965  0048'                    ??___flmul:	
   966                           
   967                           ; 1 bytes @ 0x48
   968  0048'                    	ds	1
   969  0049'                    ___fltol@sign1:	
   970                           
   971                           ; 1 bytes @ 0x49
   972  0049'                    	ds	1
   973  004A'                    ___fltol@exp1:	
   974                           
   975                           ; 1 bytes @ 0x4A
   976  004A'                    	ds	1
   977  004B'                    ?_trunc:	
   978  004B'                    trunc@x:	
   979                           ; 4 bytes @ 0x4B
   980                           
   981                           
   982                           ; 4 bytes @ 0x4B
   983  004B'                    	ds	4
   984  004F'                    ??_trunc:	
   985                           
   986                           ; 1 bytes @ 0x4F
   987  004F'                    	ds	1
   988                           
   989                           	psect	maintext
   990  0000'                    __pmaintext:	
   991 ;;
   992 ;;Main: autosize = 0, tempsize = 2, incstack = 0, save=0
   993 ;;
   994 ;; *************** function _main *****************
   995 ;; Defined at:
   996 ;;		line 51 in file "FuzzyMain.c"
   997 ;; Parameters:    Size  Location     Type
   998 ;;		None
   999 ;; Auto vars:     Size  Location     Type
  1000 ;;		None
  1001 ;; Return value:  Size  Location     Type
  1002 ;;                  1    wreg      void 
  1003 ;; Registers used:
  1004 ;;		wreg, fsr0l, fsr0h, status,2, status,0, btemp+1, pclath, cstack
  1005 ;; Tracked objects:
  1006 ;;		On entry : B00/0
  1007 ;;		On exit  : 0/0
  1008 ;;		Unchanged: 0/0
  1009 ;; Data sizes:     COMMON   BANK0   BANK1   BANK3   BANK2
  1010 ;;      Params:         0       0       0       0       0
  1011 ;;      Locals:         0       0      20       0       0
  1012 ;;      Temps:          0       0       2       0       0
  1013 ;;      Totals:         0       0      22       0       0
  1014 ;;Total ram usage:       22 bytes
  1015 ;; Hardware stack levels required when called:    4
  1016 ;; This function calls:
  1017 ;;		_Fuz
  1018 ;;		___awdiv
  1019 ;;		___fladd
  1020 ;;		___fldiv
  1021 ;;		___flsub
  1022 ;;		___fltol
  1023 ;;		___wmul
  1024 ;;		___xxtofl
  1025 ;;		_abs
  1026 ;;		_distancia
  1027 ;;		_itoa
  1028 ;;		_lcd_cmd
  1029 ;;		_lcd_ini
  1030 ;;		_lcd_pos
  1031 ;;		_lcd_write_s
  1032 ;;		_round
  1033 ;;		_setup
  1034 ;; This function is called by:
  1035 ;;		Startup code after reset
  1036 ;; This function uses a non-reentrant model
  1037 ;;
  1038                           
  1039                           
  1040                           ;psect for function _main
  1041  0000'                    _main:	
  1042  0000'                    l3306:	
  1043                           ;incstack = 0
  1044                           ; Regs used in _main: [wreg-fsr0h+status,2+status,0+btemp+1+pclath+cstack]
  1045                           
  1046                           
  1047                           ;FuzzyMain.c: 52:     setup();
  1048  0000' 120A' 118A' 2000' 120A' 118A' 	fcall	_setup
  1049                           
  1050                           ;FuzzyMain.c: 53:     lcd_ini();
  1051  0005' 120A' 118A' 2000' 120A' 118A' 	fcall	_lcd_ini
  1052                           
  1053                           ;FuzzyMain.c: 54:     lcd_cmd(0B00000001);
  1054  000A' 3001               	movlw	1
  1055  000B' 0080'              	movwf	lcd_cmd@cmd
  1056  000C' 3000               	movlw	0
  1057  000D' 0081'              	movwf	lcd_cmd@cmd+1
  1058  000E' 120A' 118A' 2000' 120A' 118A' 	fcall	_lcd_cmd
  1059                           
  1060                           ;FuzzyMain.c: 55:     lcd_pos(0,0);
  1061  0013' 3000               	movlw	0
  1062  0014' 0084'              	movwf	lcd_pos@fila
  1063  0015' 0085'              	movwf	lcd_pos@fila+1
  1064  0016' 3000               	movlw	0
  1065  0017' 0086'              	movwf	lcd_pos@columna
  1066  0018' 0087'              	movwf	lcd_pos@columna+1
  1067  0019' 120A' 118A' 2000' 120A' 118A' 	fcall	_lcd_pos
  1068  001E'                    l3308:	
  1069                           
  1070                           ;FuzzyMain.c: 56:         lcd_write_s("Pos[cm]:         ");
  1071  001E' 3001               	movlw	(low ((STR_1-__stringbase)| (0+32768)))& (0+255)
  1072  001F' 0083'              	movwf	lcd_write_s@st
  1073  0020' 3080               	movlw	128
  1074  0021' 0084'              	movwf	lcd_write_s@st+1
  1075  0022' 120A' 118A' 2000' 120A' 118A' 	fcall	_lcd_write_s
  1076  0027'                    l3310:	
  1077                           
  1078                           ;FuzzyMain.c: 59:         tiempo=0;
  1079  0027' 3000               	movlw	0
  1080  0028' 1683               	bsf	3,5	;RP0=1, select bank3
  1081  0029' 1703               	bsf	3,6	;RP1=1, select bank3
  1082  002A' 0080'              	movwf	(_tiempo+3)^(0+384)
  1083  002B' 3000               	movlw	0
  1084  002C' 0080'              	movwf	(_tiempo+2)^(0+384)
  1085  002D' 3000               	movlw	0
  1086  002E' 0080'              	movwf	(_tiempo+1)^(0+384)
  1087  002F' 3000               	movlw	0
  1088  0030' 0080'              	movwf	_tiempo^(0+384)
  1089  0031'                    l3312:	
  1090                           
  1091                           ;FuzzyMain.c: 60:         distancia();
  1092  0031' 120A' 118A' 2000' 120A' 118A' 	fcall	_distancia
  1093  0036'                    l3314:	
  1094                           
  1095                           ;FuzzyMain.c: 61:         d1=cmf;
  1096  0036' 1283               	bcf	3,5	;RP0=0, select bank2
  1097  0037' 1703               	bsf	3,6	;RP1=1, select bank2
  1098  0038' 0800'              	movf	(_cmf+3)^(0+256),w
  1099  0039' 0080'              	movwf	(_d1+3)^(0+256)
  1100  003A' 0800'              	movf	(_cmf+2)^(0+256),w
  1101  003B' 0080'              	movwf	(_d1+2)^(0+256)
  1102  003C' 0800'              	movf	(_cmf+1)^(0+256),w
  1103  003D' 0080'              	movwf	(_d1+1)^(0+256)
  1104  003E' 0800'              	movf	_cmf^(0+256),w
  1105  003F' 0080'              	movwf	_d1^(0+256)
  1106  0040'                    l3316:	
  1107                           
  1108                           ;FuzzyMain.c: 62:         _delay((unsigned long)((50)*(8000000/4000)));
  1109  0040' 3082               	movlw	130
  1110  0041' 1683               	bsf	3,5	;RP0=1, select bank1
  1111  0042' 1303               	bcf	3,6	;RP1=0, select bank1
  1112  0043' 0081'              	movwf	(??_main^(0+128)+1)
  1113  0044' 30DD               	movlw	221
  1114  0045' 0080'              	movwf	??_main^(0+128)
  1115  0046'                    u5217:	
  1116  0046' 0B80'              	decfsz	??_main^(0+128),f
  1117  0047' 2800'              	goto	u5217
  1118  0048' 0B81'              	decfsz	(??_main^(0+128)+1),f
  1119  0049' 2800'              	goto	u5217
  1120  004A'                    l3318:	
  1121                           
  1122                           ;FuzzyMain.c: 63:         distancia();
  1123  004A' 120A' 118A' 2000' 120A' 118A' 	fcall	_distancia
  1124  004F'                    l3320:	
  1125                           
  1126                           ;FuzzyMain.c: 64:         d2=cmf;
  1127  004F' 1283               	bcf	3,5	;RP0=0, select bank2
  1128  0050' 1703               	bsf	3,6	;RP1=1, select bank2
  1129  0051' 0800'              	movf	(_cmf+3)^(0+256),w
  1130  0052' 0080'              	movwf	(_d2+3)^(0+256)
  1131  0053' 0800'              	movf	(_cmf+2)^(0+256),w
  1132  0054' 0080'              	movwf	(_d2+2)^(0+256)
  1133  0055' 0800'              	movf	(_cmf+1)^(0+256),w
  1134  0056' 0080'              	movwf	(_d2+1)^(0+256)
  1135  0057' 0800'              	movf	_cmf^(0+256),w
  1136  0058' 0080'              	movwf	_d2^(0+256)
  1137  0059'                    l3322:	
  1138                           
  1139                           ;FuzzyMain.c: 65:         cm=cm-6;
  1140  0059' 1683               	bsf	3,5	;RP0=1, select bank1
  1141  005A' 1303               	bcf	3,6	;RP1=0, select bank1
  1142  005B' 0800'              	movf	_cm^(0+128),w
  1143  005C' 3EFA               	addlw	250
  1144  005D' 0080'              	movwf	_cm^(0+128)
  1145  005E' 0800'              	movf	(_cm+1)^(0+128),w
  1146  005F' 1803               	skipnc
  1147  0060' 3E01               	addlw	1
  1148  0061' 3EFF               	addlw	255
  1149  0062' 0080'              	movwf	(_cm+1)^(0+128)
  1150  0063'                    l3324:	
  1151                           
  1152                           ;FuzzyMain.c: 66:         V=round((d1-d2)/((tiempo/200000)+0.05));
  1153  0063' 1683               	bsf	3,5	;RP0=1, select bank3
  1154  0064' 1703               	bsf	3,6	;RP1=1, select bank3
  1155  0065' 0800'              	movf	(_tiempo+3)^(0+384),w
  1156  0066' 1283               	bcf	3,5	;RP0=0, select bank0
  1157  0067' 1303               	bcf	3,6	;RP1=0, select bank0
  1158  0068' 0091'              	movwf	___fldiv@b+3
  1159  0069' 1683               	bsf	3,5	;RP0=1, select bank3
  1160  006A' 1703               	bsf	3,6	;RP1=1, select bank3
  1161  006B' 0800'              	movf	(_tiempo+2)^(0+384),w
  1162  006C' 1283               	bcf	3,5	;RP0=0, select bank0
  1163  006D' 1303               	bcf	3,6	;RP1=0, select bank0
  1164  006E' 0090'              	movwf	___fldiv@b+2
  1165  006F' 1683               	bsf	3,5	;RP0=1, select bank3
  1166  0070' 1703               	bsf	3,6	;RP1=1, select bank3
  1167  0071' 0800'              	movf	(_tiempo+1)^(0+384),w
  1168  0072' 1283               	bcf	3,5	;RP0=0, select bank0
  1169  0073' 1303               	bcf	3,6	;RP1=0, select bank0
  1170  0074' 008F'              	movwf	___fldiv@b+1
  1171  0075' 1683               	bsf	3,5	;RP0=1, select bank3
  1172  0076' 1703               	bsf	3,6	;RP1=1, select bank3
  1173  0077' 0800'              	movf	_tiempo^(0+384),w
  1174  0078' 1283               	bcf	3,5	;RP0=0, select bank0
  1175  0079' 1303               	bcf	3,6	;RP1=0, select bank0
  1176  007A' 008E'              	movwf	___fldiv@b
  1177  007B' 3048               	movlw	72
  1178  007C' 008D'              	movwf	___fldiv@a+3
  1179  007D' 3043               	movlw	67
  1180  007E' 008C'              	movwf	___fldiv@a+2
  1181  007F' 3050               	movlw	80
  1182  0080' 008B'              	movwf	___fldiv@a+1
  1183  0081' 3000               	movlw	0
  1184  0082' 008A'              	movwf	___fldiv@a
  1185  0083' 120A' 118A' 2000' 120A' 118A' 	fcall	___fldiv
  1186  0088' 1283               	bcf	3,5	;RP0=0, select bank0
  1187  0089' 1303               	bcf	3,6	;RP1=0, select bank0
  1188  008A' 080D'              	movf	?___fldiv+3,w
  1189  008B' 00AB'              	movwf	___fladd@a+3
  1190  008C' 080C'              	movf	?___fldiv+2,w
  1191  008D' 00AA'              	movwf	___fladd@a+2
  1192  008E' 080B'              	movf	?___fldiv+1,w
  1193  008F' 00A9'              	movwf	___fladd@a+1
  1194  0090' 080A'              	movf	?___fldiv,w
  1195  0091' 00A8'              	movwf	___fladd@a
  1196  0092' 303D               	movlw	61
  1197  0093' 00A7'              	movwf	___fladd@b+3
  1198  0094' 304C               	movlw	76
  1199  0095' 00A6'              	movwf	___fladd@b+2
  1200  0096' 30CC               	movlw	204
  1201  0097' 00A5'              	movwf	___fladd@b+1
  1202  0098' 30CD               	movlw	205
  1203  0099' 00A4'              	movwf	___fladd@b
  1204  009A' 120A' 118A' 2000' 120A' 118A' 	fcall	___fladd
  1205  009F' 1283               	bcf	3,5	;RP0=0, select bank0
  1206  00A0' 1303               	bcf	3,6	;RP1=0, select bank0
  1207  00A1' 0827'              	movf	?___fladd+3,w
  1208  00A2' 1683               	bsf	3,5	;RP0=1, select bank1
  1209  00A3' 1303               	bcf	3,6	;RP1=0, select bank1
  1210  00A4' 0080'              	movwf	(_main$825+3)^(0+128)
  1211  00A5' 1283               	bcf	3,5	;RP0=0, select bank0
  1212  00A6' 1303               	bcf	3,6	;RP1=0, select bank0
  1213  00A7' 0826'              	movf	?___fladd+2,w
  1214  00A8' 1683               	bsf	3,5	;RP0=1, select bank1
  1215  00A9' 1303               	bcf	3,6	;RP1=0, select bank1
  1216  00AA' 0080'              	movwf	(_main$825+2)^(0+128)
  1217  00AB' 1283               	bcf	3,5	;RP0=0, select bank0
  1218  00AC' 1303               	bcf	3,6	;RP1=0, select bank0
  1219  00AD' 0825'              	movf	?___fladd+1,w
  1220  00AE' 1683               	bsf	3,5	;RP0=1, select bank1
  1221  00AF' 1303               	bcf	3,6	;RP1=0, select bank1
  1222  00B0' 0080'              	movwf	(_main$825+1)^(0+128)
  1223  00B1' 1283               	bcf	3,5	;RP0=0, select bank0
  1224  00B2' 1303               	bcf	3,6	;RP1=0, select bank0
  1225  00B3' 0824'              	movf	?___fladd,w
  1226  00B4' 1683               	bsf	3,5	;RP0=1, select bank1
  1227  00B5' 1303               	bcf	3,6	;RP1=0, select bank1
  1228  00B6' 0080'              	movwf	_main$825^(0+128)
  1229  00B7'                    l3326:	
  1230                           
  1231                           ;FuzzyMain.c: 66:         V=round((d1-d2)/((tiempo/200000)+0.05));
  1232  00B7' 1283               	bcf	3,5	;RP0=0, select bank2
  1233  00B8' 1703               	bsf	3,6	;RP1=1, select bank2
  1234  00B9' 0800'              	movf	(_d1+3)^(0+256),w
  1235  00BA' 1283               	bcf	3,5	;RP0=0, select bank0
  1236  00BB' 1303               	bcf	3,6	;RP1=0, select bank0
  1237  00BC' 00BF'              	movwf	___flsub@b+3
  1238  00BD' 1283               	bcf	3,5	;RP0=0, select bank2
  1239  00BE' 1703               	bsf	3,6	;RP1=1, select bank2
  1240  00BF' 0800'              	movf	(_d1+2)^(0+256),w
  1241  00C0' 1283               	bcf	3,5	;RP0=0, select bank0
  1242  00C1' 1303               	bcf	3,6	;RP1=0, select bank0
  1243  00C2' 00BE'              	movwf	___flsub@b+2
  1244  00C3' 1283               	bcf	3,5	;RP0=0, select bank2
  1245  00C4' 1703               	bsf	3,6	;RP1=1, select bank2
  1246  00C5' 0800'              	movf	(_d1+1)^(0+256),w
  1247  00C6' 1283               	bcf	3,5	;RP0=0, select bank0
  1248  00C7' 1303               	bcf	3,6	;RP1=0, select bank0
  1249  00C8' 00BD'              	movwf	___flsub@b+1
  1250  00C9' 1283               	bcf	3,5	;RP0=0, select bank2
  1251  00CA' 1703               	bsf	3,6	;RP1=1, select bank2
  1252  00CB' 0800'              	movf	_d1^(0+256),w
  1253  00CC' 1283               	bcf	3,5	;RP0=0, select bank0
  1254  00CD' 1303               	bcf	3,6	;RP1=0, select bank0
  1255  00CE' 00BC'              	movwf	___flsub@b
  1256  00CF' 1283               	bcf	3,5	;RP0=0, select bank2
  1257  00D0' 1703               	bsf	3,6	;RP1=1, select bank2
  1258  00D1' 0800'              	movf	(_d2+3)^(0+256),w
  1259  00D2' 1283               	bcf	3,5	;RP0=0, select bank0
  1260  00D3' 1303               	bcf	3,6	;RP1=0, select bank0
  1261  00D4' 00BB'              	movwf	___flsub@a+3
  1262  00D5' 1283               	bcf	3,5	;RP0=0, select bank2
  1263  00D6' 1703               	bsf	3,6	;RP1=1, select bank2
  1264  00D7' 0800'              	movf	(_d2+2)^(0+256),w
  1265  00D8' 1283               	bcf	3,5	;RP0=0, select bank0
  1266  00D9' 1303               	bcf	3,6	;RP1=0, select bank0
  1267  00DA' 00BA'              	movwf	___flsub@a+2
  1268  00DB' 1283               	bcf	3,5	;RP0=0, select bank2
  1269  00DC' 1703               	bsf	3,6	;RP1=1, select bank2
  1270  00DD' 0800'              	movf	(_d2+1)^(0+256),w
  1271  00DE' 1283               	bcf	3,5	;RP0=0, select bank0
  1272  00DF' 1303               	bcf	3,6	;RP1=0, select bank0
  1273  00E0' 00B9'              	movwf	___flsub@a+1
  1274  00E1' 1283               	bcf	3,5	;RP0=0, select bank2
  1275  00E2' 1703               	bsf	3,6	;RP1=1, select bank2
  1276  00E3' 0800'              	movf	_d2^(0+256),w
  1277  00E4' 1283               	bcf	3,5	;RP0=0, select bank0
  1278  00E5' 1303               	bcf	3,6	;RP1=0, select bank0
  1279  00E6' 00B8'              	movwf	___flsub@a
  1280  00E7' 120A' 118A' 2000' 120A' 118A' 	fcall	___flsub
  1281  00EC' 1283               	bcf	3,5	;RP0=0, select bank0
  1282  00ED' 1303               	bcf	3,6	;RP1=0, select bank0
  1283  00EE' 083B'              	movf	?___flsub+3,w
  1284  00EF' 0091'              	movwf	___fldiv@b+3
  1285  00F0' 083A'              	movf	?___flsub+2,w
  1286  00F1' 0090'              	movwf	___fldiv@b+2
  1287  00F2' 0839'              	movf	?___flsub+1,w
  1288  00F3' 008F'              	movwf	___fldiv@b+1
  1289  00F4' 0838'              	movf	?___flsub,w
  1290  00F5' 008E'              	movwf	___fldiv@b
  1291  00F6' 1683               	bsf	3,5	;RP0=1, select bank1
  1292  00F7' 1303               	bcf	3,6	;RP1=0, select bank1
  1293  00F8' 0800'              	movf	(_main$825+3)^(0+128),w
  1294  00F9' 1283               	bcf	3,5	;RP0=0, select bank0
  1295  00FA' 1303               	bcf	3,6	;RP1=0, select bank0
  1296  00FB' 008D'              	movwf	___fldiv@a+3
  1297  00FC' 1683               	bsf	3,5	;RP0=1, select bank1
  1298  00FD' 1303               	bcf	3,6	;RP1=0, select bank1
  1299  00FE' 0800'              	movf	(_main$825+2)^(0+128),w
  1300  00FF' 1283               	bcf	3,5	;RP0=0, select bank0
  1301  0100' 1303               	bcf	3,6	;RP1=0, select bank0
  1302  0101' 008C'              	movwf	___fldiv@a+2
  1303  0102' 1683               	bsf	3,5	;RP0=1, select bank1
  1304  0103' 1303               	bcf	3,6	;RP1=0, select bank1
  1305  0104' 0800'              	movf	(_main$825+1)^(0+128),w
  1306  0105' 1283               	bcf	3,5	;RP0=0, select bank0
  1307  0106' 1303               	bcf	3,6	;RP1=0, select bank0
  1308  0107' 008B'              	movwf	___fldiv@a+1
  1309  0108' 1683               	bsf	3,5	;RP0=1, select bank1
  1310  0109' 1303               	bcf	3,6	;RP1=0, select bank1
  1311  010A' 0800'              	movf	_main$825^(0+128),w
  1312  010B' 1283               	bcf	3,5	;RP0=0, select bank0
  1313  010C' 1303               	bcf	3,6	;RP1=0, select bank0
  1314  010D' 008A'              	movwf	___fldiv@a
  1315  010E' 120A' 118A' 2000' 120A' 118A' 	fcall	___fldiv
  1316  0113' 1283               	bcf	3,5	;RP0=0, select bank0
  1317  0114' 1303               	bcf	3,6	;RP1=0, select bank0
  1318  0115' 080D'              	movf	?___fldiv+3,w
  1319  0116' 1683               	bsf	3,5	;RP0=1, select bank1
  1320  0117' 1303               	bcf	3,6	;RP1=0, select bank1
  1321  0118' 0080'              	movwf	(_main$826+3)^(0+128)
  1322  0119' 1283               	bcf	3,5	;RP0=0, select bank0
  1323  011A' 1303               	bcf	3,6	;RP1=0, select bank0
  1324  011B' 080C'              	movf	?___fldiv+2,w
  1325  011C' 1683               	bsf	3,5	;RP0=1, select bank1
  1326  011D' 1303               	bcf	3,6	;RP1=0, select bank1
  1327  011E' 0080'              	movwf	(_main$826+2)^(0+128)
  1328  011F' 1283               	bcf	3,5	;RP0=0, select bank0
  1329  0120' 1303               	bcf	3,6	;RP1=0, select bank0
  1330  0121' 080B'              	movf	?___fldiv+1,w
  1331  0122' 1683               	bsf	3,5	;RP0=1, select bank1
  1332  0123' 1303               	bcf	3,6	;RP1=0, select bank1
  1333  0124' 0080'              	movwf	(_main$826+1)^(0+128)
  1334  0125' 1283               	bcf	3,5	;RP0=0, select bank0
  1335  0126' 1303               	bcf	3,6	;RP1=0, select bank0
  1336  0127' 080A'              	movf	?___fldiv,w
  1337  0128' 1683               	bsf	3,5	;RP0=1, select bank1
  1338  0129' 1303               	bcf	3,6	;RP1=0, select bank1
  1339  012A' 0080'              	movwf	_main$826^(0+128)
  1340  012B'                    l3328:	
  1341                           
  1342                           ;FuzzyMain.c: 66:         V=round((d1-d2)/((tiempo/200000)+0.05));
  1343  012B' 0800'              	movf	(_main$826+3)^(0+128),w
  1344  012C' 0080'              	movwf	(round@x+3)^(0+128)
  1345  012D' 0800'              	movf	(_main$826+2)^(0+128),w
  1346  012E' 0080'              	movwf	(round@x+2)^(0+128)
  1347  012F' 0800'              	movf	(_main$826+1)^(0+128),w
  1348  0130' 0080'              	movwf	(round@x+1)^(0+128)
  1349  0131' 0800'              	movf	_main$826^(0+128),w
  1350  0132' 0080'              	movwf	round@x^(0+128)
  1351  0133' 120A' 118A' 2000' 120A' 118A' 	fcall	_round
  1352  0138' 1683               	bsf	3,5	;RP0=1, select bank1
  1353  0139' 1303               	bcf	3,6	;RP1=0, select bank1
  1354  013A' 0800'              	movf	(?_round+3)^(0+128),w
  1355  013B' 0080'              	movwf	(_main$827+3)^(0+128)
  1356  013C' 0800'              	movf	(?_round+2)^(0+128),w
  1357  013D' 0080'              	movwf	(_main$827+2)^(0+128)
  1358  013E' 0800'              	movf	(?_round+1)^(0+128),w
  1359  013F' 0080'              	movwf	(_main$827+1)^(0+128)
  1360  0140' 0800'              	movf	?_round^(0+128),w
  1361  0141' 0080'              	movwf	_main$827^(0+128)
  1362  0142'                    l3330:	
  1363                           
  1364                           ;FuzzyMain.c: 66:         V=round((d1-d2)/((tiempo/200000)+0.05));
  1365  0142' 0800'              	movf	(_main$827+3)^(0+128),w
  1366  0143' 1283               	bcf	3,5	;RP0=0, select bank0
  1367  0144' 1303               	bcf	3,6	;RP1=0, select bank0
  1368  0145' 00C3'              	movwf	___fltol@f1+3
  1369  0146' 1683               	bsf	3,5	;RP0=1, select bank1
  1370  0147' 1303               	bcf	3,6	;RP1=0, select bank1
  1371  0148' 0800'              	movf	(_main$827+2)^(0+128),w
  1372  0149' 1283               	bcf	3,5	;RP0=0, select bank0
  1373  014A' 1303               	bcf	3,6	;RP1=0, select bank0
  1374  014B' 00C2'              	movwf	___fltol@f1+2
  1375  014C' 1683               	bsf	3,5	;RP0=1, select bank1
  1376  014D' 1303               	bcf	3,6	;RP1=0, select bank1
  1377  014E' 0800'              	movf	(_main$827+1)^(0+128),w
  1378  014F' 1283               	bcf	3,5	;RP0=0, select bank0
  1379  0150' 1303               	bcf	3,6	;RP1=0, select bank0
  1380  0151' 00C1'              	movwf	___fltol@f1+1
  1381  0152' 1683               	bsf	3,5	;RP0=1, select bank1
  1382  0153' 1303               	bcf	3,6	;RP1=0, select bank1
  1383  0154' 0800'              	movf	_main$827^(0+128),w
  1384  0155' 1283               	bcf	3,5	;RP0=0, select bank0
  1385  0156' 1303               	bcf	3,6	;RP1=0, select bank0
  1386  0157' 00C0'              	movwf	___fltol@f1
  1387  0158' 120A' 118A' 2000' 120A' 118A' 	fcall	___fltol
  1388  015D' 1283               	bcf	3,5	;RP0=0, select bank0
  1389  015E' 1303               	bcf	3,6	;RP1=0, select bank0
  1390  015F' 0841'              	movf	?___fltol+1,w
  1391  0160' 1683               	bsf	3,5	;RP0=1, select bank1
  1392  0161' 1303               	bcf	3,6	;RP1=0, select bank1
  1393  0162' 0080'              	movwf	(_V+1)^(0+128)
  1394  0163' 1283               	bcf	3,5	;RP0=0, select bank0
  1395  0164' 1303               	bcf	3,6	;RP1=0, select bank0
  1396  0165' 0840'              	movf	?___fltol,w
  1397  0166' 1683               	bsf	3,5	;RP0=1, select bank1
  1398  0167' 1303               	bcf	3,6	;RP1=0, select bank1
  1399  0168' 0080'              	movwf	_V^(0+128)
  1400  0169'                    l3332:	
  1401                           
  1402                           ;FuzzyMain.c: 67:         V=abs(V);
  1403  0169' 0800'              	movf	(_V+1)^(0+128),w
  1404  016A' 0081'              	movwf	abs@a+1
  1405  016B' 0800'              	movf	_V^(0+128),w
  1406  016C' 0080'              	movwf	abs@a
  1407  016D' 120A' 118A' 2000' 120A' 118A' 	fcall	_abs
  1408  0172' 0801'              	movf	?_abs+1,w
  1409  0173' 1683               	bsf	3,5	;RP0=1, select bank1
  1410  0174' 1303               	bcf	3,6	;RP1=0, select bank1
  1411  0175' 0080'              	movwf	(_V+1)^(0+128)
  1412  0176' 0800'              	movf	?_abs,w
  1413  0177' 0080'              	movwf	_V^(0+128)
  1414  0178'                    l3334:	
  1415                           
  1416                           ;FuzzyMain.c: 69:         DUTY=Fuz(cm,V);
  1417  0178' 0800'              	movf	(_cm+1)^(0+128),w
  1418  0179' 0080'              	movwf	(Fuz@X+1)^(0+128)
  1419  017A' 0800'              	movf	_cm^(0+128),w
  1420  017B' 0080'              	movwf	Fuz@X^(0+128)
  1421  017C' 0800'              	movf	(_V+1)^(0+128),w
  1422  017D' 0080'              	movwf	(Fuz@Y+1)^(0+128)
  1423  017E' 0800'              	movf	_V^(0+128),w
  1424  017F' 0080'              	movwf	Fuz@Y^(0+128)
  1425  0180' 120A' 118A' 2000' 120A' 118A' 	fcall	_Fuz
  1426  0185' 1683               	bsf	3,5	;RP0=1, select bank1
  1427  0186' 1303               	bcf	3,6	;RP1=0, select bank1
  1428  0187' 0800'              	movf	(?_Fuz+1)^(0+128),w
  1429  0188' 1683               	bsf	3,5	;RP0=1, select bank3
  1430  0189' 1703               	bsf	3,6	;RP1=1, select bank3
  1431  018A' 0080'              	movwf	(_DUTY+1)^(0+384)
  1432  018B' 1683               	bsf	3,5	;RP0=1, select bank1
  1433  018C' 1303               	bcf	3,6	;RP1=0, select bank1
  1434  018D' 0800'              	movf	?_Fuz^(0+128),w
  1435  018E' 1683               	bsf	3,5	;RP0=1, select bank3
  1436  018F' 1703               	bsf	3,6	;RP1=1, select bank3
  1437  0190' 0080'              	movwf	_DUTY^(0+384)
  1438  0191'                    l3336:	
  1439                           
  1440                           ;FuzzyMain.c: 71:         P=DUTY*4*(PR2+1);
  1441  0191' 1683               	bsf	3,5	;RP0=1, select bank1
  1442  0192' 1303               	bcf	3,6	;RP1=0, select bank1
  1443  0193' 0812               	movf	18,w	;volatile
  1444  0194' 3E01               	addlw	1
  1445  0195' 0080'              	movwf	___wmul@multiplier
  1446  0196' 3000               	movlw	0
  1447  0197' 1803               	skipnc
  1448  0198' 3001               	movlw	1
  1449  0199' 0081'              	movwf	___wmul@multiplier+1
  1450  019A' 1683               	bsf	3,5	;RP0=1, select bank3
  1451  019B' 1703               	bsf	3,6	;RP1=1, select bank3
  1452  019C' 0800'              	movf	(_DUTY+1)^(0+384),w
  1453  019D' 1683               	bsf	3,5	;RP0=1, select bank1
  1454  019E' 1303               	bcf	3,6	;RP1=0, select bank1
  1455  019F' 0081'              	movwf	(??_main^(0+128)+1)
  1456  01A0' 1683               	bsf	3,5	;RP0=1, select bank3
  1457  01A1' 1703               	bsf	3,6	;RP1=1, select bank3
  1458  01A2' 0800'              	movf	_DUTY^(0+384),w
  1459  01A3' 1683               	bsf	3,5	;RP0=1, select bank1
  1460  01A4' 1303               	bcf	3,6	;RP1=0, select bank1
  1461  01A5' 0080'              	movwf	??_main^(0+128)
  1462  01A6' 1003               	clrc
  1463  01A7' 0D80'              	rlf	??_main^(0+128),f
  1464  01A8' 0D81'              	rlf	(??_main^(0+128)+1),f
  1465  01A9' 1003               	clrc
  1466  01AA' 0D80'              	rlf	??_main^(0+128),f
  1467  01AB' 0D81'              	rlf	(??_main^(0+128)+1),f
  1468  01AC' 0800'              	movf	??_main^(0+128),w
  1469  01AD' 0082'              	movwf	___wmul@multiplicand
  1470  01AE' 0800'              	movf	(??_main+1)^(0+128),w
  1471  01AF' 0083'              	movwf	___wmul@multiplicand+1
  1472  01B0' 120A' 118A' 2000' 120A' 118A' 	fcall	___wmul
  1473  01B5' 0801'              	movf	?___wmul+1,w
  1474  01B6' 1683               	bsf	3,5	;RP0=1, select bank1
  1475  01B7' 1303               	bcf	3,6	;RP1=0, select bank1
  1476  01B8' 0080'              	movwf	(_P+1)^(0+128)
  1477  01B9' 0800'              	movf	?___wmul,w
  1478  01BA' 0080'              	movwf	_P^(0+128)
  1479  01BB'                    l3338:	
  1480                           
  1481                           ;FuzzyMain.c: 72:         P=P/(4*100);
  1482  01BB' 3090               	movlw	144
  1483  01BC' 0080'              	movwf	___awdiv@divisor
  1484  01BD' 3001               	movlw	1
  1485  01BE' 0081'              	movwf	___awdiv@divisor+1
  1486  01BF' 0800'              	movf	(_P+1)^(0+128),w
  1487  01C0' 0083'              	movwf	___awdiv@dividend+1
  1488  01C1' 0800'              	movf	_P^(0+128),w
  1489  01C2' 0082'              	movwf	___awdiv@dividend
  1490  01C3' 120A' 118A' 2000' 120A' 118A' 	fcall	___awdiv
  1491  01C8' 0801'              	movf	?___awdiv+1,w
  1492  01C9' 1683               	bsf	3,5	;RP0=1, select bank1
  1493  01CA' 1303               	bcf	3,6	;RP1=0, select bank1
  1494  01CB' 0080'              	movwf	(_P+1)^(0+128)
  1495  01CC' 0800'              	movf	?___awdiv,w
  1496  01CD' 0080'              	movwf	_P^(0+128)
  1497  01CE'                    l3340:	
  1498                           
  1499                           ;FuzzyMain.c: 73:         P=round(P);
  1500  01CE' 0800'              	movf	_P^(0+128),w
  1501  01CF' 0089'              	movwf	___xxtofl@val
  1502  01D0' 0800'              	movf	(_P+1)^(0+128),w
  1503  01D1' 008A'              	movwf	___xxtofl@val+1
  1504  01D2' 3000               	movlw	0
  1505  01D3' 1B8A'              	btfsc	___xxtofl@val+1,7
  1506  01D4' 30FF               	movlw	255
  1507  01D5' 008B'              	movwf	___xxtofl@val+2
  1508  01D6' 008C'              	movwf	___xxtofl@val+3
  1509  01D7' 3001               	movlw	1
  1510  01D8' 120A' 118A' 2000' 120A' 118A' 	fcall	___xxtofl
  1511  01DD' 080C'              	movf	?___xxtofl+3,w
  1512  01DE' 1683               	bsf	3,5	;RP0=1, select bank1
  1513  01DF' 1303               	bcf	3,6	;RP1=0, select bank1
  1514  01E0' 0080'              	movwf	(_main$828+3)^(0+128)
  1515  01E1' 080B'              	movf	?___xxtofl+2,w
  1516  01E2' 0080'              	movwf	(_main$828+2)^(0+128)
  1517  01E3' 080A'              	movf	?___xxtofl+1,w
  1518  01E4' 0080'              	movwf	(_main$828+1)^(0+128)
  1519  01E5' 0809'              	movf	?___xxtofl,w
  1520  01E6' 0080'              	movwf	_main$828^(0+128)
  1521  01E7'                    l3342:	
  1522                           
  1523                           ;FuzzyMain.c: 73:         P=round(P);
  1524  01E7' 0800'              	movf	(_main$828+3)^(0+128),w
  1525  01E8' 0080'              	movwf	(round@x+3)^(0+128)
  1526  01E9' 0800'              	movf	(_main$828+2)^(0+128),w
  1527  01EA' 0080'              	movwf	(round@x+2)^(0+128)
  1528  01EB' 0800'              	movf	(_main$828+1)^(0+128),w
  1529  01EC' 0080'              	movwf	(round@x+1)^(0+128)
  1530  01ED' 0800'              	movf	_main$828^(0+128),w
  1531  01EE' 0080'              	movwf	round@x^(0+128)
  1532  01EF' 120A' 118A' 2000' 120A' 118A' 	fcall	_round
  1533  01F4' 1683               	bsf	3,5	;RP0=1, select bank1
  1534  01F5' 1303               	bcf	3,6	;RP1=0, select bank1
  1535  01F6' 0800'              	movf	(?_round+3)^(0+128),w
  1536  01F7' 0080'              	movwf	(_main$829+3)^(0+128)
  1537  01F8' 0800'              	movf	(?_round+2)^(0+128),w
  1538  01F9' 0080'              	movwf	(_main$829+2)^(0+128)
  1539  01FA' 0800'              	movf	(?_round+1)^(0+128),w
  1540  01FB' 0080'              	movwf	(_main$829+1)^(0+128)
  1541  01FC' 0800'              	movf	?_round^(0+128),w
  1542  01FD' 0080'              	movwf	_main$829^(0+128)
  1543  01FE'                    l3344:	
  1544                           
  1545                           ;FuzzyMain.c: 73:         P=round(P);
  1546  01FE' 0800'              	movf	(_main$829+3)^(0+128),w
  1547  01FF' 1283               	bcf	3,5	;RP0=0, select bank0
  1548  0200' 1303               	bcf	3,6	;RP1=0, select bank0
  1549  0201' 00C3'              	movwf	___fltol@f1+3
  1550  0202' 1683               	bsf	3,5	;RP0=1, select bank1
  1551  0203' 1303               	bcf	3,6	;RP1=0, select bank1
  1552  0204' 0800'              	movf	(_main$829+2)^(0+128),w
  1553  0205' 1283               	bcf	3,5	;RP0=0, select bank0
  1554  0206' 1303               	bcf	3,6	;RP1=0, select bank0
  1555  0207' 00C2'              	movwf	___fltol@f1+2
  1556  0208' 1683               	bsf	3,5	;RP0=1, select bank1
  1557  0209' 1303               	bcf	3,6	;RP1=0, select bank1
  1558  020A' 0800'              	movf	(_main$829+1)^(0+128),w
  1559  020B' 1283               	bcf	3,5	;RP0=0, select bank0
  1560  020C' 1303               	bcf	3,6	;RP1=0, select bank0
  1561  020D' 00C1'              	movwf	___fltol@f1+1
  1562  020E' 1683               	bsf	3,5	;RP0=1, select bank1
  1563  020F' 1303               	bcf	3,6	;RP1=0, select bank1
  1564  0210' 0800'              	movf	_main$829^(0+128),w
  1565  0211' 1283               	bcf	3,5	;RP0=0, select bank0
  1566  0212' 1303               	bcf	3,6	;RP1=0, select bank0
  1567  0213' 00C0'              	movwf	___fltol@f1
  1568  0214' 120A' 118A' 2000' 120A' 118A' 	fcall	___fltol
  1569  0219' 1283               	bcf	3,5	;RP0=0, select bank0
  1570  021A' 1303               	bcf	3,6	;RP1=0, select bank0
  1571  021B' 0841'              	movf	?___fltol+1,w
  1572  021C' 1683               	bsf	3,5	;RP0=1, select bank1
  1573  021D' 1303               	bcf	3,6	;RP1=0, select bank1
  1574  021E' 0080'              	movwf	(_P+1)^(0+128)
  1575  021F' 1283               	bcf	3,5	;RP0=0, select bank0
  1576  0220' 1303               	bcf	3,6	;RP1=0, select bank0
  1577  0221' 0840'              	movf	?___fltol,w
  1578  0222' 1683               	bsf	3,5	;RP0=1, select bank1
  1579  0223' 1303               	bcf	3,6	;RP1=0, select bank1
  1580  0224' 0080'              	movwf	_P^(0+128)
  1581  0225'                    l3346:	
  1582                           
  1583                           ;FuzzyMain.c: 74:         CCPR2L= (int) P;
  1584  0225' 0800'              	movf	_P^(0+128),w
  1585  0226' 1283               	bcf	3,5	;RP0=0, select bank0
  1586  0227' 1303               	bcf	3,6	;RP1=0, select bank0
  1587  0228' 009B               	movwf	27	;volatile
  1588  0229'                    l3348:	
  1589                           
  1590                           ;FuzzyMain.c: 78:         itoa(centi,cm,10);
  1591  0229' 1683               	bsf	3,5	;RP0=1, select bank1
  1592  022A' 1303               	bcf	3,6	;RP1=0, select bank1
  1593  022B' 0800'              	movf	(_cm+1)^(0+128),w
  1594  022C' 1283               	bcf	3,5	;RP0=0, select bank0
  1595  022D' 1303               	bcf	3,6	;RP1=0, select bank0
  1596  022E' 0085'              	movwf	itoa@val+1
  1597  022F' 1683               	bsf	3,5	;RP0=1, select bank1
  1598  0230' 1303               	bcf	3,6	;RP1=0, select bank1
  1599  0231' 0800'              	movf	_cm^(0+128),w
  1600  0232' 1283               	bcf	3,5	;RP0=0, select bank0
  1601  0233' 1303               	bcf	3,6	;RP1=0, select bank0
  1602  0234' 0084'              	movwf	itoa@val
  1603  0235' 300A               	movlw	10
  1604  0236' 0086'              	movwf	itoa@base
  1605  0237' 3000               	movlw	0
  1606  0238' 0087'              	movwf	itoa@base+1
  1607  0239' 3000'              	movlw	(low (_centi| (0+256)))& (0+255)
  1608  023A' 120A' 118A' 2000' 120A' 118A' 	fcall	_itoa
  1609  023F'                    l3350:	
  1610                           
  1611                           ;FuzzyMain.c: 79:         lcd_pos(0,0);
  1612  023F' 3000               	movlw	0
  1613  0240' 0084'              	movwf	lcd_pos@fila
  1614  0241' 0085'              	movwf	lcd_pos@fila+1
  1615  0242' 3000               	movlw	0
  1616  0243' 0086'              	movwf	lcd_pos@columna
  1617  0244' 0087'              	movwf	lcd_pos@columna+1
  1618  0245' 120A' 118A' 2000' 120A' 118A' 	fcall	_lcd_pos
  1619  024A'                    l3352:	
  1620                           
  1621                           ;FuzzyMain.c: 80:         lcd_write_s("Pos[cm]:         ");
  1622  024A' 3001               	movlw	(low ((STR_1-__stringbase)| (0+32768)))& (0+255)
  1623  024B' 0083'              	movwf	lcd_write_s@st
  1624  024C' 3080               	movlw	128
  1625  024D' 0084'              	movwf	lcd_write_s@st+1
  1626  024E' 120A' 118A' 2000' 120A' 118A' 	fcall	_lcd_write_s
  1627  0253'                    l3354:	
  1628                           
  1629                           ;FuzzyMain.c: 81:         lcd_pos(0,8);
  1630  0253' 3000               	movlw	0
  1631  0254' 0084'              	movwf	lcd_pos@fila
  1632  0255' 0085'              	movwf	lcd_pos@fila+1
  1633  0256' 3008               	movlw	8
  1634  0257' 0086'              	movwf	lcd_pos@columna
  1635  0258' 3000               	movlw	0
  1636  0259' 0087'              	movwf	lcd_pos@columna+1
  1637  025A' 120A' 118A' 2000' 120A' 118A' 	fcall	_lcd_pos
  1638  025F'                    l3356:	
  1639                           
  1640                           ;FuzzyMain.c: 82:         lcd_write_s(centi);
  1641  025F' 3000'              	movlw	(low (_centi| (0+256)))& (0+255)
  1642  0260' 0083'              	movwf	lcd_write_s@st
  1643  0261' 3001               	movlw	1
  1644  0262' 0084'              	movwf	lcd_write_s@st+1
  1645  0263' 120A' 118A' 2000' 120A' 118A' 	fcall	_lcd_write_s
  1646  0268'                    l3358:	
  1647                           
  1648                           ;FuzzyMain.c: 84:         itoa(velo,P,10);
  1649  0268' 1683               	bsf	3,5	;RP0=1, select bank1
  1650  0269' 1303               	bcf	3,6	;RP1=0, select bank1
  1651  026A' 0800'              	movf	(_P+1)^(0+128),w
  1652  026B' 1283               	bcf	3,5	;RP0=0, select bank0
  1653  026C' 1303               	bcf	3,6	;RP1=0, select bank0
  1654  026D' 0085'              	movwf	itoa@val+1
  1655  026E' 1683               	bsf	3,5	;RP0=1, select bank1
  1656  026F' 1303               	bcf	3,6	;RP1=0, select bank1
  1657  0270' 0800'              	movf	_P^(0+128),w
  1658  0271' 1283               	bcf	3,5	;RP0=0, select bank0
  1659  0272' 1303               	bcf	3,6	;RP1=0, select bank0
  1660  0273' 0084'              	movwf	itoa@val
  1661  0274' 300A               	movlw	10
  1662  0275' 0086'              	movwf	itoa@base
  1663  0276' 3000               	movlw	0
  1664  0277' 0087'              	movwf	itoa@base+1
  1665  0278' 3000'              	movlw	(low (_velo| (0+256)))& (0+255)
  1666  0279' 120A' 118A' 2000' 120A' 118A' 	fcall	_itoa
  1667  027E'                    l3360:	
  1668                           
  1669                           ;FuzzyMain.c: 85:         lcd_pos(1,0);
  1670  027E' 3001               	movlw	1
  1671  027F' 0084'              	movwf	lcd_pos@fila
  1672  0280' 3000               	movlw	0
  1673  0281' 0085'              	movwf	lcd_pos@fila+1
  1674  0282' 3000               	movlw	0
  1675  0283' 0086'              	movwf	lcd_pos@columna
  1676  0284' 0087'              	movwf	lcd_pos@columna+1
  1677  0285' 120A' 118A' 2000' 120A' 118A' 	fcall	_lcd_pos
  1678  028A'                    l3362:	
  1679                           
  1680                           ;FuzzyMain.c: 86:         lcd_write_s("Vel[cm/s]:      ");
  1681  028A' 3013               	movlw	(low ((STR_3-__stringbase)| (0+32768)))& (0+255)
  1682  028B' 0083'              	movwf	lcd_write_s@st
  1683  028C' 3080               	movlw	128
  1684  028D' 0084'              	movwf	lcd_write_s@st+1
  1685  028E' 120A' 118A' 2000' 120A' 118A' 	fcall	_lcd_write_s
  1686  0293'                    l3364:	
  1687                           
  1688                           ;FuzzyMain.c: 87:         lcd_pos(1,10);
  1689  0293' 3001               	movlw	1
  1690  0294' 0084'              	movwf	lcd_pos@fila
  1691  0295' 3000               	movlw	0
  1692  0296' 0085'              	movwf	lcd_pos@fila+1
  1693  0297' 300A               	movlw	10
  1694  0298' 0086'              	movwf	lcd_pos@columna
  1695  0299' 3000               	movlw	0
  1696  029A' 0087'              	movwf	lcd_pos@columna+1
  1697  029B' 120A' 118A' 2000' 120A' 118A' 	fcall	_lcd_pos
  1698  02A0'                    l3366:	
  1699                           
  1700                           ;FuzzyMain.c: 88:         lcd_write_s(velo);
  1701  02A0' 3000'              	movlw	(low (_velo| (0+256)))& (0+255)
  1702  02A1' 0083'              	movwf	lcd_write_s@st
  1703  02A2' 3001               	movlw	1
  1704  02A3' 0084'              	movwf	lcd_write_s@st+1
  1705  02A4' 120A' 118A' 2000' 120A' 118A' 	fcall	_lcd_write_s
  1706  02A9' 2800'              	goto	l3310
  1707  02AA' 120A' 118A' 2800'  	ljmp	start
  1708  02AD'                    __end_of_main:	
  1709                           
  1710                           	psect	text1
  1711  0000'                    __ptext1:	
  1712 ;; *************** function _setup *****************
  1713 ;; Defined at:
  1714 ;;		line 93 in file "FuzzyMain.c"
  1715 ;; Parameters:    Size  Location     Type
  1716 ;;		None
  1717 ;; Auto vars:     Size  Location     Type
  1718 ;;		None
  1719 ;; Return value:  Size  Location     Type
  1720 ;;                  1    wreg      void 
  1721 ;; Registers used:
  1722 ;;		wreg, status,2
  1723 ;; Tracked objects:
  1724 ;;		On entry : 0/0
  1725 ;;		On exit  : 0/0
  1726 ;;		Unchanged: 0/0
  1727 ;; Data sizes:     COMMON   BANK0   BANK1   BANK3   BANK2
  1728 ;;      Params:         0       0       0       0       0
  1729 ;;      Locals:         0       0       0       0       0
  1730 ;;      Temps:          3       0       0       0       0
  1731 ;;      Totals:         3       0       0       0       0
  1732 ;;Total ram usage:        3 bytes
  1733 ;; Hardware stack levels used:    1
  1734 ;; This function calls:
  1735 ;;		Nothing
  1736 ;; This function is called by:
  1737 ;;		_main
  1738 ;; This function uses a non-reentrant model
  1739 ;;
  1740                           
  1741                           
  1742                           ;psect for function _setup
  1743  0000'                    _setup:	
  1744  0000'                    l3234:	
  1745                           ;incstack = 0
  1746                           ; Regs used in _setup: [wreg+status,2]
  1747                           
  1748                           
  1749                           ;FuzzyMain.c: 94:     OSCCON=0B01111000;
  1750  0000' 3078               	movlw	120
  1751  0001' 1683               	bsf	3,5	;RP0=1, select bank1
  1752  0002' 1303               	bcf	3,6	;RP1=0, select bank1
  1753  0003' 008F               	movwf	15	;volatile
  1754  0004'                    l3236:	
  1755                           
  1756                           ;FuzzyMain.c: 95:     TRISC=0;
  1757  0004' 0187               	clrf	7	;volatile
  1758  0005'                    l3238:	
  1759                           
  1760                           ;FuzzyMain.c: 96:     PORTC=0;
  1761  0005' 1283               	bcf	3,5	;RP0=0, select bank0
  1762  0006' 1303               	bcf	3,6	;RP1=0, select bank0
  1763  0007' 0187               	clrf	7	;volatile
  1764  0008'                    l3240:	
  1765                           
  1766                           ;FuzzyMain.c: 97:     PORTD=0;
  1767  0008' 0188               	clrf	8	;volatile
  1768  0009'                    l3242:	
  1769                           
  1770                           ;FuzzyMain.c: 98:     TRISD= 0B00000001;
  1771  0009' 3001               	movlw	1
  1772  000A' 1683               	bsf	3,5	;RP0=1, select bank1
  1773  000B' 1303               	bcf	3,6	;RP1=0, select bank1
  1774  000C' 0088               	movwf	8	;volatile
  1775  000D'                    l3244:	
  1776                           
  1777                           ;FuzzyMain.c: 99:     T1CON= 0B00010000;
  1778  000D' 3010               	movlw	16
  1779  000E' 1283               	bcf	3,5	;RP0=0, select bank0
  1780  000F' 1303               	bcf	3,6	;RP1=0, select bank0
  1781  0010' 0090               	movwf	16	;volatile
  1782  0011'                    l3246:	
  1783                           
  1784                           ;FuzzyMain.c: 100:     T2CON= 0B00000110;
  1785  0011' 3006               	movlw	6
  1786  0012' 0092               	movwf	18	;volatile
  1787  0013'                    l3248:	
  1788                           
  1789                           ;FuzzyMain.c: 101:     CCP2CON=0B00001100;
  1790  0013' 300C               	movlw	12
  1791  0014' 009D               	movwf	29	;volatile
  1792  0015'                    l3250:	
  1793                           
  1794                           ;FuzzyMain.c: 102:     PR2=124;
  1795  0015' 307C               	movlw	124
  1796  0016' 1683               	bsf	3,5	;RP0=1, select bank1
  1797  0017' 1303               	bcf	3,6	;RP1=0, select bank1
  1798  0018' 0092               	movwf	18	;volatile
  1799  0019'                    l3252:	
  1800                           
  1801                           ;FuzzyMain.c: 104:     CCPR2L=124;
  1802  0019' 307C               	movlw	124
  1803  001A' 1283               	bcf	3,5	;RP0=0, select bank0
  1804  001B' 1303               	bcf	3,6	;RP1=0, select bank0
  1805  001C' 009B               	movwf	27	;volatile
  1806  001D'                    l3254:	
  1807                           
  1808                           ;FuzzyMain.c: 106:     _delay((unsigned long)((1000)*(8000000/4000)));
  1809  001D' 300B               	movlw	11
  1810  001E' 0082'              	movwf	??_setup+2
  1811  001F' 3026               	movlw	38
  1812  0020' 0081'              	movwf	??_setup+1
  1813  0021' 305D               	movlw	93
  1814  0022' 0080'              	movwf	??_setup
  1815  0023'                    u5227:	
  1816  0023' 0B80'              	decfsz	??_setup,f
  1817  0024' 2800'              	goto	u5227
  1818  0025' 0B81'              	decfsz	??_setup+1,f
  1819  0026' 2800'              	goto	u5227
  1820  0027' 0B82'              	decfsz	??_setup+2,f
  1821  0028' 2800'              	goto	u5227
  1822  0029' 2800'              	nop2
  1823  002A'                    l176:	
  1824  002A' 0008               	return
  1825  002B'                    __end_of_setup:	
  1826                           
  1827                           	psect	text2
  1828  0000'                    __ptext2:	
  1829 ;; *************** function _round *****************
  1830 ;; Defined at:
  1831 ;;		line 6 in file "C:\Program Files (x86)\Microchip\xc8\v2.10\pic\sources\c90\common\round.c"
  1832 ;; Parameters:    Size  Location     Type
  1833 ;;  x               4    6[BANK1 ] void 
  1834 ;; Auto vars:     Size  Location     Type
  1835 ;;  f               4   10[BANK1 ] void 
  1836 ;; Return value:  Size  Location     Type
  1837 ;;                  4    6[BANK1 ] void 
  1838 ;; Registers used:
  1839 ;;		wreg, fsr0l, fsr0h, status,2, status,0, btemp+1, pclath, cstack
  1840 ;; Tracked objects:
  1841 ;;		On entry : 0/0
  1842 ;;		On exit  : 0/0
  1843 ;;		Unchanged: 0/0
  1844 ;; Data sizes:     COMMON   BANK0   BANK1   BANK3   BANK2
  1845 ;;      Params:         0       0       4       0       0
  1846 ;;      Locals:         0       0       4       0       0
  1847 ;;      Temps:          0       0       0       0       0
  1848 ;;      Totals:         0       0       8       0       0
  1849 ;;Total ram usage:        8 bytes
  1850 ;; Hardware stack levels used:    1
  1851 ;; Hardware stack levels required when called:    3
  1852 ;; This function calls:
  1853 ;;		___fladd
  1854 ;;		___flsub
  1855 ;;		_trunc
  1856 ;; This function is called by:
  1857 ;;		_main
  1858 ;; This function uses a non-reentrant model
  1859 ;;
  1860                           
  1861                           
  1862                           ;psect for function _round
  1863  0000'                    _round:	
  1864  0000'                    l3278:	
  1865                           ;incstack = 0
  1866                           ; Regs used in _round: [wreg-fsr0h+status,2+status,0+btemp+1+pclath+cstack]
  1867                           
  1868  0000' 1683               	bsf	3,5	;RP0=1, select bank1
  1869  0001' 1303               	bcf	3,6	;RP1=0, select bank1
  1870  0002' 0800'              	movf	(round@x+3)^(0+128),w
  1871  0003' 1283               	bcf	3,5	;RP0=0, select bank0
  1872  0004' 1303               	bcf	3,6	;RP1=0, select bank0
  1873  0005' 00CE'              	movwf	trunc@x+3
  1874  0006' 1683               	bsf	3,5	;RP0=1, select bank1
  1875  0007' 1303               	bcf	3,6	;RP1=0, select bank1
  1876  0008' 0800'              	movf	(round@x+2)^(0+128),w
  1877  0009' 1283               	bcf	3,5	;RP0=0, select bank0
  1878  000A' 1303               	bcf	3,6	;RP1=0, select bank0
  1879  000B' 00CD'              	movwf	trunc@x+2
  1880  000C' 1683               	bsf	3,5	;RP0=1, select bank1
  1881  000D' 1303               	bcf	3,6	;RP1=0, select bank1
  1882  000E' 0800'              	movf	(round@x+1)^(0+128),w
  1883  000F' 1283               	bcf	3,5	;RP0=0, select bank0
  1884  0010' 1303               	bcf	3,6	;RP1=0, select bank0
  1885  0011' 00CC'              	movwf	trunc@x+1
  1886  0012' 1683               	bsf	3,5	;RP0=1, select bank1
  1887  0013' 1303               	bcf	3,6	;RP1=0, select bank1
  1888  0014' 0800'              	movf	round@x^(0+128),w
  1889  0015' 1283               	bcf	3,5	;RP0=0, select bank0
  1890  0016' 1303               	bcf	3,6	;RP1=0, select bank0
  1891  0017' 00CB'              	movwf	trunc@x
  1892  0018' 120A' 118A' 2000' 120A' 118A' 	fcall	_trunc
  1893  001D' 1283               	bcf	3,5	;RP0=0, select bank0
  1894  001E' 1303               	bcf	3,6	;RP1=0, select bank0
  1895  001F' 084E'              	movf	?_trunc+3,w
  1896  0020' 00BB'              	movwf	___flsub@a+3
  1897  0021' 084D'              	movf	?_trunc+2,w
  1898  0022' 00BA'              	movwf	___flsub@a+2
  1899  0023' 084C'              	movf	?_trunc+1,w
  1900  0024' 00B9'              	movwf	___flsub@a+1
  1901  0025' 084B'              	movf	?_trunc,w
  1902  0026' 00B8'              	movwf	___flsub@a
  1903  0027' 1683               	bsf	3,5	;RP0=1, select bank1
  1904  0028' 1303               	bcf	3,6	;RP1=0, select bank1
  1905  0029' 0800'              	movf	(round@x+3)^(0+128),w
  1906  002A' 1283               	bcf	3,5	;RP0=0, select bank0
  1907  002B' 1303               	bcf	3,6	;RP1=0, select bank0
  1908  002C' 00BF'              	movwf	___flsub@b+3
  1909  002D' 1683               	bsf	3,5	;RP0=1, select bank1
  1910  002E' 1303               	bcf	3,6	;RP1=0, select bank1
  1911  002F' 0800'              	movf	(round@x+2)^(0+128),w
  1912  0030' 1283               	bcf	3,5	;RP0=0, select bank0
  1913  0031' 1303               	bcf	3,6	;RP1=0, select bank0
  1914  0032' 00BE'              	movwf	___flsub@b+2
  1915  0033' 1683               	bsf	3,5	;RP0=1, select bank1
  1916  0034' 1303               	bcf	3,6	;RP1=0, select bank1
  1917  0035' 0800'              	movf	(round@x+1)^(0+128),w
  1918  0036' 1283               	bcf	3,5	;RP0=0, select bank0
  1919  0037' 1303               	bcf	3,6	;RP1=0, select bank0
  1920  0038' 00BD'              	movwf	___flsub@b+1
  1921  0039' 1683               	bsf	3,5	;RP0=1, select bank1
  1922  003A' 1303               	bcf	3,6	;RP1=0, select bank1
  1923  003B' 0800'              	movf	round@x^(0+128),w
  1924  003C' 1283               	bcf	3,5	;RP0=0, select bank0
  1925  003D' 1303               	bcf	3,6	;RP1=0, select bank0
  1926  003E' 00BC'              	movwf	___flsub@b
  1927  003F' 120A' 118A' 2000' 120A' 118A' 	fcall	___flsub
  1928  0044' 1283               	bcf	3,5	;RP0=0, select bank0
  1929  0045' 1303               	bcf	3,6	;RP1=0, select bank0
  1930  0046' 083B'              	movf	?___flsub+3,w
  1931  0047' 1683               	bsf	3,5	;RP0=1, select bank1
  1932  0048' 1303               	bcf	3,6	;RP1=0, select bank1
  1933  0049' 0080'              	movwf	(round@f+3)^(0+128)
  1934  004A' 1283               	bcf	3,5	;RP0=0, select bank0
  1935  004B' 1303               	bcf	3,6	;RP1=0, select bank0
  1936  004C' 083A'              	movf	?___flsub+2,w
  1937  004D' 1683               	bsf	3,5	;RP0=1, select bank1
  1938  004E' 1303               	bcf	3,6	;RP1=0, select bank1
  1939  004F' 0080'              	movwf	(round@f+2)^(0+128)
  1940  0050' 1283               	bcf	3,5	;RP0=0, select bank0
  1941  0051' 1303               	bcf	3,6	;RP1=0, select bank0
  1942  0052' 0839'              	movf	?___flsub+1,w
  1943  0053' 1683               	bsf	3,5	;RP0=1, select bank1
  1944  0054' 1303               	bcf	3,6	;RP1=0, select bank1
  1945  0055' 0080'              	movwf	(round@f+1)^(0+128)
  1946  0056' 1283               	bcf	3,5	;RP0=0, select bank0
  1947  0057' 1303               	bcf	3,6	;RP1=0, select bank0
  1948  0058' 0838'              	movf	?___flsub,w
  1949  0059' 1683               	bsf	3,5	;RP0=1, select bank1
  1950  005A' 1303               	bcf	3,6	;RP1=0, select bank1
  1951  005B' 0080'              	movwf	round@f^(0+128)
  1952  005C'                    l3280:	
  1953  005C' 0800'              	movf	(round@f+3)^(0+128),w
  1954  005D' 1283               	bcf	3,5	;RP0=0, select bank0
  1955  005E' 1303               	bcf	3,6	;RP1=0, select bank0
  1956  005F' 00A7'              	movwf	___fladd@b+3
  1957  0060' 1683               	bsf	3,5	;RP0=1, select bank1
  1958  0061' 1303               	bcf	3,6	;RP1=0, select bank1
  1959  0062' 0800'              	movf	(round@f+2)^(0+128),w
  1960  0063' 1283               	bcf	3,5	;RP0=0, select bank0
  1961  0064' 1303               	bcf	3,6	;RP1=0, select bank0
  1962  0065' 00A6'              	movwf	___fladd@b+2
  1963  0066' 1683               	bsf	3,5	;RP0=1, select bank1
  1964  0067' 1303               	bcf	3,6	;RP1=0, select bank1
  1965  0068' 0800'              	movf	(round@f+1)^(0+128),w
  1966  0069' 1283               	bcf	3,5	;RP0=0, select bank0
  1967  006A' 1303               	bcf	3,6	;RP1=0, select bank0
  1968  006B' 00A5'              	movwf	___fladd@b+1
  1969  006C' 1683               	bsf	3,5	;RP0=1, select bank1
  1970  006D' 1303               	bcf	3,6	;RP1=0, select bank1
  1971  006E' 0800'              	movf	round@f^(0+128),w
  1972  006F' 1283               	bcf	3,5	;RP0=0, select bank0
  1973  0070' 1303               	bcf	3,6	;RP1=0, select bank0
  1974  0071' 00A4'              	movwf	___fladd@b
  1975  0072' 1683               	bsf	3,5	;RP0=1, select bank1
  1976  0073' 1303               	bcf	3,6	;RP1=0, select bank1
  1977  0074' 0800'              	movf	(round@x+3)^(0+128),w
  1978  0075' 1283               	bcf	3,5	;RP0=0, select bank0
  1979  0076' 1303               	bcf	3,6	;RP1=0, select bank0
  1980  0077' 00AB'              	movwf	___fladd@a+3
  1981  0078' 1683               	bsf	3,5	;RP0=1, select bank1
  1982  0079' 1303               	bcf	3,6	;RP1=0, select bank1
  1983  007A' 0800'              	movf	(round@x+2)^(0+128),w
  1984  007B' 1283               	bcf	3,5	;RP0=0, select bank0
  1985  007C' 1303               	bcf	3,6	;RP1=0, select bank0
  1986  007D' 00AA'              	movwf	___fladd@a+2
  1987  007E' 1683               	bsf	3,5	;RP0=1, select bank1
  1988  007F' 1303               	bcf	3,6	;RP1=0, select bank1
  1989  0080' 0800'              	movf	(round@x+1)^(0+128),w
  1990  0081' 1283               	bcf	3,5	;RP0=0, select bank0
  1991  0082' 1303               	bcf	3,6	;RP1=0, select bank0
  1992  0083' 00A9'              	movwf	___fladd@a+1
  1993  0084' 1683               	bsf	3,5	;RP0=1, select bank1
  1994  0085' 1303               	bcf	3,6	;RP1=0, select bank1
  1995  0086' 0800'              	movf	round@x^(0+128),w
  1996  0087' 1283               	bcf	3,5	;RP0=0, select bank0
  1997  0088' 1303               	bcf	3,6	;RP1=0, select bank0
  1998  0089' 00A8'              	movwf	___fladd@a
  1999  008A' 120A' 118A' 2000' 120A' 118A' 	fcall	___fladd
  2000  008F' 1283               	bcf	3,5	;RP0=0, select bank0
  2001  0090' 1303               	bcf	3,6	;RP1=0, select bank0
  2002  0091' 0827'              	movf	?___fladd+3,w
  2003  0092' 1683               	bsf	3,5	;RP0=1, select bank1
  2004  0093' 1303               	bcf	3,6	;RP1=0, select bank1
  2005  0094' 0080'              	movwf	(round@x+3)^(0+128)
  2006  0095' 1283               	bcf	3,5	;RP0=0, select bank0
  2007  0096' 1303               	bcf	3,6	;RP1=0, select bank0
  2008  0097' 0826'              	movf	?___fladd+2,w
  2009  0098' 1683               	bsf	3,5	;RP0=1, select bank1
  2010  0099' 1303               	bcf	3,6	;RP1=0, select bank1
  2011  009A' 0080'              	movwf	(round@x+2)^(0+128)
  2012  009B' 1283               	bcf	3,5	;RP0=0, select bank0
  2013  009C' 1303               	bcf	3,6	;RP1=0, select bank0
  2014  009D' 0825'              	movf	?___fladd+1,w
  2015  009E' 1683               	bsf	3,5	;RP0=1, select bank1
  2016  009F' 1303               	bcf	3,6	;RP1=0, select bank1
  2017  00A0' 0080'              	movwf	(round@x+1)^(0+128)
  2018  00A1' 1283               	bcf	3,5	;RP0=0, select bank0
  2019  00A2' 1303               	bcf	3,6	;RP1=0, select bank0
  2020  00A3' 0824'              	movf	?___fladd,w
  2021  00A4' 1683               	bsf	3,5	;RP0=1, select bank1
  2022  00A5' 1303               	bcf	3,6	;RP1=0, select bank1
  2023  00A6' 0080'              	movwf	round@x^(0+128)
  2024  00A7'                    l3282:	
  2025  00A7' 0800'              	movf	(round@x+3)^(0+128),w
  2026  00A8' 1283               	bcf	3,5	;RP0=0, select bank0
  2027  00A9' 1303               	bcf	3,6	;RP1=0, select bank0
  2028  00AA' 00CE'              	movwf	trunc@x+3
  2029  00AB' 1683               	bsf	3,5	;RP0=1, select bank1
  2030  00AC' 1303               	bcf	3,6	;RP1=0, select bank1
  2031  00AD' 0800'              	movf	(round@x+2)^(0+128),w
  2032  00AE' 1283               	bcf	3,5	;RP0=0, select bank0
  2033  00AF' 1303               	bcf	3,6	;RP1=0, select bank0
  2034  00B0' 00CD'              	movwf	trunc@x+2
  2035  00B1' 1683               	bsf	3,5	;RP0=1, select bank1
  2036  00B2' 1303               	bcf	3,6	;RP1=0, select bank1
  2037  00B3' 0800'              	movf	(round@x+1)^(0+128),w
  2038  00B4' 1283               	bcf	3,5	;RP0=0, select bank0
  2039  00B5' 1303               	bcf	3,6	;RP1=0, select bank0
  2040  00B6' 00CC'              	movwf	trunc@x+1
  2041  00B7' 1683               	bsf	3,5	;RP0=1, select bank1
  2042  00B8' 1303               	bcf	3,6	;RP1=0, select bank1
  2043  00B9' 0800'              	movf	round@x^(0+128),w
  2044  00BA' 1283               	bcf	3,5	;RP0=0, select bank0
  2045  00BB' 1303               	bcf	3,6	;RP1=0, select bank0
  2046  00BC' 00CB'              	movwf	trunc@x
  2047  00BD' 120A' 118A' 2000' 120A' 118A' 	fcall	_trunc
  2048  00C2' 1283               	bcf	3,5	;RP0=0, select bank0
  2049  00C3' 1303               	bcf	3,6	;RP1=0, select bank0
  2050  00C4' 084E'              	movf	?_trunc+3,w
  2051  00C5' 1683               	bsf	3,5	;RP0=1, select bank1
  2052  00C6' 1303               	bcf	3,6	;RP1=0, select bank1
  2053  00C7' 0080'              	movwf	(?_round+3)^(0+128)
  2054  00C8' 1283               	bcf	3,5	;RP0=0, select bank0
  2055  00C9' 1303               	bcf	3,6	;RP1=0, select bank0
  2056  00CA' 084D'              	movf	?_trunc+2,w
  2057  00CB' 1683               	bsf	3,5	;RP0=1, select bank1
  2058  00CC' 1303               	bcf	3,6	;RP1=0, select bank1
  2059  00CD' 0080'              	movwf	(?_round+2)^(0+128)
  2060  00CE' 1283               	bcf	3,5	;RP0=0, select bank0
  2061  00CF' 1303               	bcf	3,6	;RP1=0, select bank0
  2062  00D0' 084C'              	movf	?_trunc+1,w
  2063  00D1' 1683               	bsf	3,5	;RP0=1, select bank1
  2064  00D2' 1303               	bcf	3,6	;RP1=0, select bank1
  2065  00D3' 0080'              	movwf	(?_round+1)^(0+128)
  2066  00D4' 1283               	bcf	3,5	;RP0=0, select bank0
  2067  00D5' 1303               	bcf	3,6	;RP1=0, select bank0
  2068  00D6' 084B'              	movf	?_trunc,w
  2069  00D7' 1683               	bsf	3,5	;RP0=1, select bank1
  2070  00D8' 1303               	bcf	3,6	;RP1=0, select bank1
  2071  00D9' 0080'              	movwf	?_round^(0+128)
  2072  00DA'                    l739:	
  2073  00DA' 0008               	return
  2074  00DB'                    __end_of_round:	
  2075                           
  2076                           	psect	text3
  2077  0000'                    __ptext3:	
  2078 ;; *************** function _trunc *****************
  2079 ;; Defined at:
  2080 ;;		line 13 in file "C:\Program Files (x86)\Microchip\xc8\v2.10\pic\sources\c90\common\trunc.c"
  2081 ;; Parameters:    Size  Location     Type
  2082 ;;  x               4   75[BANK0 ] void 
  2083 ;; Auto vars:     Size  Location     Type
  2084 ;;  i               4    0[BANK1 ] void 
  2085 ;;  expon           2    4[BANK1 ] int 
  2086 ;; Return value:  Size  Location     Type
  2087 ;;                  4   75[BANK0 ] int 
  2088 ;; Registers used:
  2089 ;;		wreg, fsr0l, fsr0h, status,2, status,0, btemp+1, pclath, cstack
  2090 ;; Tracked objects:
  2091 ;;		On entry : 0/0
  2092 ;;		On exit  : 0/0
  2093 ;;		Unchanged: 0/0
  2094 ;; Data sizes:     COMMON   BANK0   BANK1   BANK3   BANK2
  2095 ;;      Params:         0       4       0       0       0
  2096 ;;      Locals:         0       0       6       0       0
  2097 ;;      Temps:          0       1       0       0       0
  2098 ;;      Totals:         0       5       6       0       0
  2099 ;;Total ram usage:       11 bytes
  2100 ;; Hardware stack levels used:    1
  2101 ;; Hardware stack levels required when called:    2
  2102 ;; This function calls:
  2103 ;;		___fltol
  2104 ;;		___xxtofl
  2105 ;;		_frexp
  2106 ;; This function is called by:
  2107 ;;		_round
  2108 ;; This function uses a non-reentrant model
  2109 ;;
  2110                           
  2111                           
  2112                           ;psect for function _trunc
  2113  0000'                    _trunc:	
  2114  0000'                    l2950:	
  2115                           ;incstack = 0
  2116                           ; Regs used in _trunc: [wreg-fsr0h+status,2+status,0+btemp+1+pclath+cstack]
  2117                           
  2118  0000' 1283               	bcf	3,5	;RP0=0, select bank0
  2119  0001' 1303               	bcf	3,6	;RP1=0, select bank0
  2120  0002' 084E'              	movf	trunc@x+3,w
  2121  0003' 0083'              	movwf	frexp@value+3
  2122  0004' 084D'              	movf	trunc@x+2,w
  2123  0005' 0082'              	movwf	frexp@value+2
  2124  0006' 084C'              	movf	trunc@x+1,w
  2125  0007' 0081'              	movwf	frexp@value+1
  2126  0008' 084B'              	movf	trunc@x,w
  2127  0009' 0080'              	movwf	frexp@value
  2128  000A' 3000'              	movlw	(low (trunc@expon| 0))& (0+255)
  2129  000B' 00CF'              	movwf	??_trunc
  2130  000C' 084F'              	movf	??_trunc,w
  2131  000D' 0084'              	movwf	frexp@eptr
  2132  000E' 120A' 118A' 2000' 120A' 118A' 	fcall	_frexp
  2133  0013'                    l2952:	
  2134  0013' 1683               	bsf	3,5	;RP0=1, select bank1
  2135  0014' 1303               	bcf	3,6	;RP1=0, select bank1
  2136  0015' 1F80'              	btfss	(trunc@expon+1)^(0+128),7
  2137  0016' 2800'              	goto	u4551
  2138  0017' 2800'              	goto	u4550
  2139  0018'                    u4551:	
  2140  0018' 2800'              	goto	l2958
  2141  0019'                    u4550:	
  2142  0019'                    l2954:	
  2143  0019' 3000               	movlw	0
  2144  001A' 1283               	bcf	3,5	;RP0=0, select bank0
  2145  001B' 1303               	bcf	3,6	;RP1=0, select bank0
  2146  001C' 00CE'              	movwf	?_trunc+3
  2147  001D' 3000               	movlw	0
  2148  001E' 00CD'              	movwf	?_trunc+2
  2149  001F' 3000               	movlw	0
  2150  0020' 00CC'              	movwf	?_trunc+1
  2151  0021' 3000               	movlw	0
  2152  0022' 00CB'              	movwf	?_trunc
  2153  0023' 2800'              	goto	l745
  2154  0024'                    l2958:	
  2155  0024' 3000               	movlw	0
  2156  0025' 0200'              	subwf	(trunc@expon+1)^(0+128),w
  2157  0026' 301D               	movlw	29
  2158  0027' 1903               	skipnz
  2159  0028' 0200'              	subwf	trunc@expon^(0+128),w
  2160  0029' 1C03               	skipc
  2161  002A' 2800'              	goto	u4561
  2162  002B' 2800'              	goto	u4560
  2163  002C'                    u4561:	
  2164  002C' 2800'              	goto	l2962
  2165  002D'                    u4560:	
  2166  002D'                    l2960:	
  2167  002D' 2800'              	goto	l745
  2168  002E'                    l2962:	
  2169  002E' 1283               	bcf	3,5	;RP0=0, select bank0
  2170  002F' 1303               	bcf	3,6	;RP1=0, select bank0
  2171  0030' 084E'              	movf	trunc@x+3,w
  2172  0031' 00C3'              	movwf	___fltol@f1+3
  2173  0032' 084D'              	movf	trunc@x+2,w
  2174  0033' 00C2'              	movwf	___fltol@f1+2
  2175  0034' 084C'              	movf	trunc@x+1,w
  2176  0035' 00C1'              	movwf	___fltol@f1+1
  2177  0036' 084B'              	movf	trunc@x,w
  2178  0037' 00C0'              	movwf	___fltol@f1
  2179  0038' 120A' 118A' 2000' 120A' 118A' 	fcall	___fltol
  2180  003D' 1283               	bcf	3,5	;RP0=0, select bank0
  2181  003E' 1303               	bcf	3,6	;RP1=0, select bank0
  2182  003F' 0843'              	movf	?___fltol+3,w
  2183  0040' 008C'              	movwf	___xxtofl@val+3
  2184  0041' 0842'              	movf	?___fltol+2,w
  2185  0042' 008B'              	movwf	___xxtofl@val+2
  2186  0043' 0841'              	movf	?___fltol+1,w
  2187  0044' 008A'              	movwf	___xxtofl@val+1
  2188  0045' 0840'              	movf	?___fltol,w
  2189  0046' 0089'              	movwf	___xxtofl@val
  2190  0047' 3001               	movlw	1
  2191  0048' 120A' 118A' 2000' 120A' 118A' 	fcall	___xxtofl
  2192  004D' 080C'              	movf	?___xxtofl+3,w
  2193  004E' 1683               	bsf	3,5	;RP0=1, select bank1
  2194  004F' 1303               	bcf	3,6	;RP1=0, select bank1
  2195  0050' 0080'              	movwf	(trunc@i+3)^(0+128)
  2196  0051' 080B'              	movf	?___xxtofl+2,w
  2197  0052' 0080'              	movwf	(trunc@i+2)^(0+128)
  2198  0053' 080A'              	movf	?___xxtofl+1,w
  2199  0054' 0080'              	movwf	(trunc@i+1)^(0+128)
  2200  0055' 0809'              	movf	?___xxtofl,w
  2201  0056' 0080'              	movwf	trunc@i^(0+128)
  2202  0057'                    l2964:	
  2203  0057' 0800'              	movf	(trunc@i+3)^(0+128),w
  2204  0058' 1283               	bcf	3,5	;RP0=0, select bank0
  2205  0059' 1303               	bcf	3,6	;RP1=0, select bank0
  2206  005A' 00CE'              	movwf	?_trunc+3
  2207  005B' 1683               	bsf	3,5	;RP0=1, select bank1
  2208  005C' 1303               	bcf	3,6	;RP1=0, select bank1
  2209  005D' 0800'              	movf	(trunc@i+2)^(0+128),w
  2210  005E' 1283               	bcf	3,5	;RP0=0, select bank0
  2211  005F' 1303               	bcf	3,6	;RP1=0, select bank0
  2212  0060' 00CD'              	movwf	?_trunc+2
  2213  0061' 1683               	bsf	3,5	;RP0=1, select bank1
  2214  0062' 1303               	bcf	3,6	;RP1=0, select bank1
  2215  0063' 0800'              	movf	(trunc@i+1)^(0+128),w
  2216  0064' 1283               	bcf	3,5	;RP0=0, select bank0
  2217  0065' 1303               	bcf	3,6	;RP1=0, select bank0
  2218  0066' 00CC'              	movwf	?_trunc+1
  2219  0067' 1683               	bsf	3,5	;RP0=1, select bank1
  2220  0068' 1303               	bcf	3,6	;RP1=0, select bank1
  2221  0069' 0800'              	movf	trunc@i^(0+128),w
  2222  006A' 1283               	bcf	3,5	;RP0=0, select bank0
  2223  006B' 1303               	bcf	3,6	;RP1=0, select bank0
  2224  006C' 00CB'              	movwf	?_trunc
  2225  006D'                    l745:	
  2226  006D' 0008               	return
  2227  006E'                    __end_of_trunc:	
  2228                           
  2229                           	psect	text4
  2230  0000'                    __ptext4:	
  2231 ;; *************** function _frexp *****************
  2232 ;; Defined at:
  2233 ;;		line 254 in file "C:\Program Files (x86)\Microchip\xc8\v2.10\pic\sources\c90\common\frexp.c"
  2234 ;; Parameters:    Size  Location     Type
  2235 ;;  value           4    0[BANK0 ] int 
  2236 ;;  eptr            1    4[BANK0 ] PTR int 
  2237 ;;		 -> trunc@expon(2), 
  2238 ;; Auto vars:     Size  Location     Type
  2239 ;;		None
  2240 ;; Return value:  Size  Location     Type
  2241 ;;                  4    0[BANK0 ] PTR int 
  2242 ;; Registers used:
  2243 ;;		wreg, fsr0l, fsr0h, status,2, status,0, btemp+1, pclath, cstack
  2244 ;; Tracked objects:
  2245 ;;		On entry : 0/0
  2246 ;;		On exit  : 0/0
  2247 ;;		Unchanged: 0/0
  2248 ;; Data sizes:     COMMON   BANK0   BANK1   BANK3   BANK2
  2249 ;;      Params:         0       5       0       0       0
  2250 ;;      Locals:         0       0       0       0       0
  2251 ;;      Temps:          2       0       0       0       0
  2252 ;;      Totals:         2       5       0       0       0
  2253 ;;Total ram usage:        7 bytes
  2254 ;; Hardware stack levels used:    1
  2255 ;; Hardware stack levels required when called:    1
  2256 ;; This function calls:
  2257 ;;		___fleq
  2258 ;; This function is called by:
  2259 ;;		_trunc
  2260 ;; This function uses a non-reentrant model
  2261 ;;
  2262                           
  2263                           
  2264                           ;psect for function _frexp
  2265  0000'                    _frexp:	
  2266  0000'                    l2770:	
  2267                           ;incstack = 0
  2268                           ; Regs used in _frexp: [wreg-fsr0h+status,2+status,0+btemp+1+pclath+cstack]
  2269                           
  2270  0000' 1283               	bcf	3,5	;RP0=0, select bank0
  2271  0001' 1303               	bcf	3,6	;RP1=0, select bank0
  2272  0002' 0803'              	movf	frexp@value+3,w
  2273  0003' 0083'              	movwf	___fleq@ff1+3
  2274  0004' 0802'              	movf	frexp@value+2,w
  2275  0005' 0082'              	movwf	___fleq@ff1+2
  2276  0006' 0801'              	movf	frexp@value+1,w
  2277  0007' 0081'              	movwf	___fleq@ff1+1
  2278  0008' 0800'              	movf	frexp@value,w
  2279  0009' 0080'              	movwf	___fleq@ff1
  2280  000A' 3000               	movlw	0
  2281  000B' 0087'              	movwf	___fleq@ff2+3
  2282  000C' 3000               	movlw	0
  2283  000D' 0086'              	movwf	___fleq@ff2+2
  2284  000E' 3000               	movlw	0
  2285  000F' 0085'              	movwf	___fleq@ff2+1
  2286  0010' 3000               	movlw	0
  2287  0011' 0084'              	movwf	___fleq@ff2
  2288  0012' 120A' 118A' 2000' 120A' 118A' 	fcall	___fleq
  2289  0017' 1C03               	btfss	3,0
  2290  0018' 2800'              	goto	u4231
  2291  0019' 2800'              	goto	u4230
  2292  001A'                    u4231:	
  2293  001A' 2800'              	goto	l2776
  2294  001B'                    u4230:	
  2295  001B'                    l2772:	
  2296  001B' 1283               	bcf	3,5	;RP0=0, select bank0
  2297  001C' 1303               	bcf	3,6	;RP1=0, select bank0
  2298  001D' 0804'              	movf	frexp@eptr,w
  2299  001E' 0084               	movwf	4
  2300  001F' 1383               	bcf	3,7	;select IRP bank0
  2301  0020' 0180               	clrf	0
  2302  0021' 0A84               	incf	4,f
  2303  0022' 0180               	clrf	0
  2304  0023' 2800'              	goto	l758
  2305  0024'                    l2776:	
  2306  0024' 1283               	bcf	3,5	;RP0=0, select bank0
  2307  0025' 1303               	bcf	3,6	;RP1=0, select bank0
  2308  0026' 0803'              	movf	frexp@value+3,w
  2309  0027' 397F               	andlw	127
  2310  0028' 008C'              	movwf	??_frexp
  2311  0029' 018D'              	clrf	??_frexp+1
  2312  002A' 1003               	clrc
  2313  002B' 0D8C'              	rlf	??_frexp,f
  2314  002C' 0D8D'              	rlf	??_frexp+1,f
  2315  002D' 0804'              	movf	frexp@eptr,w
  2316  002E' 0084               	movwf	4
  2317  002F' 080C'              	movf	??_frexp,w
  2318  0030' 1383               	bcf	3,7	;select IRP bank0
  2319  0031' 0080               	movwf	0
  2320  0032' 0A84               	incf	4,f
  2321  0033' 080D'              	movf	??_frexp+1,w
  2322  0034' 0080               	movwf	0
  2323  0035' 0D02'              	rlf	frexp@value+2,w
  2324  0036' 0D02'              	rlf	frexp@value+2,w
  2325  0037' 3901               	andlw	1
  2326  0038' 008C'              	movwf	??_frexp
  2327  0039' 018D'              	clrf	??_frexp+1
  2328  003A' 0804'              	movf	frexp@eptr,w
  2329  003B' 0084               	movwf	4
  2330  003C' 080C'              	movf	??_frexp,w
  2331  003D' 0480               	iorwf	0,f
  2332  003E' 0A84               	incf	4,f
  2333  003F' 080D'              	movf	??_frexp+1,w
  2334  0040' 0480               	iorwf	0,f
  2335  0041'                    l2778:	
  2336  0041' 0804'              	movf	frexp@eptr,w
  2337  0042' 0084               	movwf	4
  2338  0043' 3082               	movlw	130
  2339  0044' 0780               	addwf	0,f
  2340  0045' 0F84               	incfsz	4,f
  2341  0046' 0800               	movf	0,w
  2342  0047' 1803               	skipnc
  2343  0048' 0A00               	incf	0,w
  2344  0049' 00FF               	movwf	btemp+1
  2345  004A' 30FF               	movlw	255
  2346  004B' 077F               	addwf	btemp+1,w
  2347  004C' 0080               	movwf	0
  2348  004D' 0384               	decf	4,f
  2349  004E'                    l2780:	
  2350  004E' 0803'              	movf	frexp@value+3,w
  2351  004F' 3980               	andlw	-128
  2352  0050' 383F               	iorlw	63
  2353  0051' 0083'              	movwf	frexp@value+3
  2354  0052'                    l2782:	
  2355  0052' 1382'              	bcf	frexp@value+2,7
  2356  0053'                    l758:	
  2357  0053' 0008               	return
  2358  0054'                    __end_of_frexp:	
  2359                           
  2360                           	psect	text5
  2361  0000'                    __ptext5:	
  2362 ;; *************** function ___fleq *****************
  2363 ;; Defined at:
  2364 ;;		line 4 in file "C:\Program Files (x86)\Microchip\xc8\v2.10\pic\sources\c90\common\fleq.c"
  2365 ;; Parameters:    Size  Location     Type
  2366 ;;  ff1             4    0[COMMON] PTR int 
  2367 ;;  ff2             4    4[COMMON] PTR int 
  2368 ;; Auto vars:     Size  Location     Type
  2369 ;;		None
  2370 ;; Return value:  Size  Location     Type
  2371 ;;		None               void
  2372 ;; Registers used:
  2373 ;;		wreg, status,2, status,0
  2374 ;; Tracked objects:
  2375 ;;		On entry : 0/0
  2376 ;;		On exit  : 0/0
  2377 ;;		Unchanged: 0/0
  2378 ;; Data sizes:     COMMON   BANK0   BANK1   BANK3   BANK2
  2379 ;;      Params:         8       0       0       0       0
  2380 ;;      Locals:         0       0       0       0       0
  2381 ;;      Temps:          4       0       0       0       0
  2382 ;;      Totals:        12       0       0       0       0
  2383 ;;Total ram usage:       12 bytes
  2384 ;; Hardware stack levels used:    1
  2385 ;; This function calls:
  2386 ;;		Nothing
  2387 ;; This function is called by:
  2388 ;;		_frexp
  2389 ;; This function uses a non-reentrant model
  2390 ;;
  2391                           
  2392                           
  2393                           ;psect for function ___fleq
  2394  0000'                    ___fleq:	
  2395  0000'                    l2114:	
  2396                           ;incstack = 0
  2397                           ; Regs used in ___fleq: [wreg+status,2+status,0]
  2398                           
  2399  0000' 3000               	movlw	0
  2400  0001' 0500'              	andwf	___fleq@ff1,w
  2401  0002' 0088'              	movwf	??___fleq
  2402  0003' 3000               	movlw	0
  2403  0004' 0501'              	andwf	___fleq@ff1+1,w
  2404  0005' 0089'              	movwf	??___fleq+1
  2405  0006' 3080               	movlw	128
  2406  0007' 0502'              	andwf	___fleq@ff1+2,w
  2407  0008' 008A'              	movwf	??___fleq+2
  2408  0009' 307F               	movlw	127
  2409  000A' 0503'              	andwf	___fleq@ff1+3,w
  2410  000B' 008B'              	movwf	??___fleq+3
  2411  000C' 080B'              	movf	??___fleq+3,w
  2412  000D' 040A'              	iorwf	??___fleq+2,w
  2413  000E' 0409'              	iorwf	??___fleq+1,w
  2414  000F' 0408'              	iorwf	??___fleq,w
  2415  0010' 1D03               	skipz
  2416  0011' 2800'              	goto	u2611
  2417  0012' 2800'              	goto	u2610
  2418  0013'                    u2611:	
  2419  0013' 2800'              	goto	l443
  2420  0014'                    u2610:	
  2421  0014'                    l2116:	
  2422  0014' 3000               	movlw	0
  2423  0015' 0083'              	movwf	___fleq@ff1+3
  2424  0016' 3000               	movlw	0
  2425  0017' 0082'              	movwf	___fleq@ff1+2
  2426  0018' 3000               	movlw	0
  2427  0019' 0081'              	movwf	___fleq@ff1+1
  2428  001A' 3000               	movlw	0
  2429  001B' 0080'              	movwf	___fleq@ff1
  2430  001C'                    l443:	
  2431  001C' 3000               	movlw	0
  2432  001D' 0504'              	andwf	___fleq@ff2,w
  2433  001E' 0088'              	movwf	??___fleq
  2434  001F' 3000               	movlw	0
  2435  0020' 0505'              	andwf	___fleq@ff2+1,w
  2436  0021' 0089'              	movwf	??___fleq+1
  2437  0022' 3080               	movlw	128
  2438  0023' 0506'              	andwf	___fleq@ff2+2,w
  2439  0024' 008A'              	movwf	??___fleq+2
  2440  0025' 307F               	movlw	127
  2441  0026' 0507'              	andwf	___fleq@ff2+3,w
  2442  0027' 008B'              	movwf	??___fleq+3
  2443  0028' 080B'              	movf	??___fleq+3,w
  2444  0029' 040A'              	iorwf	??___fleq+2,w
  2445  002A' 0409'              	iorwf	??___fleq+1,w
  2446  002B' 0408'              	iorwf	??___fleq,w
  2447  002C' 1D03               	skipz
  2448  002D' 2800'              	goto	u2621
  2449  002E' 2800'              	goto	u2620
  2450  002F'                    u2621:	
  2451  002F' 2800'              	goto	l444
  2452  0030'                    u2620:	
  2453  0030'                    l2118:	
  2454  0030' 3000               	movlw	0
  2455  0031' 0087'              	movwf	___fleq@ff2+3
  2456  0032' 3000               	movlw	0
  2457  0033' 0086'              	movwf	___fleq@ff2+2
  2458  0034' 3000               	movlw	0
  2459  0035' 0085'              	movwf	___fleq@ff2+1
  2460  0036' 3000               	movlw	0
  2461  0037' 0084'              	movwf	___fleq@ff2
  2462  0038'                    l444:	
  2463  0038' 0807'              	movf	___fleq@ff2+3,w
  2464  0039' 0603'              	xorwf	___fleq@ff1+3,w
  2465  003A' 1D03               	skipz
  2466  003B' 2800'              	goto	u2635
  2467  003C' 0806'              	movf	___fleq@ff2+2,w
  2468  003D' 0602'              	xorwf	___fleq@ff1+2,w
  2469  003E' 1D03               	skipz
  2470  003F' 2800'              	goto	u2635
  2471  0040' 0805'              	movf	___fleq@ff2+1,w
  2472  0041' 0601'              	xorwf	___fleq@ff1+1,w
  2473  0042' 1D03               	skipz
  2474  0043' 2800'              	goto	u2635
  2475  0044' 0804'              	movf	___fleq@ff2,w
  2476  0045' 0600'              	xorwf	___fleq@ff1,w
  2477  0046'                    u2635:	
  2478  0046' 1903               	skipnz
  2479  0047' 2800'              	goto	u2631
  2480  0048' 2800'              	goto	u2630
  2481  0049'                    u2631:	
  2482  0049' 2800'              	goto	l2122
  2483  004A'                    u2630:	
  2484  004A'                    l2120:	
  2485  004A' 1003               	clrc
  2486  004B' 2800'              	goto	l445
  2487  004C'                    l2122:	
  2488  004C' 1403               	setc
  2489  004D'                    l445:	
  2490  004D' 0008               	return
  2491  004E'                    __end_of___fleq:	
  2492                           
  2493                           	psect	text6
  2494  0000'                    __ptext6:	
  2495 ;; *************** function _lcd_write_s *****************
  2496 ;; Defined at:
  2497 ;;		line 95 in file "./LCD_cabecera.h"
  2498 ;; Parameters:    Size  Location     Type
  2499 ;;  st              2    3[COMMON] PTR const unsigned char 
  2500 ;;		 -> STR_3(17), velo(5), STR_2(18), centi(3), 
  2501 ;;		 -> STR_1(18), 
  2502 ;; Auto vars:     Size  Location     Type
  2503 ;;		None
  2504 ;; Return value:  Size  Location     Type
  2505 ;;                  1    wreg      void 
  2506 ;; Registers used:
  2507 ;;		wreg, fsr0l, fsr0h, status,2, status,0, btemp+1, pclath, cstack
  2508 ;; Tracked objects:
  2509 ;;		On entry : 0/0
  2510 ;;		On exit  : 0/0
  2511 ;;		Unchanged: 0/0
  2512 ;; Data sizes:     COMMON   BANK0   BANK1   BANK3   BANK2
  2513 ;;      Params:         2       0       0       0       0
  2514 ;;      Locals:         0       0       0       0       0
  2515 ;;      Temps:          0       0       0       0       0
  2516 ;;      Totals:         2       0       0       0       0
  2517 ;;Total ram usage:        2 bytes
  2518 ;; Hardware stack levels used:    1
  2519 ;; Hardware stack levels required when called:    1
  2520 ;; This function calls:
  2521 ;;		_lcd_write_c
  2522 ;; This function is called by:
  2523 ;;		_main
  2524 ;; This function uses a non-reentrant model
  2525 ;;
  2526                           
  2527                           
  2528                           ;psect for function _lcd_write_s
  2529  0000'                    _lcd_write_s:	
  2530  0000'                    l2986:	
  2531                           ;incstack = 0
  2532                           ; Regs used in _lcd_write_s: [wreg-fsr0h+status,2+status,0+btemp+1+pclath+cstack]
  2533                           
  2534                           
  2535                           ;./LCD_cabecera.h: 97:     for(;*st!='\0';st++){
  2536  0000' 2800'              	goto	l2992
  2537  0001'                    l2988:	
  2538                           
  2539                           ;./LCD_cabecera.h: 98:         lcd_write_c(*st);
  2540  0001' 0804'              	movf	lcd_write_s@st+1,w
  2541  0002' 00FF               	movwf	btemp+1
  2542  0003' 0803'              	movf	lcd_write_s@st,w
  2543  0004' 0084               	movwf	4
  2544  0005' 120A' 118A' 2000' 120A' 118A' 	fcall	stringtab
  2545  000A' 120A' 118A' 2000' 120A' 118A' 	fcall	_lcd_write_c
  2546  000F'                    l2990:	
  2547                           
  2548                           ;./LCD_cabecera.h: 99:     }
  2549  000F' 3001               	movlw	1
  2550  0010' 0783'              	addwf	lcd_write_s@st,f
  2551  0011' 1803               	skipnc
  2552  0012' 0A84'              	incf	lcd_write_s@st+1,f
  2553  0013' 3000               	movlw	0
  2554  0014' 0784'              	addwf	lcd_write_s@st+1,f
  2555  0015'                    l2992:	
  2556  0015' 0804'              	movf	lcd_write_s@st+1,w
  2557  0016' 1283               	bcf	3,5	;RP0=0, select bank0
  2558  0017' 1303               	bcf	3,6	;RP1=0, select bank0
  2559  0018' 00FF               	movwf	btemp+1
  2560  0019' 0803'              	movf	lcd_write_s@st,w
  2561  001A' 0084               	movwf	4
  2562  001B' 120A' 118A' 2000' 120A' 118A' 	fcall	stringtab
  2563  0020' 3A00               	xorlw	0
  2564  0021' 1D03               	skipz
  2565  0022' 2800'              	goto	u4571
  2566  0023' 2800'              	goto	u4570
  2567  0024'                    u4571:	
  2568  0024' 2800'              	goto	l2988
  2569  0025'                    u4570:	
  2570  0025'                    l65:	
  2571  0025' 0008               	return
  2572  0026'                    __end_of_lcd_write_s:	
  2573                           
  2574                           	psect	text7
  2575  0000'                    __ptext7:	
  2576 ;; *************** function _lcd_write_c *****************
  2577 ;; Defined at:
  2578 ;;		line 85 in file "./LCD_cabecera.h"
  2579 ;; Parameters:    Size  Location     Type
  2580 ;;  ch              1    wreg     unsigned char 
  2581 ;; Auto vars:     Size  Location     Type
  2582 ;;  ch              1    2[COMMON] unsigned char 
  2583 ;; Return value:  Size  Location     Type
  2584 ;;                  1    wreg      void 
  2585 ;; Registers used:
  2586 ;;		wreg, status,2, status,0
  2587 ;; Tracked objects:
  2588 ;;		On entry : 0/0
  2589 ;;		On exit  : 0/0
  2590 ;;		Unchanged: 0/0
  2591 ;; Data sizes:     COMMON   BANK0   BANK1   BANK3   BANK2
  2592 ;;      Params:         0       0       0       0       0
  2593 ;;      Locals:         1       0       0       0       0
  2594 ;;      Temps:          2       0       0       0       0
  2595 ;;      Totals:         3       0       0       0       0
  2596 ;;Total ram usage:        3 bytes
  2597 ;; Hardware stack levels used:    1
  2598 ;; This function calls:
  2599 ;;		Nothing
  2600 ;; This function is called by:
  2601 ;;		_lcd_write_s
  2602 ;; This function uses a non-reentrant model
  2603 ;;
  2604                           
  2605                           
  2606                           ;psect for function _lcd_write_c
  2607  0000'                    _lcd_write_c:	
  2608                           
  2609                           ;incstack = 0
  2610                           ; Regs used in _lcd_write_c: [wreg+status,2+status,0]
  2611                           ;lcd_write_c@ch stored from wreg
  2612  0000' 0082'              	movwf	lcd_write_c@ch
  2613  0001'                    l2802:	
  2614                           
  2615                           ;./LCD_cabecera.h: 87:     RD2=1;
  2616  0001' 1283               	bcf	3,5	;RP0=0, select bank0
  2617  0002' 1303               	bcf	3,6	;RP1=0, select bank0
  2618  0003' 1508               	bsf	8,2	;volatile
  2619  0004'                    l2804:	
  2620                           
  2621                           ;./LCD_cabecera.h: 88:     _delay((unsigned long)((1)*(8000000/4000)));
  2622  0004' 3003               	movlw	3
  2623  0005' 0081'              	movwf	??_lcd_write_c+1
  2624  0006' 3097               	movlw	151
  2625  0007' 0080'              	movwf	??_lcd_write_c
  2626  0008'                    u5237:	
  2627  0008' 0B80'              	decfsz	??_lcd_write_c,f
  2628  0009' 2800'              	goto	u5237
  2629  000A' 0B81'              	decfsz	??_lcd_write_c+1,f
  2630  000B' 2800'              	goto	u5237
  2631  000C' 2800'              	nop2
  2632  000D'                    l2806:	
  2633                           
  2634                           ;./LCD_cabecera.h: 89:     PORTD=(PORTD&0X0F)|(ch&0XF0);
  2635  000D' 30F0               	movlw	240
  2636  000E' 0502'              	andwf	lcd_write_c@ch,w
  2637  000F' 0080'              	movwf	??_lcd_write_c
  2638  0010' 1283               	bcf	3,5	;RP0=0, select bank0
  2639  0011' 1303               	bcf	3,6	;RP1=0, select bank0
  2640  0012' 0808               	movf	8,w	;volatile
  2641  0013' 390F               	andlw	15
  2642  0014' 0400'              	iorwf	??_lcd_write_c,w
  2643  0015' 0088               	movwf	8	;volatile
  2644  0016'                    l2808:	
  2645                           
  2646                           ;./LCD_cabecera.h: 90:     ((RD3=1),(RD3=0));
  2647  0016' 1588               	bsf	8,3	;volatile
  2648  0017'                    l2810:	
  2649  0017' 1188               	bcf	8,3	;volatile
  2650  0018'                    l2812:	
  2651                           
  2652                           ;./LCD_cabecera.h: 91:     PORTD=(PORTD&0X0F)|((ch<<4)&0XF0);
  2653  0018' 0802'              	movf	lcd_write_c@ch,w
  2654  0019' 0080'              	movwf	??_lcd_write_c
  2655  001A' 3004               	movlw	4
  2656  001B'                    u4255:	
  2657  001B' 1003               	clrc
  2658  001C' 0D80'              	rlf	??_lcd_write_c,f
  2659  001D' 3EFF               	addlw	-1
  2660  001E' 1D03               	skipz
  2661  001F' 2800'              	goto	u4255
  2662  0020' 30F0               	movlw	240
  2663  0021' 0500'              	andwf	??_lcd_write_c,w
  2664  0022' 0081'              	movwf	??_lcd_write_c+1
  2665  0023' 0808               	movf	8,w	;volatile
  2666  0024' 390F               	andlw	15
  2667  0025' 0401'              	iorwf	??_lcd_write_c+1,w
  2668  0026' 0088               	movwf	8	;volatile
  2669  0027'                    l2814:	
  2670                           
  2671                           ;./LCD_cabecera.h: 92:     ((RD3=1),(RD3=0));
  2672  0027' 1588               	bsf	8,3	;volatile
  2673  0028'                    l2816:	
  2674  0028' 1188               	bcf	8,3	;volatile
  2675  0029'                    l59:	
  2676  0029' 0008               	return
  2677  002A'                    __end_of_lcd_write_c:	
  2678                           
  2679                           	psect	text8
  2680  0000'                    __ptext8:	
  2681 ;; *************** function _lcd_pos *****************
  2682 ;; Defined at:
  2683 ;;		line 102 in file "./LCD_cabecera.h"
  2684 ;; Parameters:    Size  Location     Type
  2685 ;;  fila            2    4[COMMON] int 
  2686 ;;  columna         2    6[COMMON] int 
  2687 ;; Auto vars:     Size  Location     Type
  2688 ;;		None
  2689 ;; Return value:  Size  Location     Type
  2690 ;;                  1    wreg      void 
  2691 ;; Registers used:
  2692 ;;		wreg, status,2, status,0, pclath, cstack
  2693 ;; Tracked objects:
  2694 ;;		On entry : 0/0
  2695 ;;		On exit  : 0/0
  2696 ;;		Unchanged: 0/0
  2697 ;; Data sizes:     COMMON   BANK0   BANK1   BANK3   BANK2
  2698 ;;      Params:         4       0       0       0       0
  2699 ;;      Locals:         0       0       0       0       0
  2700 ;;      Temps:          0       0       0       0       0
  2701 ;;      Totals:         4       0       0       0       0
  2702 ;;Total ram usage:        4 bytes
  2703 ;; Hardware stack levels used:    1
  2704 ;; Hardware stack levels required when called:    1
  2705 ;; This function calls:
  2706 ;;		_lcd_cmd
  2707 ;; This function is called by:
  2708 ;;		_main
  2709 ;; This function uses a non-reentrant model
  2710 ;;
  2711                           
  2712                           
  2713                           ;psect for function _lcd_pos
  2714  0000'                    _lcd_pos:	
  2715  0000'                    l2994:	
  2716                           ;incstack = 0
  2717                           ; Regs used in _lcd_pos: [wreg+status,2+status,0+pclath+cstack]
  2718                           
  2719                           
  2720                           ;./LCD_cabecera.h: 104:     if(fila==0){
  2721  0000' 0804'              	movf	lcd_pos@fila,w
  2722  0001' 0405'              	iorwf	lcd_pos@fila+1,w
  2723  0002' 1D03               	btfss	3,2
  2724  0003' 2800'              	goto	u4581
  2725  0004' 2800'              	goto	u4580
  2726  0005'                    u4581:	
  2727  0005' 2800'              	goto	l2998
  2728  0006'                    u4580:	
  2729  0006'                    l2996:	
  2730                           
  2731                           ;./LCD_cabecera.h: 105:         lcd_cmd(columna+0B10000000);
  2732  0006' 0806'              	movf	lcd_pos@columna,w
  2733  0007' 3E80               	addlw	128
  2734  0008' 0080'              	movwf	lcd_cmd@cmd
  2735  0009' 0807'              	movf	lcd_pos@columna+1,w
  2736  000A' 1803               	skipnc
  2737  000B' 3E01               	addlw	1
  2738  000C' 3E00               	addlw	0
  2739  000D' 0081'              	movwf	lcd_cmd@cmd+1
  2740  000E' 120A' 118A' 2000' 120A' 118A' 	fcall	_lcd_cmd
  2741                           
  2742                           ;./LCD_cabecera.h: 106:     }
  2743  0013' 2800'              	goto	l72
  2744  0014'                    l2998:	
  2745  0014' 0304'              	decf	lcd_pos@fila,w
  2746  0015' 0405'              	iorwf	lcd_pos@fila+1,w
  2747  0016' 1D03               	btfss	3,2
  2748  0017' 2800'              	goto	u4591
  2749  0018' 2800'              	goto	u4590
  2750  0019'                    u4591:	
  2751  0019' 2800'              	goto	l72
  2752  001A'                    u4590:	
  2753  001A'                    l3000:	
  2754                           
  2755                           ;./LCD_cabecera.h: 108:         lcd_cmd(columna+0B11000000);
  2756  001A' 0806'              	movf	lcd_pos@columna,w
  2757  001B' 3EC0               	addlw	192
  2758  001C' 0080'              	movwf	lcd_cmd@cmd
  2759  001D' 0807'              	movf	lcd_pos@columna+1,w
  2760  001E' 1803               	skipnc
  2761  001F' 3E01               	addlw	1
  2762  0020' 3E00               	addlw	0
  2763  0021' 0081'              	movwf	lcd_cmd@cmd+1
  2764  0022' 120A' 118A' 2000' 120A' 118A' 	fcall	_lcd_cmd
  2765  0027'                    l72:	
  2766                           ;./LCD_cabecera.h: 109:     }
  2767                           
  2768  0027' 0008               	return
  2769  0028'                    __end_of_lcd_pos:	
  2770                           
  2771                           	psect	text9
  2772  0000'                    __ptext9:	
  2773 ;; *************** function _lcd_ini *****************
  2774 ;; Defined at:
  2775 ;;		line 58 in file "./LCD_cabecera.h"
  2776 ;; Parameters:    Size  Location     Type
  2777 ;;		None
  2778 ;; Auto vars:     Size  Location     Type
  2779 ;;		None
  2780 ;; Return value:  Size  Location     Type
  2781 ;;                  1    wreg      void 
  2782 ;; Registers used:
  2783 ;;		wreg, status,2, status,0, pclath, cstack
  2784 ;; Tracked objects:
  2785 ;;		On entry : 0/0
  2786 ;;		On exit  : 0/0
  2787 ;;		Unchanged: 0/0
  2788 ;; Data sizes:     COMMON   BANK0   BANK1   BANK3   BANK2
  2789 ;;      Params:         0       0       0       0       0
  2790 ;;      Locals:         0       0       0       0       0
  2791 ;;      Temps:          2       0       0       0       0
  2792 ;;      Totals:         2       0       0       0       0
  2793 ;;Total ram usage:        2 bytes
  2794 ;; Hardware stack levels used:    1
  2795 ;; Hardware stack levels required when called:    1
  2796 ;; This function calls:
  2797 ;;		_lcd_cmd
  2798 ;; This function is called by:
  2799 ;;		_main
  2800 ;; This function uses a non-reentrant model
  2801 ;;
  2802                           
  2803                           
  2804                           ;psect for function _lcd_ini
  2805  0000'                    _lcd_ini:	
  2806  0000'                    l2968:	
  2807                           ;incstack = 0
  2808                           ; Regs used in _lcd_ini: [wreg+status,2+status,0+pclath+cstack]
  2809                           
  2810                           
  2811                           ;./LCD_cabecera.h: 60:     _delay((unsigned long)((20)*(8000000/4000)));
  2812  0000' 3034               	movlw	52
  2813  0001' 0085'              	movwf	??_lcd_ini+1
  2814  0002' 30F1               	movlw	241
  2815  0003' 0084'              	movwf	??_lcd_ini
  2816  0004'                    u5247:	
  2817  0004' 0B84'              	decfsz	??_lcd_ini,f
  2818  0005' 2800'              	goto	u5247
  2819  0006' 0B85'              	decfsz	??_lcd_ini+1,f
  2820  0007' 2800'              	goto	u5247
  2821  0008' 2800'              	nop2
  2822  0009'                    l2970:	
  2823                           
  2824                           ;./LCD_cabecera.h: 61:     lcd_cmd(0B00110000);
  2825  0009' 3030               	movlw	48
  2826  000A' 0080'              	movwf	lcd_cmd@cmd
  2827  000B' 3000               	movlw	0
  2828  000C' 0081'              	movwf	lcd_cmd@cmd+1
  2829  000D' 120A' 118A' 2000' 120A' 118A' 	fcall	_lcd_cmd
  2830  0012'                    l2972:	
  2831                           
  2832                           ;./LCD_cabecera.h: 62:     _delay((unsigned long)((5)*(8000000/4000)));
  2833  0012' 300D               	movlw	13
  2834  0013' 0085'              	movwf	??_lcd_ini+1
  2835  0014' 30FB               	movlw	251
  2836  0015' 0084'              	movwf	??_lcd_ini
  2837  0016'                    u5257:	
  2838  0016' 0B84'              	decfsz	??_lcd_ini,f
  2839  0017' 2800'              	goto	u5257
  2840  0018' 0B85'              	decfsz	??_lcd_ini+1,f
  2841  0019' 2800'              	goto	u5257
  2842  001A' 2800'              	nop2
  2843                           
  2844                           ;./LCD_cabecera.h: 63:     lcd_cmd(0B00110000);
  2845  001B' 3030               	movlw	48
  2846  001C' 0080'              	movwf	lcd_cmd@cmd
  2847  001D' 3000               	movlw	0
  2848  001E' 0081'              	movwf	lcd_cmd@cmd+1
  2849  001F' 120A' 118A' 2000' 120A' 118A' 	fcall	_lcd_cmd
  2850  0024'                    l2974:	
  2851                           
  2852                           ;./LCD_cabecera.h: 64:     _delay((unsigned long)((1)*(8000000/4000)));
  2853  0024' 3003               	movlw	3
  2854  0025' 0085'              	movwf	??_lcd_ini+1
  2855  0026' 3097               	movlw	151
  2856  0027' 0084'              	movwf	??_lcd_ini
  2857  0028'                    u5267:	
  2858  0028' 0B84'              	decfsz	??_lcd_ini,f
  2859  0029' 2800'              	goto	u5267
  2860  002A' 0B85'              	decfsz	??_lcd_ini+1,f
  2861  002B' 2800'              	goto	u5267
  2862  002C' 2800'              	nop2
  2863  002D'                    l2976:	
  2864                           
  2865                           ;./LCD_cabecera.h: 65:     lcd_cmd(0B00110000);
  2866  002D' 3030               	movlw	48
  2867  002E' 0080'              	movwf	lcd_cmd@cmd
  2868  002F' 3000               	movlw	0
  2869  0030' 0081'              	movwf	lcd_cmd@cmd+1
  2870  0031' 120A' 118A' 2000' 120A' 118A' 	fcall	_lcd_cmd
  2871  0036'                    l2978:	
  2872                           
  2873                           ;./LCD_cabecera.h: 68:     lcd_cmd(0B00101000);
  2874  0036' 3028               	movlw	40
  2875  0037' 0080'              	movwf	lcd_cmd@cmd
  2876  0038' 3000               	movlw	0
  2877  0039' 0081'              	movwf	lcd_cmd@cmd+1
  2878  003A' 120A' 118A' 2000' 120A' 118A' 	fcall	_lcd_cmd
  2879  003F'                    l2980:	
  2880                           
  2881                           ;./LCD_cabecera.h: 69:     lcd_cmd(0B00001100);
  2882  003F' 300C               	movlw	12
  2883  0040' 0080'              	movwf	lcd_cmd@cmd
  2884  0041' 3000               	movlw	0
  2885  0042' 0081'              	movwf	lcd_cmd@cmd+1
  2886  0043' 120A' 118A' 2000' 120A' 118A' 	fcall	_lcd_cmd
  2887  0048'                    l2982:	
  2888                           
  2889                           ;./LCD_cabecera.h: 70:     lcd_cmd(0B00000001);
  2890  0048' 3001               	movlw	1
  2891  0049' 0080'              	movwf	lcd_cmd@cmd
  2892  004A' 3000               	movlw	0
  2893  004B' 0081'              	movwf	lcd_cmd@cmd+1
  2894  004C' 120A' 118A' 2000' 120A' 118A' 	fcall	_lcd_cmd
  2895  0051'                    l2984:	
  2896                           
  2897                           ;./LCD_cabecera.h: 72:     lcd_cmd(0B00000100);
  2898  0051' 3004               	movlw	4
  2899  0052' 0080'              	movwf	lcd_cmd@cmd
  2900  0053' 3000               	movlw	0
  2901  0054' 0081'              	movwf	lcd_cmd@cmd+1
  2902  0055' 120A' 118A' 2000' 120A' 118A' 	fcall	_lcd_cmd
  2903  005A'                    l53:	
  2904  005A' 0008               	return
  2905  005B'                    __end_of_lcd_ini:	
  2906                           
  2907                           	psect	text10
  2908  0000'                    __ptext10:	
  2909 ;; *************** function _lcd_cmd *****************
  2910 ;; Defined at:
  2911 ;;		line 75 in file "./LCD_cabecera.h"
  2912 ;; Parameters:    Size  Location     Type
  2913 ;;  cmd             2    0[COMMON] int 
  2914 ;; Auto vars:     Size  Location     Type
  2915 ;;		None
  2916 ;; Return value:  Size  Location     Type
  2917 ;;                  1    wreg      void 
  2918 ;; Registers used:
  2919 ;;		wreg, status,2, status,0
  2920 ;; Tracked objects:
  2921 ;;		On entry : 0/0
  2922 ;;		On exit  : 0/0
  2923 ;;		Unchanged: 0/0
  2924 ;; Data sizes:     COMMON   BANK0   BANK1   BANK3   BANK2
  2925 ;;      Params:         2       0       0       0       0
  2926 ;;      Locals:         0       0       0       0       0
  2927 ;;      Temps:          2       0       0       0       0
  2928 ;;      Totals:         4       0       0       0       0
  2929 ;;Total ram usage:        4 bytes
  2930 ;; Hardware stack levels used:    1
  2931 ;; This function calls:
  2932 ;;		Nothing
  2933 ;; This function is called by:
  2934 ;;		_lcd_ini
  2935 ;;		_lcd_pos
  2936 ;;		_main
  2937 ;; This function uses a non-reentrant model
  2938 ;;
  2939                           
  2940                           
  2941                           ;psect for function _lcd_cmd
  2942  0000'                    _lcd_cmd:	
  2943  0000'                    l2786:	
  2944                           ;incstack = 0
  2945                           ; Regs used in _lcd_cmd: [wreg+status,2+status,0]
  2946                           
  2947                           
  2948                           ;./LCD_cabecera.h: 77:     RD2=0;
  2949  0000' 1283               	bcf	3,5	;RP0=0, select bank0
  2950  0001' 1303               	bcf	3,6	;RP1=0, select bank0
  2951  0002' 1108               	bcf	8,2	;volatile
  2952  0003'                    l2788:	
  2953                           
  2954                           ;./LCD_cabecera.h: 78:     _delay((unsigned long)((1)*(8000000/4000)));
  2955  0003' 3003               	movlw	3
  2956  0004' 0083'              	movwf	??_lcd_cmd+1
  2957  0005' 3097               	movlw	151
  2958  0006' 0082'              	movwf	??_lcd_cmd
  2959  0007'                    u5277:	
  2960  0007' 0B82'              	decfsz	??_lcd_cmd,f
  2961  0008' 2800'              	goto	u5277
  2962  0009' 0B83'              	decfsz	??_lcd_cmd+1,f
  2963  000A' 2800'              	goto	u5277
  2964  000B' 2800'              	nop2
  2965  000C'                    l2790:	
  2966                           
  2967                           ;./LCD_cabecera.h: 79:     PORTD=(PORTD&0X0F)|(cmd&0XF0);
  2968  000C' 30F0               	movlw	240
  2969  000D' 0500'              	andwf	lcd_cmd@cmd,w
  2970  000E' 0082'              	movwf	??_lcd_cmd
  2971  000F' 1283               	bcf	3,5	;RP0=0, select bank0
  2972  0010' 1303               	bcf	3,6	;RP1=0, select bank0
  2973  0011' 0808               	movf	8,w	;volatile
  2974  0012' 390F               	andlw	15
  2975  0013' 0402'              	iorwf	??_lcd_cmd,w
  2976  0014' 0088               	movwf	8	;volatile
  2977  0015'                    l2792:	
  2978                           
  2979                           ;./LCD_cabecera.h: 80:     ((RD3=1),(RD3=0));
  2980  0015' 1588               	bsf	8,3	;volatile
  2981  0016'                    l2794:	
  2982  0016' 1188               	bcf	8,3	;volatile
  2983  0017'                    l2796:	
  2984                           
  2985                           ;./LCD_cabecera.h: 81:     PORTD=(PORTD&0X0F)|((cmd<<4)&0XF0);
  2986  0017' 0800'              	movf	lcd_cmd@cmd,w
  2987  0018' 0082'              	movwf	??_lcd_cmd
  2988  0019' 3004               	movlw	4
  2989  001A'                    u4245:	
  2990  001A' 1003               	clrc
  2991  001B' 0D82'              	rlf	??_lcd_cmd,f
  2992  001C' 3EFF               	addlw	-1
  2993  001D' 1D03               	skipz
  2994  001E' 2800'              	goto	u4245
  2995  001F' 30F0               	movlw	240
  2996  0020' 0502'              	andwf	??_lcd_cmd,w
  2997  0021' 0083'              	movwf	??_lcd_cmd+1
  2998  0022' 0808               	movf	8,w	;volatile
  2999  0023' 390F               	andlw	15
  3000  0024' 0403'              	iorwf	??_lcd_cmd+1,w
  3001  0025' 0088               	movwf	8	;volatile
  3002  0026'                    l2798:	
  3003                           
  3004                           ;./LCD_cabecera.h: 82:     ((RD3=1),(RD3=0));
  3005  0026' 1588               	bsf	8,3	;volatile
  3006  0027'                    l2800:	
  3007  0027' 1188               	bcf	8,3	;volatile
  3008  0028'                    l56:	
  3009  0028' 0008               	return
  3010  0029'                    __end_of_lcd_cmd:	
  3011                           
  3012                           	psect	text11
  3013  0000'                    __ptext11:	
  3014 ;; *************** function _itoa *****************
  3015 ;; Defined at:
  3016 ;;		line 4 in file "C:\Program Files (x86)\Microchip\xc8\v2.10\pic\sources\c90\common\itoa.c"
  3017 ;; Parameters:    Size  Location     Type
  3018 ;;  buf             1    wreg     PTR unsigned char 
  3019 ;;		 -> velo(5), centi(3), 
  3020 ;;  val             2    4[BANK0 ] int 
  3021 ;;  base            2    6[BANK0 ] int 
  3022 ;; Auto vars:     Size  Location     Type
  3023 ;;  buf             1    9[BANK0 ] PTR unsigned char 
  3024 ;;		 -> velo(5), centi(3), 
  3025 ;;  cp              1    0        PTR unsigned char 
  3026 ;;		 -> velo(5), centi(3), 
  3027 ;; Return value:  Size  Location     Type
  3028 ;;                  1    wreg      PTR unsigned char 
  3029 ;; Registers used:
  3030 ;;		wreg, fsr0l, fsr0h, status,2, status,0, pclath, cstack
  3031 ;; Tracked objects:
  3032 ;;		On entry : 0/0
  3033 ;;		On exit  : 0/0
  3034 ;;		Unchanged: 0/0
  3035 ;; Data sizes:     COMMON   BANK0   BANK1   BANK3   BANK2
  3036 ;;      Params:         0       4       0       0       0
  3037 ;;      Locals:         0       2       0       0       0
  3038 ;;      Temps:          1       0       0       0       0
  3039 ;;      Totals:         1       6       0       0       0
  3040 ;;Total ram usage:        7 bytes
  3041 ;; Hardware stack levels used:    1
  3042 ;; Hardware stack levels required when called:    2
  3043 ;; This function calls:
  3044 ;;		_utoa
  3045 ;; This function is called by:
  3046 ;;		_main
  3047 ;; This function uses a non-reentrant model
  3048 ;;
  3049                           
  3050                           
  3051                           ;psect for function _itoa
  3052  0000'                    _itoa:	
  3053                           
  3054                           ;incstack = 0
  3055                           ; Regs used in _itoa: [wreg-fsr0h+status,2+status,0+pclath+cstack]
  3056                           ;itoa@buf stored from wreg
  3057  0000' 1283               	bcf	3,5	;RP0=0, select bank0
  3058  0001' 1303               	bcf	3,6	;RP1=0, select bank0
  3059  0002' 0089'              	movwf	itoa@buf
  3060  0003'                    l3292:	
  3061  0003'                    l3294:	
  3062  0003' 1F85'              	btfss	itoa@val+1,7
  3063  0004' 2800'              	goto	u5201
  3064  0005' 2800'              	goto	u5200
  3065  0006'                    u5201:	
  3066  0006' 2800'              	goto	l3302
  3067  0007'                    u5200:	
  3068  0007'                    l3296:	
  3069  0007' 302D               	movlw	45
  3070  0008' 008D'              	movwf	??_itoa
  3071  0009' 0809'              	movf	itoa@buf,w
  3072  000A' 0084               	movwf	4
  3073  000B' 080D'              	movf	??_itoa,w
  3074  000C' 1783               	bsf	3,7	;select IRP bank2
  3075  000D' 0080               	movwf	0
  3076  000E'                    l3298:	
  3077  000E' 3001               	movlw	1
  3078  000F' 008D'              	movwf	??_itoa
  3079  0010' 080D'              	movf	??_itoa,w
  3080  0011' 0789'              	addwf	itoa@buf,f
  3081  0012'                    l3300:	
  3082  0012' 0984'              	comf	itoa@val,f
  3083  0013' 0985'              	comf	itoa@val+1,f
  3084  0014' 0A84'              	incf	itoa@val,f
  3085  0015' 1903               	skipnz
  3086  0016' 0A85'              	incf	itoa@val+1,f
  3087  0017'                    l3302:	
  3088  0017' 0805'              	movf	itoa@val+1,w
  3089  0018' 0089'              	movwf	utoa@val+1
  3090  0019' 0804'              	movf	itoa@val,w
  3091  001A' 0088'              	movwf	utoa@val
  3092  001B' 0807'              	movf	itoa@base+1,w
  3093  001C' 008B'              	movwf	utoa@base+1
  3094  001D' 0806'              	movf	itoa@base,w
  3095  001E' 008A'              	movwf	utoa@base
  3096  001F' 0809'              	movf	itoa@buf,w
  3097  0020' 120A' 118A' 2000' 120A' 118A' 	fcall	_utoa
  3098  0025'                    l726:	
  3099  0025' 0008               	return
  3100  0026'                    __end_of_itoa:	
  3101                           
  3102                           	psect	text12
  3103  0000'                    __ptext12:	
  3104 ;; *************** function _utoa *****************
  3105 ;; Defined at:
  3106 ;;		line 17 in file "C:\Program Files (x86)\Microchip\xc8\v2.10\pic\sources\c90\common\itoa.c"
  3107 ;; Parameters:    Size  Location     Type
  3108 ;;  buf             1    wreg     PTR unsigned char 
  3109 ;;		 -> velo(5), centi(3), 
  3110 ;;  val             2    8[COMMON] unsigned int 
  3111 ;;  base            2   10[COMMON] int 
  3112 ;; Auto vars:     Size  Location     Type
  3113 ;;  buf             1    3[BANK0 ] PTR unsigned char 
  3114 ;;		 -> velo(5), centi(3), 
  3115 ;;  v               2    0[BANK0 ] unsigned int 
  3116 ;;  c               1    2[BANK0 ] unsigned char 
  3117 ;; Return value:  Size  Location     Type
  3118 ;;                  1    wreg      PTR unsigned char 
  3119 ;; Registers used:
  3120 ;;		wreg, fsr0l, fsr0h, status,2, status,0, pclath, cstack
  3121 ;; Tracked objects:
  3122 ;;		On entry : 0/0
  3123 ;;		On exit  : 0/0
  3124 ;;		Unchanged: 0/0
  3125 ;; Data sizes:     COMMON   BANK0   BANK1   BANK3   BANK2
  3126 ;;      Params:         4       0       0       0       0
  3127 ;;      Locals:         0       4       0       0       0
  3128 ;;      Temps:          1       0       0       0       0
  3129 ;;      Totals:         5       4       0       0       0
  3130 ;;Total ram usage:        9 bytes
  3131 ;; Hardware stack levels used:    1
  3132 ;; Hardware stack levels required when called:    1
  3133 ;; This function calls:
  3134 ;;		___lwdiv
  3135 ;;		___lwmod
  3136 ;; This function is called by:
  3137 ;;		_itoa
  3138 ;; This function uses a non-reentrant model
  3139 ;;
  3140                           
  3141                           
  3142                           ;psect for function _utoa
  3143  0000'                    _utoa:	
  3144                           
  3145                           ;incstack = 0
  3146                           ; Regs used in _utoa: [wreg-fsr0h+status,2+status,0+pclath+cstack]
  3147                           ;utoa@buf stored from wreg
  3148  0000' 1283               	bcf	3,5	;RP0=0, select bank0
  3149  0001' 1303               	bcf	3,6	;RP1=0, select bank0
  3150  0002' 0083'              	movwf	utoa@buf
  3151  0003'                    l2920:	
  3152  0003' 0809'              	movf	utoa@val+1,w
  3153  0004' 0081'              	movwf	utoa@v+1
  3154  0005' 0808'              	movf	utoa@val,w
  3155  0006' 0080'              	movwf	utoa@v
  3156  0007'                    l2922:	
  3157  0007' 080B'              	movf	utoa@base+1,w
  3158  0008' 0081'              	movwf	___lwdiv@divisor+1
  3159  0009' 080A'              	movf	utoa@base,w
  3160  000A' 0080'              	movwf	___lwdiv@divisor
  3161  000B' 0801'              	movf	utoa@v+1,w
  3162  000C' 0083'              	movwf	___lwdiv@dividend+1
  3163  000D' 0800'              	movf	utoa@v,w
  3164  000E' 0082'              	movwf	___lwdiv@dividend
  3165  000F' 120A' 118A' 2000' 120A' 118A' 	fcall	___lwdiv
  3166  0014' 0801'              	movf	?___lwdiv+1,w
  3167  0015' 1283               	bcf	3,5	;RP0=0, select bank0
  3168  0016' 1303               	bcf	3,6	;RP1=0, select bank0
  3169  0017' 0081'              	movwf	utoa@v+1
  3170  0018' 0800'              	movf	?___lwdiv,w
  3171  0019' 0080'              	movwf	utoa@v
  3172  001A'                    l2924:	
  3173  001A' 3001               	movlw	1
  3174  001B' 008C'              	movwf	??_utoa
  3175  001C' 080C'              	movf	??_utoa,w
  3176  001D' 0783'              	addwf	utoa@buf,f
  3177  001E'                    l2926:	
  3178  001E' 0800'              	movf	utoa@v,w
  3179  001F' 0401'              	iorwf	utoa@v+1,w
  3180  0020' 1D03               	btfss	3,2
  3181  0021' 2800'              	goto	u4521
  3182  0022' 2800'              	goto	u4520
  3183  0023'                    u4521:	
  3184  0023' 2800'              	goto	l2922
  3185  0024'                    u4520:	
  3186  0024'                    l2928:	
  3187  0024' 0803'              	movf	utoa@buf,w
  3188  0025' 0084               	movwf	4
  3189  0026' 1783               	bsf	3,7	;select IRP bank2
  3190  0027' 0180               	clrf	0
  3191  0028'                    l2930:	
  3192  0028' 3001               	movlw	1
  3193  0029' 0283'              	subwf	utoa@buf,f
  3194  002A'                    l2932:	
  3195  002A' 080B'              	movf	utoa@base+1,w
  3196  002B' 0081'              	movwf	___lwmod@divisor+1
  3197  002C' 080A'              	movf	utoa@base,w
  3198  002D' 0080'              	movwf	___lwmod@divisor
  3199  002E' 0809'              	movf	utoa@val+1,w
  3200  002F' 0083'              	movwf	___lwmod@dividend+1
  3201  0030' 0808'              	movf	utoa@val,w
  3202  0031' 0082'              	movwf	___lwmod@dividend
  3203  0032' 120A' 118A' 2000' 120A' 118A' 	fcall	___lwmod
  3204  0037' 0800'              	movf	?___lwmod,w
  3205  0038' 008C'              	movwf	??_utoa
  3206  0039' 080C'              	movf	??_utoa,w
  3207  003A' 1283               	bcf	3,5	;RP0=0, select bank0
  3208  003B' 1303               	bcf	3,6	;RP1=0, select bank0
  3209  003C' 0082'              	movwf	utoa@c
  3210  003D'                    l2934:	
  3211  003D' 080B'              	movf	utoa@base+1,w
  3212  003E' 0081'              	movwf	___lwdiv@divisor+1
  3213  003F' 080A'              	movf	utoa@base,w
  3214  0040' 0080'              	movwf	___lwdiv@divisor
  3215  0041' 0809'              	movf	utoa@val+1,w
  3216  0042' 0083'              	movwf	___lwdiv@dividend+1
  3217  0043' 0808'              	movf	utoa@val,w
  3218  0044' 0082'              	movwf	___lwdiv@dividend
  3219  0045' 120A' 118A' 2000' 120A' 118A' 	fcall	___lwdiv
  3220  004A' 0801'              	movf	?___lwdiv+1,w
  3221  004B' 0089'              	movwf	utoa@val+1
  3222  004C' 0800'              	movf	?___lwdiv,w
  3223  004D' 0088'              	movwf	utoa@val
  3224  004E'                    l2936:	
  3225  004E' 300A               	movlw	10
  3226  004F' 1283               	bcf	3,5	;RP0=0, select bank0
  3227  0050' 1303               	bcf	3,6	;RP1=0, select bank0
  3228  0051' 0202'              	subwf	utoa@c,w
  3229  0052' 1C03               	skipc
  3230  0053' 2800'              	goto	u4531
  3231  0054' 2800'              	goto	u4530
  3232  0055'                    u4531:	
  3233  0055' 2800'              	goto	l732
  3234  0056'                    u4530:	
  3235  0056'                    l2938:	
  3236  0056' 3007               	movlw	7
  3237  0057' 008C'              	movwf	??_utoa
  3238  0058' 080C'              	movf	??_utoa,w
  3239  0059' 0782'              	addwf	utoa@c,f
  3240  005A'                    l732:	
  3241  005A' 3030               	movlw	48
  3242  005B' 008C'              	movwf	??_utoa
  3243  005C' 080C'              	movf	??_utoa,w
  3244  005D' 0782'              	addwf	utoa@c,f
  3245  005E'                    l2940:	
  3246  005E' 0802'              	movf	utoa@c,w
  3247  005F' 008C'              	movwf	??_utoa
  3248  0060' 0803'              	movf	utoa@buf,w
  3249  0061' 0084               	movwf	4
  3250  0062' 080C'              	movf	??_utoa,w
  3251  0063' 1783               	bsf	3,7	;select IRP bank2
  3252  0064' 0080               	movwf	0
  3253  0065'                    l2942:	
  3254  0065' 3001               	movlw	1
  3255  0066' 0283'              	subwf	utoa@buf,f
  3256  0067'                    l2944:	
  3257  0067' 0808'              	movf	utoa@val,w
  3258  0068' 0409'              	iorwf	utoa@val+1,w
  3259  0069' 1D03               	btfss	3,2
  3260  006A' 2800'              	goto	u4541
  3261  006B' 2800'              	goto	u4540
  3262  006C'                    u4541:	
  3263  006C' 2800'              	goto	l2932
  3264  006D'                    u4540:	
  3265  006D'                    l2946:	
  3266                           
  3267                           ;	Return value of _utoa is never used
  3268  006D' 3001               	movlw	1
  3269  006E' 008C'              	movwf	??_utoa
  3270  006F' 080C'              	movf	??_utoa,w
  3271  0070' 0783'              	addwf	utoa@buf,f
  3272  0071'                    l734:	
  3273  0071' 0008               	return
  3274  0072'                    __end_of_utoa:	
  3275                           
  3276                           	psect	text13
  3277  0000'                    __ptext13:	
  3278 ;; *************** function ___lwmod *****************
  3279 ;; Defined at:
  3280 ;;		line 5 in file "C:\Program Files (x86)\Microchip\xc8\v2.10\pic\sources\c90\common\lwmod.c"
  3281 ;; Parameters:    Size  Location     Type
  3282 ;;  divisor         2    0[COMMON] unsigned int 
  3283 ;;  dividend        2    2[COMMON] unsigned int 
  3284 ;; Auto vars:     Size  Location     Type
  3285 ;;  counter         1    5[COMMON] unsigned char 
  3286 ;; Return value:  Size  Location     Type
  3287 ;;                  2    0[COMMON] unsigned int 
  3288 ;; Registers used:
  3289 ;;		wreg, status,2, status,0
  3290 ;; Tracked objects:
  3291 ;;		On entry : 0/0
  3292 ;;		On exit  : 0/0
  3293 ;;		Unchanged: 0/0
  3294 ;; Data sizes:     COMMON   BANK0   BANK1   BANK3   BANK2
  3295 ;;      Params:         4       0       0       0       0
  3296 ;;      Locals:         1       0       0       0       0
  3297 ;;      Temps:          1       0       0       0       0
  3298 ;;      Totals:         6       0       0       0       0
  3299 ;;Total ram usage:        6 bytes
  3300 ;; Hardware stack levels used:    1
  3301 ;; This function calls:
  3302 ;;		Nothing
  3303 ;; This function is called by:
  3304 ;;		_utoa
  3305 ;; This function uses a non-reentrant model
  3306 ;;
  3307                           
  3308                           
  3309                           ;psect for function ___lwmod
  3310  0000'                    ___lwmod:	
  3311  0000'                    l2416:	
  3312                           ;incstack = 0
  3313                           ; Regs used in ___lwmod: [wreg+status,2+status,0]
  3314                           
  3315  0000' 0800'              	movf	___lwmod@divisor,w
  3316  0001' 0401'              	iorwf	___lwmod@divisor+1,w
  3317  0002' 1903               	btfsc	3,2
  3318  0003' 2800'              	goto	u3371
  3319  0004' 2800'              	goto	u3370
  3320  0005'                    u3371:	
  3321  0005' 2800'              	goto	l2434
  3322  0006'                    u3370:	
  3323  0006'                    l2418:	
  3324  0006' 0185'              	clrf	___lwmod@counter
  3325  0007' 0A85'              	incf	___lwmod@counter,f
  3326  0008' 2800'              	goto	l2424
  3327  0009'                    l2420:	
  3328  0009' 3001               	movlw	1
  3329  000A'                    u3385:	
  3330  000A' 1003               	clrc
  3331  000B' 0D80'              	rlf	___lwmod@divisor,f
  3332  000C' 0D81'              	rlf	___lwmod@divisor+1,f
  3333  000D' 3EFF               	addlw	-1
  3334  000E' 1D03               	skipz
  3335  000F' 2800'              	goto	u3385
  3336  0010'                    l2422:	
  3337  0010' 3001               	movlw	1
  3338  0011' 0084'              	movwf	??___lwmod
  3339  0012' 0804'              	movf	??___lwmod,w
  3340  0013' 0785'              	addwf	___lwmod@counter,f
  3341  0014'                    l2424:	
  3342  0014' 1F81'              	btfss	___lwmod@divisor+1,7
  3343  0015' 2800'              	goto	u3391
  3344  0016' 2800'              	goto	u3390
  3345  0017'                    u3391:	
  3346  0017' 2800'              	goto	l2420
  3347  0018'                    u3390:	
  3348  0018'                    l2426:	
  3349  0018' 0801'              	movf	___lwmod@divisor+1,w
  3350  0019' 0203'              	subwf	___lwmod@dividend+1,w
  3351  001A' 1D03               	skipz
  3352  001B' 2800'              	goto	u3405
  3353  001C' 0800'              	movf	___lwmod@divisor,w
  3354  001D' 0202'              	subwf	___lwmod@dividend,w
  3355  001E'                    u3405:	
  3356  001E' 1C03               	skipc
  3357  001F' 2800'              	goto	u3401
  3358  0020' 2800'              	goto	u3400
  3359  0021'                    u3401:	
  3360  0021' 2800'              	goto	l2430
  3361  0022'                    u3400:	
  3362  0022'                    l2428:	
  3363  0022' 0800'              	movf	___lwmod@divisor,w
  3364  0023' 0282'              	subwf	___lwmod@dividend,f
  3365  0024' 0801'              	movf	___lwmod@divisor+1,w
  3366  0025' 1C03               	skipc
  3367  0026' 0383'              	decf	___lwmod@dividend+1,f
  3368  0027' 0283'              	subwf	___lwmod@dividend+1,f
  3369  0028'                    l2430:	
  3370  0028' 3001               	movlw	1
  3371  0029'                    u3415:	
  3372  0029' 1003               	clrc
  3373  002A' 0C81'              	rrf	___lwmod@divisor+1,f
  3374  002B' 0C80'              	rrf	___lwmod@divisor,f
  3375  002C' 3EFF               	addlw	-1
  3376  002D' 1D03               	skipz
  3377  002E' 2800'              	goto	u3415
  3378  002F'                    l2432:	
  3379  002F' 3001               	movlw	1
  3380  0030' 0285'              	subwf	___lwmod@counter,f
  3381  0031' 1D03               	btfss	3,2
  3382  0032' 2800'              	goto	u3421
  3383  0033' 2800'              	goto	u3420
  3384  0034'                    u3421:	
  3385  0034' 2800'              	goto	l2426
  3386  0035'                    u3420:	
  3387  0035'                    l2434:	
  3388  0035' 0803'              	movf	___lwmod@dividend+1,w
  3389  0036' 0081'              	movwf	?___lwmod+1
  3390  0037' 0802'              	movf	___lwmod@dividend,w
  3391  0038' 0080'              	movwf	?___lwmod
  3392  0039'                    l556:	
  3393  0039' 0008               	return
  3394  003A'                    __end_of___lwmod:	
  3395                           
  3396                           	psect	text14
  3397  0000'                    __ptext14:	
  3398 ;; *************** function ___lwdiv *****************
  3399 ;; Defined at:
  3400 ;;		line 5 in file "C:\Program Files (x86)\Microchip\xc8\v2.10\pic\sources\c90\common\lwdiv.c"
  3401 ;; Parameters:    Size  Location     Type
  3402 ;;  divisor         2    0[COMMON] unsigned int 
  3403 ;;  dividend        2    2[COMMON] unsigned int 
  3404 ;; Auto vars:     Size  Location     Type
  3405 ;;  quotient        2    5[COMMON] unsigned int 
  3406 ;;  counter         1    7[COMMON] unsigned char 
  3407 ;; Return value:  Size  Location     Type
  3408 ;;                  2    0[COMMON] unsigned int 
  3409 ;; Registers used:
  3410 ;;		wreg, status,2, status,0
  3411 ;; Tracked objects:
  3412 ;;		On entry : 0/0
  3413 ;;		On exit  : 0/0
  3414 ;;		Unchanged: 0/0
  3415 ;; Data sizes:     COMMON   BANK0   BANK1   BANK3   BANK2
  3416 ;;      Params:         4       0       0       0       0
  3417 ;;      Locals:         3       0       0       0       0
  3418 ;;      Temps:          1       0       0       0       0
  3419 ;;      Totals:         8       0       0       0       0
  3420 ;;Total ram usage:        8 bytes
  3421 ;; Hardware stack levels used:    1
  3422 ;; This function calls:
  3423 ;;		Nothing
  3424 ;; This function is called by:
  3425 ;;		_utoa
  3426 ;; This function uses a non-reentrant model
  3427 ;;
  3428                           
  3429                           
  3430                           ;psect for function ___lwdiv
  3431  0000'                    ___lwdiv:	
  3432  0000'                    l2390:	
  3433                           ;incstack = 0
  3434                           ; Regs used in ___lwdiv: [wreg+status,2+status,0]
  3435                           
  3436  0000' 0185'              	clrf	___lwdiv@quotient
  3437  0001' 0186'              	clrf	___lwdiv@quotient+1
  3438  0002'                    l2392:	
  3439  0002' 0800'              	movf	___lwdiv@divisor,w
  3440  0003' 0401'              	iorwf	___lwdiv@divisor+1,w
  3441  0004' 1903               	btfsc	3,2
  3442  0005' 2800'              	goto	u3301
  3443  0006' 2800'              	goto	u3300
  3444  0007'                    u3301:	
  3445  0007' 2800'              	goto	l2412
  3446  0008'                    u3300:	
  3447  0008'                    l2394:	
  3448  0008' 0187'              	clrf	___lwdiv@counter
  3449  0009' 0A87'              	incf	___lwdiv@counter,f
  3450  000A' 2800'              	goto	l2400
  3451  000B'                    l2396:	
  3452  000B' 3001               	movlw	1
  3453  000C'                    u3315:	
  3454  000C' 1003               	clrc
  3455  000D' 0D80'              	rlf	___lwdiv@divisor,f
  3456  000E' 0D81'              	rlf	___lwdiv@divisor+1,f
  3457  000F' 3EFF               	addlw	-1
  3458  0010' 1D03               	skipz
  3459  0011' 2800'              	goto	u3315
  3460  0012'                    l2398:	
  3461  0012' 3001               	movlw	1
  3462  0013' 0084'              	movwf	??___lwdiv
  3463  0014' 0804'              	movf	??___lwdiv,w
  3464  0015' 0787'              	addwf	___lwdiv@counter,f
  3465  0016'                    l2400:	
  3466  0016' 1F81'              	btfss	___lwdiv@divisor+1,7
  3467  0017' 2800'              	goto	u3321
  3468  0018' 2800'              	goto	u3320
  3469  0019'                    u3321:	
  3470  0019' 2800'              	goto	l2396
  3471  001A'                    u3320:	
  3472  001A'                    l2402:	
  3473  001A' 3001               	movlw	1
  3474  001B'                    u3335:	
  3475  001B' 1003               	clrc
  3476  001C' 0D85'              	rlf	___lwdiv@quotient,f
  3477  001D' 0D86'              	rlf	___lwdiv@quotient+1,f
  3478  001E' 3EFF               	addlw	-1
  3479  001F' 1D03               	skipz
  3480  0020' 2800'              	goto	u3335
  3481  0021' 0801'              	movf	___lwdiv@divisor+1,w
  3482  0022' 0203'              	subwf	___lwdiv@dividend+1,w
  3483  0023' 1D03               	skipz
  3484  0024' 2800'              	goto	u3345
  3485  0025' 0800'              	movf	___lwdiv@divisor,w
  3486  0026' 0202'              	subwf	___lwdiv@dividend,w
  3487  0027'                    u3345:	
  3488  0027' 1C03               	skipc
  3489  0028' 2800'              	goto	u3341
  3490  0029' 2800'              	goto	u3340
  3491  002A'                    u3341:	
  3492  002A' 2800'              	goto	l2408
  3493  002B'                    u3340:	
  3494  002B'                    l2404:	
  3495  002B' 0800'              	movf	___lwdiv@divisor,w
  3496  002C' 0282'              	subwf	___lwdiv@dividend,f
  3497  002D' 0801'              	movf	___lwdiv@divisor+1,w
  3498  002E' 1C03               	skipc
  3499  002F' 0383'              	decf	___lwdiv@dividend+1,f
  3500  0030' 0283'              	subwf	___lwdiv@dividend+1,f
  3501  0031'                    l2406:	
  3502  0031' 1405'              	bsf	___lwdiv@quotient,0
  3503  0032'                    l2408:	
  3504  0032' 3001               	movlw	1
  3505  0033'                    u3355:	
  3506  0033' 1003               	clrc
  3507  0034' 0C81'              	rrf	___lwdiv@divisor+1,f
  3508  0035' 0C80'              	rrf	___lwdiv@divisor,f
  3509  0036' 3EFF               	addlw	-1
  3510  0037' 1D03               	skipz
  3511  0038' 2800'              	goto	u3355
  3512  0039'                    l2410:	
  3513  0039' 3001               	movlw	1
  3514  003A' 0287'              	subwf	___lwdiv@counter,f
  3515  003B' 1D03               	btfss	3,2
  3516  003C' 2800'              	goto	u3361
  3517  003D' 2800'              	goto	u3360
  3518  003E'                    u3361:	
  3519  003E' 2800'              	goto	l2402
  3520  003F'                    u3360:	
  3521  003F'                    l2412:	
  3522  003F' 0806'              	movf	___lwdiv@quotient+1,w
  3523  0040' 0081'              	movwf	?___lwdiv+1
  3524  0041' 0805'              	movf	___lwdiv@quotient,w
  3525  0042' 0080'              	movwf	?___lwdiv
  3526  0043'                    l546:	
  3527  0043' 0008               	return
  3528  0044'                    __end_of___lwdiv:	
  3529                           
  3530                           	psect	text15
  3531  0000'                    __ptext15:	
  3532 ;; *************** function _distancia *****************
  3533 ;; Defined at:
  3534 ;;		line 109 in file "FuzzyMain.c"
  3535 ;; Parameters:    Size  Location     Type
  3536 ;;		None
  3537 ;; Auto vars:     Size  Location     Type
  3538 ;;		None
  3539 ;; Return value:  Size  Location     Type
  3540 ;;                  1    wreg      void 
  3541 ;; Registers used:
  3542 ;;		wreg, status,2, status,0, btemp+1, pclath, cstack
  3543 ;; Tracked objects:
  3544 ;;		On entry : 0/0
  3545 ;;		On exit  : 0/0
  3546 ;;		Unchanged: 0/0
  3547 ;; Data sizes:     COMMON   BANK0   BANK1   BANK3   BANK2
  3548 ;;      Params:         0       0       0       0       0
  3549 ;;      Locals:         0       0       0       0       0
  3550 ;;      Temps:          0       2       0       0       0
  3551 ;;      Totals:         0       2       0       0       0
  3552 ;;Total ram usage:        2 bytes
  3553 ;; Hardware stack levels used:    1
  3554 ;; Hardware stack levels required when called:    1
  3555 ;; This function calls:
  3556 ;;		___awdiv
  3557 ;;		___fladd
  3558 ;;		___xxtofl
  3559 ;; This function is called by:
  3560 ;;		_main
  3561 ;; This function uses a non-reentrant model
  3562 ;;
  3563                           
  3564                           
  3565                           ;psect for function _distancia
  3566  0000'                    _distancia:	
  3567  0000'                    l3256:	
  3568                           ;incstack = 0
  3569                           ; Regs used in _distancia: [wreg+status,2+status,0+btemp+1+pclath+cstack]
  3570                           
  3571                           
  3572                           ;FuzzyMain.c: 111:     RD1=1;
  3573  0000' 1283               	bcf	3,5	;RP0=0, select bank0
  3574  0001' 1303               	bcf	3,6	;RP1=0, select bank0
  3575  0002' 1488               	bsf	8,1	;volatile
  3576  0003'                    l3258:	
  3577                           
  3578                           ;FuzzyMain.c: 112:     _delay((unsigned long)((1)*(8000000/4000)));
  3579  0003' 3003               	movlw	3
  3580  0004' 1283               	bcf	3,5	;RP0=0, select bank0
  3581  0005' 1303               	bcf	3,6	;RP1=0, select bank0
  3582  0006' 00B9'              	movwf	??_distancia+1
  3583  0007' 3097               	movlw	151
  3584  0008' 00B8'              	movwf	??_distancia
  3585  0009'                    u5287:	
  3586  0009' 0BB8'              	decfsz	??_distancia,f
  3587  000A' 2800'              	goto	u5287
  3588  000B' 0BB9'              	decfsz	??_distancia+1,f
  3589  000C' 2800'              	goto	u5287
  3590  000D'                    l3260:	
  3591                           
  3592                           ;FuzzyMain.c: 113:     RD1=0;
  3593  000D' 1283               	bcf	3,5	;RP0=0, select bank0
  3594  000E' 1303               	bcf	3,6	;RP1=0, select bank0
  3595  000F' 1088               	bcf	8,1	;volatile
  3596  0010'                    l3262:	
  3597                           
  3598                           ;FuzzyMain.c: 114:     TMR1ON=1;
  3599  0010' 1410               	bsf	16,0	;volatile
  3600  0011'                    l179:	
  3601                           ;FuzzyMain.c: 115:     while(RD0==0);
  3602                           
  3603  0011' 1C08               	btfss	8,0	;volatile
  3604  0012' 2800'              	goto	u5151
  3605  0013' 2800'              	goto	u5150
  3606  0014'                    u5151:	
  3607  0014' 2800'              	goto	l179
  3608  0015'                    u5150:	
  3609  0015'                    l3264:	
  3610                           
  3611                           ;FuzzyMain.c: 116:     TMR1=0;
  3612  0015' 018E               	clrf	14	;volatile
  3613  0016' 018F               	clrf	15	;volatile
  3614  0017'                    l182:	
  3615                           ;FuzzyMain.c: 117:     while((RD0==1)&&(TMR1<25000));
  3616                           
  3617  0017' 1C08               	btfss	8,0	;volatile
  3618  0018' 2800'              	goto	u5161
  3619  0019' 2800'              	goto	u5160
  3620  001A'                    u5161:	
  3621  001A' 2800'              	goto	l186
  3622  001B'                    u5160:	
  3623  001B'                    l3266:	
  3624  001B' 3061               	movlw	97
  3625  001C' 020F               	subwf	15,w	;volatile
  3626  001D' 30A8               	movlw	168
  3627  001E' 1903               	skipnz
  3628  001F' 020E               	subwf	14,w	;volatile
  3629  0020' 1C03               	skipc
  3630  0021' 2800'              	goto	u5171
  3631  0022' 2800'              	goto	u5170
  3632  0023'                    u5171:	
  3633  0023' 2800'              	goto	l182
  3634  0024'                    u5170:	
  3635  0024'                    l186:	
  3636                           
  3637                           ;FuzzyMain.c: 118:     TMR1ON=0;
  3638  0024' 1010               	bcf	16,0	;volatile
  3639  0025'                    l3268:	
  3640                           
  3641                           ;FuzzyMain.c: 119:     if(TMR1<25000){
  3642  0025' 3061               	movlw	97
  3643  0026' 020F               	subwf	15,w	;volatile
  3644  0027' 30A8               	movlw	168
  3645  0028' 1903               	skipnz
  3646  0029' 020E               	subwf	14,w	;volatile
  3647  002A' 1803               	skipnc
  3648  002B' 2800'              	goto	u5181
  3649  002C' 2800'              	goto	u5180
  3650  002D'                    u5181:	
  3651  002D' 2800'              	goto	l3276
  3652  002E'                    u5180:	
  3653  002E'                    l3270:	
  3654                           
  3655                           ;FuzzyMain.c: 120:         us=(TMR1H*256)+TMR1L;
  3656  002E' 080F               	movf	15,w	;volatile
  3657  002F' 1683               	bsf	3,5	;RP0=1, select bank1
  3658  0030' 1303               	bcf	3,6	;RP1=0, select bank1
  3659  0031' 0080'              	movwf	(_us+1)^(0+128)
  3660  0032' 1283               	bcf	3,5	;RP0=0, select bank0
  3661  0033' 1303               	bcf	3,6	;RP1=0, select bank0
  3662  0034' 080E               	movf	14,w	;volatile
  3663  0035' 1683               	bsf	3,5	;RP0=1, select bank1
  3664  0036' 1303               	bcf	3,6	;RP1=0, select bank1
  3665  0037' 0080'              	movwf	_us^(0+128)
  3666  0038'                    l3272:	
  3667                           
  3668                           ;FuzzyMain.c: 121:         cm=us/58;
  3669  0038' 303A               	movlw	58
  3670  0039' 0080'              	movwf	___awdiv@divisor
  3671  003A' 3000               	movlw	0
  3672  003B' 0081'              	movwf	___awdiv@divisor+1
  3673  003C' 0800'              	movf	(_us+1)^(0+128),w
  3674  003D' 0083'              	movwf	___awdiv@dividend+1
  3675  003E' 0800'              	movf	_us^(0+128),w
  3676  003F' 0082'              	movwf	___awdiv@dividend
  3677  0040' 120A' 118A' 2000' 120A' 118A' 	fcall	___awdiv
  3678  0045' 0801'              	movf	?___awdiv+1,w
  3679  0046' 1683               	bsf	3,5	;RP0=1, select bank1
  3680  0047' 1303               	bcf	3,6	;RP1=0, select bank1
  3681  0048' 0080'              	movwf	(_cm+1)^(0+128)
  3682  0049' 0800'              	movf	?___awdiv,w
  3683  004A' 0080'              	movwf	_cm^(0+128)
  3684  004B'                    l3274:	
  3685                           
  3686                           ;FuzzyMain.c: 122:         cmf=us/58;
  3687  004B' 0800'              	movf	(_us+1)^(0+128),w
  3688  004C' 0083'              	movwf	___awdiv@dividend+1
  3689  004D' 0800'              	movf	_us^(0+128),w
  3690  004E' 0082'              	movwf	___awdiv@dividend
  3691  004F' 303A               	movlw	58
  3692  0050' 0080'              	movwf	___awdiv@divisor
  3693  0051' 3000               	movlw	0
  3694  0052' 0081'              	movwf	___awdiv@divisor+1
  3695  0053' 120A' 118A' 2000' 120A' 118A' 	fcall	___awdiv
  3696  0058' 0800'              	movf	?___awdiv,w
  3697  0059' 0089'              	movwf	___xxtofl@val
  3698  005A' 0801'              	movf	?___awdiv+1,w
  3699  005B' 008A'              	movwf	___xxtofl@val+1
  3700  005C' 3000               	movlw	0
  3701  005D' 1B8A'              	btfsc	___xxtofl@val+1,7
  3702  005E' 30FF               	movlw	255
  3703  005F' 008B'              	movwf	___xxtofl@val+2
  3704  0060' 008C'              	movwf	___xxtofl@val+3
  3705  0061' 3001               	movlw	1
  3706  0062' 120A' 118A' 2000' 120A' 118A' 	fcall	___xxtofl
  3707  0067' 080C'              	movf	?___xxtofl+3,w
  3708  0068' 1283               	bcf	3,5	;RP0=0, select bank2
  3709  0069' 1703               	bsf	3,6	;RP1=1, select bank2
  3710  006A' 0080'              	movwf	(_cmf+3)^(0+256)
  3711  006B' 080B'              	movf	?___xxtofl+2,w
  3712  006C' 0080'              	movwf	(_cmf+2)^(0+256)
  3713  006D' 080A'              	movf	?___xxtofl+1,w
  3714  006E' 0080'              	movwf	(_cmf+1)^(0+256)
  3715  006F' 0809'              	movf	?___xxtofl,w
  3716  0070' 0080'              	movwf	_cmf^(0+256)
  3717  0071'                    l3276:	
  3718                           
  3719                           ;FuzzyMain.c: 124:     tiempo=us+tiempo;
  3720  0071' 1683               	bsf	3,5	;RP0=1, select bank3
  3721  0072' 1703               	bsf	3,6	;RP1=1, select bank3
  3722  0073' 0800'              	movf	(_tiempo+3)^(0+384),w
  3723  0074' 1283               	bcf	3,5	;RP0=0, select bank0
  3724  0075' 1303               	bcf	3,6	;RP1=0, select bank0
  3725  0076' 00A7'              	movwf	___fladd@b+3
  3726  0077' 1683               	bsf	3,5	;RP0=1, select bank3
  3727  0078' 1703               	bsf	3,6	;RP1=1, select bank3
  3728  0079' 0800'              	movf	(_tiempo+2)^(0+384),w
  3729  007A' 1283               	bcf	3,5	;RP0=0, select bank0
  3730  007B' 1303               	bcf	3,6	;RP1=0, select bank0
  3731  007C' 00A6'              	movwf	___fladd@b+2
  3732  007D' 1683               	bsf	3,5	;RP0=1, select bank3
  3733  007E' 1703               	bsf	3,6	;RP1=1, select bank3
  3734  007F' 0800'              	movf	(_tiempo+1)^(0+384),w
  3735  0080' 1283               	bcf	3,5	;RP0=0, select bank0
  3736  0081' 1303               	bcf	3,6	;RP1=0, select bank0
  3737  0082' 00A5'              	movwf	___fladd@b+1
  3738  0083' 1683               	bsf	3,5	;RP0=1, select bank3
  3739  0084' 1703               	bsf	3,6	;RP1=1, select bank3
  3740  0085' 0800'              	movf	_tiempo^(0+384),w
  3741  0086' 1283               	bcf	3,5	;RP0=0, select bank0
  3742  0087' 1303               	bcf	3,6	;RP1=0, select bank0
  3743  0088' 00A4'              	movwf	___fladd@b
  3744  0089' 1683               	bsf	3,5	;RP0=1, select bank1
  3745  008A' 1303               	bcf	3,6	;RP1=0, select bank1
  3746  008B' 0800'              	movf	_us^(0+128),w
  3747  008C' 0089'              	movwf	___xxtofl@val
  3748  008D' 0800'              	movf	(_us+1)^(0+128),w
  3749  008E' 008A'              	movwf	___xxtofl@val+1
  3750  008F' 3000               	movlw	0
  3751  0090' 1B8A'              	btfsc	___xxtofl@val+1,7
  3752  0091' 30FF               	movlw	255
  3753  0092' 008B'              	movwf	___xxtofl@val+2
  3754  0093' 008C'              	movwf	___xxtofl@val+3
  3755  0094' 3001               	movlw	1
  3756  0095' 120A' 118A' 2000' 120A' 118A' 	fcall	___xxtofl
  3757  009A' 080C'              	movf	?___xxtofl+3,w
  3758  009B' 1283               	bcf	3,5	;RP0=0, select bank0
  3759  009C' 1303               	bcf	3,6	;RP1=0, select bank0
  3760  009D' 00AB'              	movwf	___fladd@a+3
  3761  009E' 080B'              	movf	?___xxtofl+2,w
  3762  009F' 00AA'              	movwf	___fladd@a+2
  3763  00A0' 080A'              	movf	?___xxtofl+1,w
  3764  00A1' 00A9'              	movwf	___fladd@a+1
  3765  00A2' 0809'              	movf	?___xxtofl,w
  3766  00A3' 00A8'              	movwf	___fladd@a
  3767  00A4' 120A' 118A' 2000' 120A' 118A' 	fcall	___fladd
  3768  00A9' 1283               	bcf	3,5	;RP0=0, select bank0
  3769  00AA' 1303               	bcf	3,6	;RP1=0, select bank0
  3770  00AB' 0827'              	movf	?___fladd+3,w
  3771  00AC' 1683               	bsf	3,5	;RP0=1, select bank3
  3772  00AD' 1703               	bsf	3,6	;RP1=1, select bank3
  3773  00AE' 0080'              	movwf	(_tiempo+3)^(0+384)
  3774  00AF' 1283               	bcf	3,5	;RP0=0, select bank0
  3775  00B0' 1303               	bcf	3,6	;RP1=0, select bank0
  3776  00B1' 0826'              	movf	?___fladd+2,w
  3777  00B2' 1683               	bsf	3,5	;RP0=1, select bank3
  3778  00B3' 1703               	bsf	3,6	;RP1=1, select bank3
  3779  00B4' 0080'              	movwf	(_tiempo+2)^(0+384)
  3780  00B5' 1283               	bcf	3,5	;RP0=0, select bank0
  3781  00B6' 1303               	bcf	3,6	;RP1=0, select bank0
  3782  00B7' 0825'              	movf	?___fladd+1,w
  3783  00B8' 1683               	bsf	3,5	;RP0=1, select bank3
  3784  00B9' 1703               	bsf	3,6	;RP1=1, select bank3
  3785  00BA' 0080'              	movwf	(_tiempo+1)^(0+384)
  3786  00BB' 1283               	bcf	3,5	;RP0=0, select bank0
  3787  00BC' 1303               	bcf	3,6	;RP1=0, select bank0
  3788  00BD' 0824'              	movf	?___fladd,w
  3789  00BE' 1683               	bsf	3,5	;RP0=1, select bank3
  3790  00BF' 1703               	bsf	3,6	;RP1=1, select bank3
  3791  00C0' 0080'              	movwf	_tiempo^(0+384)
  3792  00C1'                    l188:	
  3793  00C1' 0008               	return
  3794  00C2'                    __end_of_distancia:	
  3795                           
  3796                           	psect	text16
  3797  0000'                    __ptext16:	
  3798 ;; *************** function _abs *****************
  3799 ;; Defined at:
  3800 ;;		line 4 in file "C:\Program Files (x86)\Microchip\xc8\v2.10\pic\sources\c90\common\abs.c"
  3801 ;; Parameters:    Size  Location     Type
  3802 ;;  a               2    0[COMMON] int 
  3803 ;; Auto vars:     Size  Location     Type
  3804 ;;		None
  3805 ;; Return value:  Size  Location     Type
  3806 ;;                  2    0[COMMON] int 
  3807 ;; Registers used:
  3808 ;;		wreg, status,2, status,0
  3809 ;; Tracked objects:
  3810 ;;		On entry : 0/0
  3811 ;;		On exit  : 0/0
  3812 ;;		Unchanged: 0/0
  3813 ;; Data sizes:     COMMON   BANK0   BANK1   BANK3   BANK2
  3814 ;;      Params:         2       0       0       0       0
  3815 ;;      Locals:         0       0       0       0       0
  3816 ;;      Temps:          2       0       0       0       0
  3817 ;;      Totals:         4       0       0       0       0
  3818 ;;Total ram usage:        4 bytes
  3819 ;; Hardware stack levels used:    1
  3820 ;; This function calls:
  3821 ;;		Nothing
  3822 ;; This function is called by:
  3823 ;;		_main
  3824 ;; This function uses a non-reentrant model
  3825 ;;
  3826                           
  3827                           
  3828                           ;psect for function _abs
  3829  0000'                    _abs:	
  3830  0000'                    l3286:	
  3831                           ;incstack = 0
  3832                           ; Regs used in _abs: [wreg+status,2+status,0]
  3833                           
  3834  0000' 1F81'              	btfss	abs@a+1,7
  3835  0001' 2800'              	goto	u5191
  3836  0002' 2800'              	goto	u5190
  3837  0003'                    u5191:	
  3838  0003' 2800'              	goto	l719
  3839  0004'                    u5190:	
  3840  0004'                    l3288:	
  3841  0004' 0900'              	comf	abs@a,w
  3842  0005' 0082'              	movwf	??_abs
  3843  0006' 0901'              	comf	abs@a+1,w
  3844  0007' 0083'              	movwf	??_abs+1
  3845  0008' 0A82'              	incf	??_abs,f
  3846  0009' 1903               	skipnz
  3847  000A' 0A83'              	incf	??_abs+1,f
  3848  000B' 0802'              	movf	??_abs,w
  3849  000C' 0080'              	movwf	?_abs
  3850  000D' 0803'              	movf	??_abs+1,w
  3851  000E' 0081'              	movwf	?_abs+1
  3852  000F' 2800'              	goto	l720
  3853  0010'                    l719:	
  3854  0010'                    l720:	
  3855  0010' 0008               	return
  3856  0011'                    __end_of_abs:	
  3857                           
  3858                           	psect	text17
  3859  0000'                    __ptext17:	
  3860 ;; *************** function _Fuz *****************
  3861 ;; Defined at:
  3862 ;;		line 60 in file "./Fuzzy_Lib.h"
  3863 ;; Parameters:    Size  Location     Type
  3864 ;;  X               2   39[BANK1 ] int 
  3865 ;;  Y               2   41[BANK1 ] int 
  3866 ;; Auto vars:     Size  Location     Type
  3867 ;;  ii              2   80[BANK3 ] int 
  3868 ;;  i               2   28[BANK3 ] int 
  3869 ;;  j               2   26[BANK3 ] int 
  3870 ;;  Min            32   40[BANK3 ] int [16]
  3871 ;;  CL             10   30[BANK3 ] int [5]
  3872 ;;  B               8   72[BANK3 ] int [4]
  3873 ;;  A               8   18[BANK3 ] int [4]
  3874 ;;  step            4    6[BANK3 ] float 
  3875 ;;  z               2   82[BANK3 ] int 
  3876 ;;  FCL             2   16[BANK3 ] int 
  3877 ;;  D               2   14[BANK3 ] int 
  3878 ;;  N               2   12[BANK3 ] int 
  3879 ;;  n               2   10[BANK3 ] int 
  3880 ;;  Centroid        2    4[BANK3 ] int 
  3881 ;;  universe_max    2    0        int 
  3882 ;;  universe_min    2    0        int 
  3883 ;; Return value:  Size  Location     Type
  3884 ;;                  2   39[BANK1 ] int 
  3885 ;; Registers used:
  3886 ;;		wreg, fsr0l, fsr0h, status,2, status,0, btemp+1, pclath, cstack
  3887 ;; Tracked objects:
  3888 ;;		On entry : 0/0
  3889 ;;		On exit  : 0/0
  3890 ;;		Unchanged: 0/0
  3891 ;; Data sizes:     COMMON   BANK0   BANK1   BANK3   BANK2
  3892 ;;      Params:         0       0       4       0       0
  3893 ;;      Locals:         0       0       0      84       0
  3894 ;;      Temps:          0       0       7       0       0
  3895 ;;      Totals:         0       0      11      84       0
  3896 ;;Total ram usage:       95 bytes
  3897 ;; Hardware stack levels used:    1
  3898 ;; Hardware stack levels required when called:    3
  3899 ;; This function calls:
  3900 ;;		___awdiv
  3901 ;;		___fladd
  3902 ;;		___fltol
  3903 ;;		___wmul
  3904 ;;		___xxtofl
  3905 ;;		_pimf
  3906 ;; This function is called by:
  3907 ;;		_main
  3908 ;; This function uses a non-reentrant model
  3909 ;;
  3910                           
  3911                           
  3912                           ;psect for function _Fuz
  3913  0000'                    _Fuz:	
  3914  0000'                    l3002:	
  3915                           ;incstack = 0
  3916                           ; Regs used in _Fuz: [wreg-fsr0h+status,2+status,0+btemp+1+pclath+cstack]
  3917                           
  3918                           
  3919                           ;./Fuzzy_Lib.h: 61:     int A[4]={0,0,0,0};
  3920  0000' 3000'              	movlw	Fuz@A& (0+255)
  3921  0001' 0084               	movwf	4
  3922  0002' 3008               	movlw	8
  3923  0003' 00FF               	movwf	btemp+1
  3924  0004'                    u4600:	
  3925  0004' 1783               	bsf	3,7	;select IRP bank3
  3926  0005' 0180               	clrf	0
  3927  0006' 0A84               	incf	4,f
  3928  0007' 0BFF               	decfsz	btemp+1,f
  3929  0008' 2800'              	goto	u4600
  3930                           
  3931                           ;./Fuzzy_Lib.h: 62:  int B[4]={0,0,0,0};
  3932  0009' 3000'              	movlw	Fuz@B& (0+255)
  3933  000A' 0084               	movwf	4
  3934  000B' 3008               	movlw	8
  3935  000C' 00FF               	movwf	btemp+1
  3936  000D'                    u4610:	
  3937  000D' 0180               	clrf	0
  3938  000E' 0A84               	incf	4,f
  3939  000F' 0BFF               	decfsz	btemp+1,f
  3940  0010' 2800'              	goto	u4610
  3941  0011'                    l3004:	
  3942                           
  3943                           ;./Fuzzy_Lib.h: 64:  int n=0;
  3944  0011' 1683               	bsf	3,5	;RP0=1, select bank3
  3945  0012' 1703               	bsf	3,6	;RP1=1, select bank3
  3946  0013' 0180'              	clrf	Fuz@n^(0+384)
  3947  0014' 0180'              	clrf	(Fuz@n+1)^(0+384)
  3948  0015'                    l3006:	
  3949                           
  3950                           ;./Fuzzy_Lib.h: 65:     int Min[16]={0,0,0,0,0,0,0,0,0,0,0,0,0,0,0,0};
  3951  0015' 3000'              	movlw	Fuz@Min& (0+255)
  3952  0016' 0084               	movwf	4
  3953  0017' 3020               	movlw	32
  3954  0018' 00FF               	movwf	btemp+1
  3955  0019'                    u4620:	
  3956  0019' 0180               	clrf	0
  3957  001A' 0A84               	incf	4,f
  3958  001B' 0BFF               	decfsz	btemp+1,f
  3959  001C' 2800'              	goto	u4620
  3960  001D'                    l3008:	
  3961                           
  3962                           ;./Fuzzy_Lib.h: 67:     int CL[5]={0,0,0,0,0};
  3963  001D' 3000'              	movlw	Fuz@CL& (0+255)
  3964  001E' 0084               	movwf	4
  3965  001F' 300A               	movlw	10
  3966  0020' 00FF               	movwf	btemp+1
  3967  0021'                    u4630:	
  3968  0021' 0180               	clrf	0
  3969  0022' 0A84               	incf	4,f
  3970  0023' 0BFF               	decfsz	btemp+1,f
  3971  0024' 2800'              	goto	u4630
  3972  0025'                    l3010:	
  3973  0025'                    l3012:	
  3974  0025'                    l3014:	
  3975  0025'                    l3016:	
  3976  0025'                    l3018:	
  3977                           
  3978                           ;./Fuzzy_Lib.h: 73:     float step = 5;
  3979  0025' 3040               	movlw	64
  3980  0026' 0080'              	movwf	(Fuz@step+3)^(0+384)
  3981  0027' 30A0               	movlw	160
  3982  0028' 0080'              	movwf	(Fuz@step+2)^(0+384)
  3983  0029' 3000               	movlw	0
  3984  002A' 0080'              	movwf	(Fuz@step+1)^(0+384)
  3985  002B' 3000               	movlw	0
  3986  002C' 0080'              	movwf	Fuz@step^(0+384)
  3987  002D'                    l3020:	
  3988                           
  3989                           ;./Fuzzy_Lib.h: 74:     int N = 0;
  3990  002D' 0180'              	clrf	Fuz@N^(0+384)
  3991  002E' 0180'              	clrf	(Fuz@N+1)^(0+384)
  3992  002F'                    l3022:	
  3993                           
  3994                           ;./Fuzzy_Lib.h: 75:     int D= 0;
  3995  002F' 0180'              	clrf	Fuz@D^(0+384)
  3996  0030' 0180'              	clrf	(Fuz@D+1)^(0+384)
  3997  0031'                    l3024:	
  3998  0031'                    l3026:	
  3999                           
  4000                           ;./Fuzzy_Lib.h: 78:  A[0] = pimf(X,-1,-1,40,133);
  4001  0031' 1683               	bsf	3,5	;RP0=1, select bank1
  4002  0032' 1303               	bcf	3,6	;RP1=0, select bank1
  4003  0033' 0800'              	movf	(Fuz@X+1)^(0+128),w
  4004  0034' 0080'              	movwf	(pimf@x+1)^(0+128)
  4005  0035' 0800'              	movf	Fuz@X^(0+128),w
  4006  0036' 0080'              	movwf	pimf@x^(0+128)
  4007  0037' 30BF               	movlw	191
  4008  0038' 0080'              	movwf	(pimf@a+3)^(0+128)
  4009  0039' 3080               	movlw	128
  4010  003A' 0080'              	movwf	(pimf@a+2)^(0+128)
  4011  003B' 3000               	movlw	0
  4012  003C' 0080'              	movwf	(pimf@a+1)^(0+128)
  4013  003D' 3000               	movlw	0
  4014  003E' 0080'              	movwf	pimf@a^(0+128)
  4015  003F' 30BF               	movlw	191
  4016  0040' 0080'              	movwf	(pimf@b+3)^(0+128)
  4017  0041' 3080               	movlw	128
  4018  0042' 0080'              	movwf	(pimf@b+2)^(0+128)
  4019  0043' 3000               	movlw	0
  4020  0044' 0080'              	movwf	(pimf@b+1)^(0+128)
  4021  0045' 3000               	movlw	0
  4022  0046' 0080'              	movwf	pimf@b^(0+128)
  4023  0047' 3042               	movlw	66
  4024  0048' 0080'              	movwf	(pimf@c+3)^(0+128)
  4025  0049' 3020               	movlw	32
  4026  004A' 0080'              	movwf	(pimf@c+2)^(0+128)
  4027  004B' 3000               	movlw	0
  4028  004C' 0080'              	movwf	(pimf@c+1)^(0+128)
  4029  004D' 3000               	movlw	0
  4030  004E' 0080'              	movwf	pimf@c^(0+128)
  4031  004F' 3043               	movlw	67
  4032  0050' 0080'              	movwf	(pimf@d+3)^(0+128)
  4033  0051' 3005               	movlw	5
  4034  0052' 0080'              	movwf	(pimf@d+2)^(0+128)
  4035  0053' 3000               	movlw	0
  4036  0054' 0080'              	movwf	(pimf@d+1)^(0+128)
  4037  0055' 3000               	movlw	0
  4038  0056' 0080'              	movwf	pimf@d^(0+128)
  4039  0057' 120A' 118A' 2000' 120A' 118A' 	fcall	_pimf
  4040  005C' 1683               	bsf	3,5	;RP0=1, select bank1
  4041  005D' 1303               	bcf	3,6	;RP1=0, select bank1
  4042  005E' 0800'              	movf	(?_pimf+1)^(0+128),w
  4043  005F' 1683               	bsf	3,5	;RP0=1, select bank3
  4044  0060' 1703               	bsf	3,6	;RP1=1, select bank3
  4045  0061' 0080'              	movwf	(Fuz@A+1)^(0+384)
  4046  0062' 1683               	bsf	3,5	;RP0=1, select bank1
  4047  0063' 1303               	bcf	3,6	;RP1=0, select bank1
  4048  0064' 0800'              	movf	?_pimf^(0+128),w
  4049  0065' 1683               	bsf	3,5	;RP0=1, select bank3
  4050  0066' 1703               	bsf	3,6	;RP1=1, select bank3
  4051  0067' 0080'              	movwf	Fuz@A^(0+384)
  4052  0068'                    l3028:	
  4053                           
  4054                           ;./Fuzzy_Lib.h: 79:  A[1] = pimf(X,15,123,143,267);
  4055  0068' 1683               	bsf	3,5	;RP0=1, select bank1
  4056  0069' 1303               	bcf	3,6	;RP1=0, select bank1
  4057  006A' 0800'              	movf	(Fuz@X+1)^(0+128),w
  4058  006B' 0080'              	movwf	(pimf@x+1)^(0+128)
  4059  006C' 0800'              	movf	Fuz@X^(0+128),w
  4060  006D' 0080'              	movwf	pimf@x^(0+128)
  4061  006E' 3041               	movlw	65
  4062  006F' 0080'              	movwf	(pimf@a+3)^(0+128)
  4063  0070' 3070               	movlw	112
  4064  0071' 0080'              	movwf	(pimf@a+2)^(0+128)
  4065  0072' 3000               	movlw	0
  4066  0073' 0080'              	movwf	(pimf@a+1)^(0+128)
  4067  0074' 3000               	movlw	0
  4068  0075' 0080'              	movwf	pimf@a^(0+128)
  4069  0076' 3042               	movlw	66
  4070  0077' 0080'              	movwf	(pimf@b+3)^(0+128)
  4071  0078' 30F6               	movlw	246
  4072  0079' 0080'              	movwf	(pimf@b+2)^(0+128)
  4073  007A' 3000               	movlw	0
  4074  007B' 0080'              	movwf	(pimf@b+1)^(0+128)
  4075  007C' 3000               	movlw	0
  4076  007D' 0080'              	movwf	pimf@b^(0+128)
  4077  007E' 3043               	movlw	67
  4078  007F' 0080'              	movwf	(pimf@c+3)^(0+128)
  4079  0080' 300F               	movlw	15
  4080  0081' 0080'              	movwf	(pimf@c+2)^(0+128)
  4081  0082' 3000               	movlw	0
  4082  0083' 0080'              	movwf	(pimf@c+1)^(0+128)
  4083  0084' 3000               	movlw	0
  4084  0085' 0080'              	movwf	pimf@c^(0+128)
  4085  0086' 3043               	movlw	67
  4086  0087' 0080'              	movwf	(pimf@d+3)^(0+128)
  4087  0088' 3085               	movlw	133
  4088  0089' 0080'              	movwf	(pimf@d+2)^(0+128)
  4089  008A' 3080               	movlw	128
  4090  008B' 0080'              	movwf	(pimf@d+1)^(0+128)
  4091  008C' 3000               	movlw	0
  4092  008D' 0080'              	movwf	pimf@d^(0+128)
  4093  008E' 120A' 118A' 2000' 120A' 118A' 	fcall	_pimf
  4094  0093' 1683               	bsf	3,5	;RP0=1, select bank1
  4095  0094' 1303               	bcf	3,6	;RP1=0, select bank1
  4096  0095' 0800'              	movf	(?_pimf+1)^(0+128),w
  4097  0096' 1683               	bsf	3,5	;RP0=1, select bank3
  4098  0097' 1703               	bsf	3,6	;RP1=1, select bank3
  4099  0098' 0082'              	movwf	((Fuz@A+1)^(0+384)+2)
  4100  0099' 1683               	bsf	3,5	;RP0=1, select bank1
  4101  009A' 1303               	bcf	3,6	;RP1=0, select bank1
  4102  009B' 0800'              	movf	?_pimf^(0+128),w
  4103  009C' 1683               	bsf	3,5	;RP0=1, select bank3
  4104  009D' 1703               	bsf	3,6	;RP1=1, select bank3
  4105  009E' 0082'              	movwf	(Fuz@A^(0+384)+2)
  4106  009F'                    l3030:	
  4107                           
  4108                           ;./Fuzzy_Lib.h: 80:  A[2] = pimf(X,133,256,276,400);
  4109  009F' 1683               	bsf	3,5	;RP0=1, select bank1
  4110  00A0' 1303               	bcf	3,6	;RP1=0, select bank1
  4111  00A1' 0800'              	movf	(Fuz@X+1)^(0+128),w
  4112  00A2' 0080'              	movwf	(pimf@x+1)^(0+128)
  4113  00A3' 0800'              	movf	Fuz@X^(0+128),w
  4114  00A4' 0080'              	movwf	pimf@x^(0+128)
  4115  00A5' 3043               	movlw	67
  4116  00A6' 0080'              	movwf	(pimf@a+3)^(0+128)
  4117  00A7' 3005               	movlw	5
  4118  00A8' 0080'              	movwf	(pimf@a+2)^(0+128)
  4119  00A9' 3000               	movlw	0
  4120  00AA' 0080'              	movwf	(pimf@a+1)^(0+128)
  4121  00AB' 3000               	movlw	0
  4122  00AC' 0080'              	movwf	pimf@a^(0+128)
  4123  00AD' 3043               	movlw	67
  4124  00AE' 0080'              	movwf	(pimf@b+3)^(0+128)
  4125  00AF' 3080               	movlw	128
  4126  00B0' 0080'              	movwf	(pimf@b+2)^(0+128)
  4127  00B1' 3000               	movlw	0
  4128  00B2' 0080'              	movwf	(pimf@b+1)^(0+128)
  4129  00B3' 3000               	movlw	0
  4130  00B4' 0080'              	movwf	pimf@b^(0+128)
  4131  00B5' 3043               	movlw	67
  4132  00B6' 0080'              	movwf	(pimf@c+3)^(0+128)
  4133  00B7' 308A               	movlw	138
  4134  00B8' 0080'              	movwf	(pimf@c+2)^(0+128)
  4135  00B9' 3000               	movlw	0
  4136  00BA' 0080'              	movwf	(pimf@c+1)^(0+128)
  4137  00BB' 3000               	movlw	0
  4138  00BC' 0080'              	movwf	pimf@c^(0+128)
  4139  00BD' 3043               	movlw	67
  4140  00BE' 0080'              	movwf	(pimf@d+3)^(0+128)
  4141  00BF' 30C8               	movlw	200
  4142  00C0' 0080'              	movwf	(pimf@d+2)^(0+128)
  4143  00C1' 3000               	movlw	0
  4144  00C2' 0080'              	movwf	(pimf@d+1)^(0+128)
  4145  00C3' 3000               	movlw	0
  4146  00C4' 0080'              	movwf	pimf@d^(0+128)
  4147  00C5' 120A' 118A' 2000' 120A' 118A' 	fcall	_pimf
  4148  00CA' 1683               	bsf	3,5	;RP0=1, select bank1
  4149  00CB' 1303               	bcf	3,6	;RP1=0, select bank1
  4150  00CC' 0800'              	movf	(?_pimf+1)^(0+128),w
  4151  00CD' 1683               	bsf	3,5	;RP0=1, select bank3
  4152  00CE' 1703               	bsf	3,6	;RP1=1, select bank3
  4153  00CF' 0084'              	movwf	((Fuz@A+1)^(0+384)+4)
  4154  00D0' 1683               	bsf	3,5	;RP0=1, select bank1
  4155  00D1' 1303               	bcf	3,6	;RP1=0, select bank1
  4156  00D2' 0800'              	movf	?_pimf^(0+128),w
  4157  00D3' 1683               	bsf	3,5	;RP0=1, select bank3
  4158  00D4' 1703               	bsf	3,6	;RP1=1, select bank3
  4159  00D5' 0084'              	movwf	(Fuz@A^(0+384)+4)
  4160  00D6'                    l3032:	
  4161                           
  4162                           ;./Fuzzy_Lib.h: 81:     A[3] = pimf(X,266,390,400,1000);
  4163  00D6' 1683               	bsf	3,5	;RP0=1, select bank1
  4164  00D7' 1303               	bcf	3,6	;RP1=0, select bank1
  4165  00D8' 0800'              	movf	(Fuz@X+1)^(0+128),w
  4166  00D9' 0080'              	movwf	(pimf@x+1)^(0+128)
  4167  00DA' 0800'              	movf	Fuz@X^(0+128),w
  4168  00DB' 0080'              	movwf	pimf@x^(0+128)
  4169  00DC' 3043               	movlw	67
  4170  00DD' 0080'              	movwf	(pimf@a+3)^(0+128)
  4171  00DE' 3085               	movlw	133
  4172  00DF' 0080'              	movwf	(pimf@a+2)^(0+128)
  4173  00E0' 3000               	movlw	0
  4174  00E1' 0080'              	movwf	(pimf@a+1)^(0+128)
  4175  00E2' 3000               	movlw	0
  4176  00E3' 0080'              	movwf	pimf@a^(0+128)
  4177  00E4' 3043               	movlw	67
  4178  00E5' 0080'              	movwf	(pimf@b+3)^(0+128)
  4179  00E6' 30C3               	movlw	195
  4180  00E7' 0080'              	movwf	(pimf@b+2)^(0+128)
  4181  00E8' 3000               	movlw	0
  4182  00E9' 0080'              	movwf	(pimf@b+1)^(0+128)
  4183  00EA' 3000               	movlw	0
  4184  00EB' 0080'              	movwf	pimf@b^(0+128)
  4185  00EC' 3043               	movlw	67
  4186  00ED' 0080'              	movwf	(pimf@c+3)^(0+128)
  4187  00EE' 30C8               	movlw	200
  4188  00EF' 0080'              	movwf	(pimf@c+2)^(0+128)
  4189  00F0' 3000               	movlw	0
  4190  00F1' 0080'              	movwf	(pimf@c+1)^(0+128)
  4191  00F2' 3000               	movlw	0
  4192  00F3' 0080'              	movwf	pimf@c^(0+128)
  4193  00F4' 3044               	movlw	68
  4194  00F5' 0080'              	movwf	(pimf@d+3)^(0+128)
  4195  00F6' 307A               	movlw	122
  4196  00F7' 0080'              	movwf	(pimf@d+2)^(0+128)
  4197  00F8' 3000               	movlw	0
  4198  00F9' 0080'              	movwf	(pimf@d+1)^(0+128)
  4199  00FA' 3000               	movlw	0
  4200  00FB' 0080'              	movwf	pimf@d^(0+128)
  4201  00FC' 120A' 118A' 2000' 120A' 118A' 	fcall	_pimf
  4202  0101' 1683               	bsf	3,5	;RP0=1, select bank1
  4203  0102' 1303               	bcf	3,6	;RP1=0, select bank1
  4204  0103' 0800'              	movf	(?_pimf+1)^(0+128),w
  4205  0104' 1683               	bsf	3,5	;RP0=1, select bank3
  4206  0105' 1703               	bsf	3,6	;RP1=1, select bank3
  4207  0106' 0086'              	movwf	((Fuz@A+1)^(0+384)+6)
  4208  0107' 1683               	bsf	3,5	;RP0=1, select bank1
  4209  0108' 1303               	bcf	3,6	;RP1=0, select bank1
  4210  0109' 0800'              	movf	?_pimf^(0+128),w
  4211  010A' 1683               	bsf	3,5	;RP0=1, select bank3
  4212  010B' 1703               	bsf	3,6	;RP1=1, select bank3
  4213  010C' 0086'              	movwf	(Fuz@A^(0+384)+6)
  4214  010D'                    l3034:	
  4215                           
  4216                           ;./Fuzzy_Lib.h: 83:  B[0] = pimf(Y,-1,-1,8,28);
  4217  010D' 1683               	bsf	3,5	;RP0=1, select bank1
  4218  010E' 1303               	bcf	3,6	;RP1=0, select bank1
  4219  010F' 0800'              	movf	(Fuz@Y+1)^(0+128),w
  4220  0110' 0080'              	movwf	(pimf@x+1)^(0+128)
  4221  0111' 0800'              	movf	Fuz@Y^(0+128),w
  4222  0112' 0080'              	movwf	pimf@x^(0+128)
  4223  0113' 30BF               	movlw	191
  4224  0114' 0080'              	movwf	(pimf@a+3)^(0+128)
  4225  0115' 3080               	movlw	128
  4226  0116' 0080'              	movwf	(pimf@a+2)^(0+128)
  4227  0117' 3000               	movlw	0
  4228  0118' 0080'              	movwf	(pimf@a+1)^(0+128)
  4229  0119' 3000               	movlw	0
  4230  011A' 0080'              	movwf	pimf@a^(0+128)
  4231  011B' 30BF               	movlw	191
  4232  011C' 0080'              	movwf	(pimf@b+3)^(0+128)
  4233  011D' 3080               	movlw	128
  4234  011E' 0080'              	movwf	(pimf@b+2)^(0+128)
  4235  011F' 3000               	movlw	0
  4236  0120' 0080'              	movwf	(pimf@b+1)^(0+128)
  4237  0121' 3000               	movlw	0
  4238  0122' 0080'              	movwf	pimf@b^(0+128)
  4239  0123' 3041               	movlw	65
  4240  0124' 0080'              	movwf	(pimf@c+3)^(0+128)
  4241  0125' 3000               	movlw	0
  4242  0126' 0080'              	movwf	(pimf@c+2)^(0+128)
  4243  0127' 3000               	movlw	0
  4244  0128' 0080'              	movwf	(pimf@c+1)^(0+128)
  4245  0129' 3000               	movlw	0
  4246  012A' 0080'              	movwf	pimf@c^(0+128)
  4247  012B' 3041               	movlw	65
  4248  012C' 0080'              	movwf	(pimf@d+3)^(0+128)
  4249  012D' 30E0               	movlw	224
  4250  012E' 0080'              	movwf	(pimf@d+2)^(0+128)
  4251  012F' 3000               	movlw	0
  4252  0130' 0080'              	movwf	(pimf@d+1)^(0+128)
  4253  0131' 3000               	movlw	0
  4254  0132' 0080'              	movwf	pimf@d^(0+128)
  4255  0133' 120A' 118A' 2000' 120A' 118A' 	fcall	_pimf
  4256  0138' 1683               	bsf	3,5	;RP0=1, select bank1
  4257  0139' 1303               	bcf	3,6	;RP1=0, select bank1
  4258  013A' 0800'              	movf	(?_pimf+1)^(0+128),w
  4259  013B' 1683               	bsf	3,5	;RP0=1, select bank3
  4260  013C' 1703               	bsf	3,6	;RP1=1, select bank3
  4261  013D' 0080'              	movwf	(Fuz@B+1)^(0+384)
  4262  013E' 1683               	bsf	3,5	;RP0=1, select bank1
  4263  013F' 1303               	bcf	3,6	;RP1=0, select bank1
  4264  0140' 0800'              	movf	?_pimf^(0+128),w
  4265  0141' 1683               	bsf	3,5	;RP0=1, select bank3
  4266  0142' 1703               	bsf	3,6	;RP1=1, select bank3
  4267  0143' 0080'              	movwf	Fuz@B^(0+384)
  4268  0144'                    l3036:	
  4269                           
  4270                           ;./Fuzzy_Lib.h: 84:     B[1] = pimf(Y,0,26,30,56);
  4271  0144' 1683               	bsf	3,5	;RP0=1, select bank1
  4272  0145' 1303               	bcf	3,6	;RP1=0, select bank1
  4273  0146' 0800'              	movf	(Fuz@Y+1)^(0+128),w
  4274  0147' 0080'              	movwf	(pimf@x+1)^(0+128)
  4275  0148' 0800'              	movf	Fuz@Y^(0+128),w
  4276  0149' 0080'              	movwf	pimf@x^(0+128)
  4277  014A' 3000               	movlw	0
  4278  014B' 0080'              	movwf	(pimf@a+3)^(0+128)
  4279  014C' 3000               	movlw	0
  4280  014D' 0080'              	movwf	(pimf@a+2)^(0+128)
  4281  014E' 3000               	movlw	0
  4282  014F' 0080'              	movwf	(pimf@a+1)^(0+128)
  4283  0150' 3000               	movlw	0
  4284  0151' 0080'              	movwf	pimf@a^(0+128)
  4285  0152' 3041               	movlw	65
  4286  0153' 0080'              	movwf	(pimf@b+3)^(0+128)
  4287  0154' 30D0               	movlw	208
  4288  0155' 0080'              	movwf	(pimf@b+2)^(0+128)
  4289  0156' 3000               	movlw	0
  4290  0157' 0080'              	movwf	(pimf@b+1)^(0+128)
  4291  0158' 3000               	movlw	0
  4292  0159' 0080'              	movwf	pimf@b^(0+128)
  4293  015A' 3041               	movlw	65
  4294  015B' 0080'              	movwf	(pimf@c+3)^(0+128)
  4295  015C' 30F0               	movlw	240
  4296  015D' 0080'              	movwf	(pimf@c+2)^(0+128)
  4297  015E' 3000               	movlw	0
  4298  015F' 0080'              	movwf	(pimf@c+1)^(0+128)
  4299  0160' 3000               	movlw	0
  4300  0161' 0080'              	movwf	pimf@c^(0+128)
  4301  0162' 3042               	movlw	66
  4302  0163' 0080'              	movwf	(pimf@d+3)^(0+128)
  4303  0164' 3060               	movlw	96
  4304  0165' 0080'              	movwf	(pimf@d+2)^(0+128)
  4305  0166' 3000               	movlw	0
  4306  0167' 0080'              	movwf	(pimf@d+1)^(0+128)
  4307  0168' 3000               	movlw	0
  4308  0169' 0080'              	movwf	pimf@d^(0+128)
  4309  016A' 120A' 118A' 2000' 120A' 118A' 	fcall	_pimf
  4310  016F' 1683               	bsf	3,5	;RP0=1, select bank1
  4311  0170' 1303               	bcf	3,6	;RP1=0, select bank1
  4312  0171' 0800'              	movf	(?_pimf+1)^(0+128),w
  4313  0172' 1683               	bsf	3,5	;RP0=1, select bank3
  4314  0173' 1703               	bsf	3,6	;RP1=1, select bank3
  4315  0174' 0082'              	movwf	((Fuz@B+1)^(0+384)+2)
  4316  0175' 1683               	bsf	3,5	;RP0=1, select bank1
  4317  0176' 1303               	bcf	3,6	;RP1=0, select bank1
  4318  0177' 0800'              	movf	?_pimf^(0+128),w
  4319  0178' 1683               	bsf	3,5	;RP0=1, select bank3
  4320  0179' 1703               	bsf	3,6	;RP1=1, select bank3
  4321  017A' 0082'              	movwf	(Fuz@B^(0+384)+2)
  4322  017B'                    l3038:	
  4323                           
  4324                           ;./Fuzzy_Lib.h: 85:     B[2] = pimf(Y,28,54,58,85);
  4325  017B' 1683               	bsf	3,5	;RP0=1, select bank1
  4326  017C' 1303               	bcf	3,6	;RP1=0, select bank1
  4327  017D' 0800'              	movf	(Fuz@Y+1)^(0+128),w
  4328  017E' 0080'              	movwf	(pimf@x+1)^(0+128)
  4329  017F' 0800'              	movf	Fuz@Y^(0+128),w
  4330  0180' 0080'              	movwf	pimf@x^(0+128)
  4331  0181' 3041               	movlw	65
  4332  0182' 0080'              	movwf	(pimf@a+3)^(0+128)
  4333  0183' 30E0               	movlw	224
  4334  0184' 0080'              	movwf	(pimf@a+2)^(0+128)
  4335  0185' 3000               	movlw	0
  4336  0186' 0080'              	movwf	(pimf@a+1)^(0+128)
  4337  0187' 3000               	movlw	0
  4338  0188' 0080'              	movwf	pimf@a^(0+128)
  4339  0189' 3042               	movlw	66
  4340  018A' 0080'              	movwf	(pimf@b+3)^(0+128)
  4341  018B' 3058               	movlw	88
  4342  018C' 0080'              	movwf	(pimf@b+2)^(0+128)
  4343  018D' 3000               	movlw	0
  4344  018E' 0080'              	movwf	(pimf@b+1)^(0+128)
  4345  018F' 3000               	movlw	0
  4346  0190' 0080'              	movwf	pimf@b^(0+128)
  4347  0191' 3042               	movlw	66
  4348  0192' 0080'              	movwf	(pimf@c+3)^(0+128)
  4349  0193' 3068               	movlw	104
  4350  0194' 0080'              	movwf	(pimf@c+2)^(0+128)
  4351  0195' 3000               	movlw	0
  4352  0196' 0080'              	movwf	(pimf@c+1)^(0+128)
  4353  0197' 3000               	movlw	0
  4354  0198' 0080'              	movwf	pimf@c^(0+128)
  4355  0199' 3042               	movlw	66
  4356  019A' 0080'              	movwf	(pimf@d+3)^(0+128)
  4357  019B' 30AA               	movlw	170
  4358  019C' 0080'              	movwf	(pimf@d+2)^(0+128)
  4359  019D' 3000               	movlw	0
  4360  019E' 0080'              	movwf	(pimf@d+1)^(0+128)
  4361  019F' 3000               	movlw	0
  4362  01A0' 0080'              	movwf	pimf@d^(0+128)
  4363  01A1' 120A' 118A' 2000' 120A' 118A' 	fcall	_pimf
  4364  01A6' 1683               	bsf	3,5	;RP0=1, select bank1
  4365  01A7' 1303               	bcf	3,6	;RP1=0, select bank1
  4366  01A8' 0800'              	movf	(?_pimf+1)^(0+128),w
  4367  01A9' 1683               	bsf	3,5	;RP0=1, select bank3
  4368  01AA' 1703               	bsf	3,6	;RP1=1, select bank3
  4369  01AB' 0084'              	movwf	((Fuz@B+1)^(0+384)+4)
  4370  01AC' 1683               	bsf	3,5	;RP0=1, select bank1
  4371  01AD' 1303               	bcf	3,6	;RP1=0, select bank1
  4372  01AE' 0800'              	movf	?_pimf^(0+128),w
  4373  01AF' 1683               	bsf	3,5	;RP0=1, select bank3
  4374  01B0' 1703               	bsf	3,6	;RP1=1, select bank3
  4375  01B1' 0084'              	movwf	(Fuz@B^(0+384)+4)
  4376  01B2'                    l3040:	
  4377                           
  4378                           ;./Fuzzy_Lib.h: 86:     B[3] = pimf(Y,56,83,100,1000);
  4379  01B2' 1683               	bsf	3,5	;RP0=1, select bank1
  4380  01B3' 1303               	bcf	3,6	;RP1=0, select bank1
  4381  01B4' 0800'              	movf	(Fuz@Y+1)^(0+128),w
  4382  01B5' 0080'              	movwf	(pimf@x+1)^(0+128)
  4383  01B6' 0800'              	movf	Fuz@Y^(0+128),w
  4384  01B7' 0080'              	movwf	pimf@x^(0+128)
  4385  01B8' 3042               	movlw	66
  4386  01B9' 0080'              	movwf	(pimf@a+3)^(0+128)
  4387  01BA' 3060               	movlw	96
  4388  01BB' 0080'              	movwf	(pimf@a+2)^(0+128)
  4389  01BC' 3000               	movlw	0
  4390  01BD' 0080'              	movwf	(pimf@a+1)^(0+128)
  4391  01BE' 3000               	movlw	0
  4392  01BF' 0080'              	movwf	pimf@a^(0+128)
  4393  01C0' 3042               	movlw	66
  4394  01C1' 0080'              	movwf	(pimf@b+3)^(0+128)
  4395  01C2' 30A6               	movlw	166
  4396  01C3' 0080'              	movwf	(pimf@b+2)^(0+128)
  4397  01C4' 3000               	movlw	0
  4398  01C5' 0080'              	movwf	(pimf@b+1)^(0+128)
  4399  01C6' 3000               	movlw	0
  4400  01C7' 0080'              	movwf	pimf@b^(0+128)
  4401  01C8' 3042               	movlw	66
  4402  01C9' 0080'              	movwf	(pimf@c+3)^(0+128)
  4403  01CA' 30C8               	movlw	200
  4404  01CB' 0080'              	movwf	(pimf@c+2)^(0+128)
  4405  01CC' 3000               	movlw	0
  4406  01CD' 0080'              	movwf	(pimf@c+1)^(0+128)
  4407  01CE' 3000               	movlw	0
  4408  01CF' 0080'              	movwf	pimf@c^(0+128)
  4409  01D0' 3044               	movlw	68
  4410  01D1' 0080'              	movwf	(pimf@d+3)^(0+128)
  4411  01D2' 307A               	movlw	122
  4412  01D3' 0080'              	movwf	(pimf@d+2)^(0+128)
  4413  01D4' 3000               	movlw	0
  4414  01D5' 0080'              	movwf	(pimf@d+1)^(0+128)
  4415  01D6' 3000               	movlw	0
  4416  01D7' 0080'              	movwf	pimf@d^(0+128)
  4417  01D8' 120A' 118A' 2000' 120A' 118A' 	fcall	_pimf
  4418  01DD' 1683               	bsf	3,5	;RP0=1, select bank1
  4419  01DE' 1303               	bcf	3,6	;RP1=0, select bank1
  4420  01DF' 0800'              	movf	(?_pimf+1)^(0+128),w
  4421  01E0' 1683               	bsf	3,5	;RP0=1, select bank3
  4422  01E1' 1703               	bsf	3,6	;RP1=1, select bank3
  4423  01E2' 0086'              	movwf	((Fuz@B+1)^(0+384)+6)
  4424  01E3' 1683               	bsf	3,5	;RP0=1, select bank1
  4425  01E4' 1303               	bcf	3,6	;RP1=0, select bank1
  4426  01E5' 0800'              	movf	?_pimf^(0+128),w
  4427  01E6' 1683               	bsf	3,5	;RP0=1, select bank3
  4428  01E7' 1703               	bsf	3,6	;RP1=1, select bank3
  4429  01E8' 0086'              	movwf	(Fuz@B^(0+384)+6)
  4430  01E9'                    l3042:	
  4431                           
  4432                           ;./Fuzzy_Lib.h: 88:     for(int j=0;j<=3;j++){
  4433  01E9' 0180'              	clrf	Fuz@j^(0+384)
  4434  01EA' 0180'              	clrf	(Fuz@j+1)^(0+384)
  4435  01EB'                    l3044:	
  4436  01EB' 0800'              	movf	(Fuz@j+1)^(0+384),w
  4437  01EC' 3A80               	xorlw	128
  4438  01ED' 00FF               	movwf	btemp+1
  4439  01EE' 3080               	movlw	128
  4440  01EF' 027F               	subwf	btemp+1,w
  4441  01F0' 1D03               	skipz
  4442  01F1' 2800'              	goto	u4645
  4443  01F2' 3004               	movlw	4
  4444  01F3' 0200'              	subwf	Fuz@j^(0+384),w
  4445  01F4'                    u4645:	
  4446  01F4' 1C03               	skipc
  4447  01F5' 2800'              	goto	u4641
  4448  01F6' 2800'              	goto	u4640
  4449  01F7'                    u4641:	
  4450  01F7' 2800'              	goto	l3048
  4451  01F8'                    u4640:	
  4452  01F8' 120A' 118A' 2800'  	goto	l3070
  4453  01FB'                    l3048:	
  4454                           
  4455                           ;./Fuzzy_Lib.h: 89:   for(int i=0;i<=3;i++){
  4456  01FB' 1683               	bsf	3,5	;RP0=1, select bank3
  4457  01FC' 1703               	bsf	3,6	;RP1=1, select bank3
  4458  01FD' 0180'              	clrf	Fuz@i^(0+384)
  4459  01FE' 0180'              	clrf	(Fuz@i+1)^(0+384)
  4460  01FF'                    l3050:	
  4461  01FF' 0800'              	movf	(Fuz@i+1)^(0+384),w
  4462  0200' 3A80               	xorlw	128
  4463  0201' 00FF               	movwf	btemp+1
  4464  0202' 3080               	movlw	128
  4465  0203' 027F               	subwf	btemp+1,w
  4466  0204' 1D03               	skipz
  4467  0205' 2800'              	goto	u4655
  4468  0206' 3004               	movlw	4
  4469  0207' 0200'              	subwf	Fuz@i^(0+384),w
  4470  0208'                    u4655:	
  4471  0208' 1C03               	skipc
  4472  0209' 2800'              	goto	u4651
  4473  020A' 2800'              	goto	u4650
  4474  020B'                    u4651:	
  4475  020B' 2800'              	goto	l3054
  4476  020C'                    u4650:	
  4477  020C' 2800'              	goto	l3066
  4478  020D'                    l3054:	
  4479                           
  4480                           ;./Fuzzy_Lib.h: 90:    if(A[j]<=B[i]){
  4481  020D' 1683               	bsf	3,5	;RP0=1, select bank3
  4482  020E' 1703               	bsf	3,6	;RP1=1, select bank3
  4483  020F' 0800'              	movf	Fuz@j^(0+384),w
  4484  0210' 1683               	bsf	3,5	;RP0=1, select bank1
  4485  0211' 1303               	bcf	3,6	;RP1=0, select bank1
  4486  0212' 0080'              	movwf	??_Fuz^(0+128)
  4487  0213' 0700'              	addwf	??_Fuz^(0+128),w
  4488  0214' 3E00'              	addlw	(low (Fuz@A| (0+256)))& (0+255)
  4489  0215' 0084               	movwf	4
  4490  0216' 1783               	bsf	3,7	;select IRP bank3
  4491  0217' 0800               	movf	0,w
  4492  0218' 0080'              	movwf	(??_Fuz+1)^(0+128)
  4493  0219' 0A84               	incf	4,f
  4494  021A' 0800               	movf	0,w
  4495  021B' 0081'              	movwf	((??_Fuz+1)^(0+128)+1)
  4496  021C' 1683               	bsf	3,5	;RP0=1, select bank3
  4497  021D' 1703               	bsf	3,6	;RP1=1, select bank3
  4498  021E' 0800'              	movf	Fuz@i^(0+384),w
  4499  021F' 1683               	bsf	3,5	;RP0=1, select bank1
  4500  0220' 1303               	bcf	3,6	;RP1=0, select bank1
  4501  0221' 0080'              	movwf	(??_Fuz+3)^(0+128)
  4502  0222' 0700'              	addwf	(??_Fuz+3)^(0+128),w
  4503  0223' 3E00'              	addlw	(low (Fuz@B| (0+256)))& (0+255)
  4504  0224' 0084               	movwf	4
  4505  0225' 0800               	movf	0,w
  4506  0226' 0080'              	movwf	(??_Fuz+4)^(0+128)
  4507  0227' 0A84               	incf	4,f
  4508  0228' 0800               	movf	0,w
  4509  0229' 0081'              	movwf	((??_Fuz+4)^(0+128)+1)
  4510  022A' 0800'              	movf	(??_Fuz+5)^(0+128),w
  4511  022B' 3A80               	xorlw	128
  4512  022C' 0080'              	movwf	(??_Fuz+6)^(0+128)
  4513  022D' 0800'              	movf	(??_Fuz+2)^(0+128),w
  4514  022E' 3A80               	xorlw	128
  4515  022F' 0200'              	subwf	(??_Fuz+6)^(0+128),w
  4516  0230' 1D03               	skipz
  4517  0231' 2800'              	goto	u4665
  4518  0232' 0800'              	movf	(??_Fuz+1)^(0+128),w
  4519  0233' 0200'              	subwf	(??_Fuz+4)^(0+128),w
  4520  0234'                    u4665:	
  4521  0234' 1C03               	skipc
  4522  0235' 2800'              	goto	u4661
  4523  0236' 2800'              	goto	u4660
  4524  0237'                    u4661:	
  4525  0237' 2800'              	goto	l3058
  4526  0238'                    u4660:	
  4527  0238'                    l3056:	
  4528                           
  4529                           ;./Fuzzy_Lib.h: 91:     Min[n]=A[j];
  4530  0238' 1683               	bsf	3,5	;RP0=1, select bank3
  4531  0239' 1703               	bsf	3,6	;RP1=1, select bank3
  4532  023A' 0800'              	movf	Fuz@j^(0+384),w
  4533  023B' 1683               	bsf	3,5	;RP0=1, select bank1
  4534  023C' 1303               	bcf	3,6	;RP1=0, select bank1
  4535  023D' 0080'              	movwf	??_Fuz^(0+128)
  4536  023E' 0700'              	addwf	??_Fuz^(0+128),w
  4537  023F' 3E00'              	addlw	(low (Fuz@A| (0+256)))& (0+255)
  4538  0240' 0084               	movwf	4
  4539  0241' 1783               	bsf	3,7	;select IRP bank3
  4540  0242' 0800               	movf	0,w
  4541  0243' 0080'              	movwf	(??_Fuz+1)^(0+128)
  4542  0244' 0A84               	incf	4,f
  4543  0245' 0800               	movf	0,w
  4544  0246' 0081'              	movwf	((??_Fuz+1)^(0+128)+1)
  4545  0247' 1683               	bsf	3,5	;RP0=1, select bank3
  4546  0248' 1703               	bsf	3,6	;RP1=1, select bank3
  4547  0249' 0800'              	movf	Fuz@n^(0+384),w
  4548  024A' 1683               	bsf	3,5	;RP0=1, select bank1
  4549  024B' 1303               	bcf	3,6	;RP1=0, select bank1
  4550  024C' 0080'              	movwf	(??_Fuz+3)^(0+128)
  4551  024D' 0700'              	addwf	(??_Fuz+3)^(0+128),w
  4552  024E' 3E00'              	addlw	(low (Fuz@Min| (0+256)))& (0+255)
  4553  024F' 0084               	movwf	4
  4554  0250' 0800'              	movf	(??_Fuz+1)^(0+128),w
  4555  0251' 0080               	movwf	0
  4556  0252' 0A84               	incf	4,f
  4557  0253' 0800'              	movf	(??_Fuz+2)^(0+128),w
  4558  0254' 0080               	movwf	0
  4559                           
  4560                           ;./Fuzzy_Lib.h: 92:     }
  4561  0255' 2800'              	goto	l3060
  4562  0256'                    l3058:	
  4563                           
  4564                           ;./Fuzzy_Lib.h: 94:     Min[n]=B[i];
  4565  0256' 1683               	bsf	3,5	;RP0=1, select bank3
  4566  0257' 1703               	bsf	3,6	;RP1=1, select bank3
  4567  0258' 0800'              	movf	Fuz@i^(0+384),w
  4568  0259' 1683               	bsf	3,5	;RP0=1, select bank1
  4569  025A' 1303               	bcf	3,6	;RP1=0, select bank1
  4570  025B' 0080'              	movwf	??_Fuz^(0+128)
  4571  025C' 0700'              	addwf	??_Fuz^(0+128),w
  4572  025D' 3E00'              	addlw	(low (Fuz@B| (0+256)))& (0+255)
  4573  025E' 0084               	movwf	4
  4574  025F' 1783               	bsf	3,7	;select IRP bank3
  4575  0260' 0800               	movf	0,w
  4576  0261' 0080'              	movwf	(??_Fuz+1)^(0+128)
  4577  0262' 0A84               	incf	4,f
  4578  0263' 0800               	movf	0,w
  4579  0264' 0081'              	movwf	((??_Fuz+1)^(0+128)+1)
  4580  0265' 1683               	bsf	3,5	;RP0=1, select bank3
  4581  0266' 1703               	bsf	3,6	;RP1=1, select bank3
  4582  0267' 0800'              	movf	Fuz@n^(0+384),w
  4583  0268' 1683               	bsf	3,5	;RP0=1, select bank1
  4584  0269' 1303               	bcf	3,6	;RP1=0, select bank1
  4585  026A' 0080'              	movwf	(??_Fuz+3)^(0+128)
  4586  026B' 0700'              	addwf	(??_Fuz+3)^(0+128),w
  4587  026C' 3E00'              	addlw	(low (Fuz@Min| (0+256)))& (0+255)
  4588  026D' 0084               	movwf	4
  4589  026E' 0800'              	movf	(??_Fuz+1)^(0+128),w
  4590  026F' 0080               	movwf	0
  4591  0270' 0A84               	incf	4,f
  4592  0271' 0800'              	movf	(??_Fuz+2)^(0+128),w
  4593  0272' 0080               	movwf	0
  4594  0273'                    l3060:	
  4595                           
  4596                           ;./Fuzzy_Lib.h: 96:             n++;
  4597  0273' 3001               	movlw	1
  4598  0274' 1683               	bsf	3,5	;RP0=1, select bank3
  4599  0275' 1703               	bsf	3,6	;RP1=1, select bank3
  4600  0276' 0780'              	addwf	Fuz@n^(0+384),f
  4601  0277' 1803               	skipnc
  4602  0278' 0A80'              	incf	(Fuz@n+1)^(0+384),f
  4603  0279' 3000               	movlw	0
  4604  027A' 0780'              	addwf	(Fuz@n+1)^(0+384),f
  4605  027B'                    l3062:	
  4606                           
  4607                           ;./Fuzzy_Lib.h: 97:   }
  4608  027B' 3001               	movlw	1
  4609  027C' 0780'              	addwf	Fuz@i^(0+384),f
  4610  027D' 1803               	skipnc
  4611  027E' 0A80'              	incf	(Fuz@i+1)^(0+384),f
  4612  027F' 3000               	movlw	0
  4613  0280' 0780'              	addwf	(Fuz@i+1)^(0+384),f
  4614  0281' 2800'              	goto	l3050
  4615  0282'                    l3066:	
  4616                           
  4617                           ;./Fuzzy_Lib.h: 98:  }
  4618  0282' 3001               	movlw	1
  4619  0283' 1683               	bsf	3,5	;RP0=1, select bank3
  4620  0284' 1703               	bsf	3,6	;RP1=1, select bank3
  4621  0285' 0780'              	addwf	Fuz@j^(0+384),f
  4622  0286' 1803               	skipnc
  4623  0287' 0A80'              	incf	(Fuz@j+1)^(0+384),f
  4624  0288' 3000               	movlw	0
  4625  0289' 0780'              	addwf	(Fuz@j+1)^(0+384),f
  4626  028A' 2800'              	goto	l3044
  4627                           
  4628                           	psect	text18
  4629  0000'                    __ptext18:	
  4630 ;; *************** function _pimf *****************
  4631 ;; Defined at:
  4632 ;;		line 26 in file "./Fuzzy_Lib.h"
  4633 ;; Parameters:    Size  Location     Type
  4634 ;;  x               2   13[BANK1 ] int 
  4635 ;;  a               4   15[BANK1 ] float 
  4636 ;;  b               4   19[BANK1 ] float 
  4637 ;;  c               4   23[BANK1 ] float 
  4638 ;;  d               4   27[BANK1 ] float 
  4639 ;; Auto vars:     Size  Location     Type
  4640 ;;		None
  4641 ;; Return value:  Size  Location     Type
  4642 ;;                  2   13[BANK1 ] int 
  4643 ;; Registers used:
  4644 ;;		wreg, status,2, status,0, btemp+1, pclath, cstack
  4645 ;; Tracked objects:
  4646 ;;		On entry : 0/0
  4647 ;;		On exit  : 0/0
  4648 ;;		Unchanged: 0/0
  4649 ;; Data sizes:     COMMON   BANK0   BANK1   BANK3   BANK2
  4650 ;;      Params:         0       0      18       0       0
  4651 ;;      Locals:         0       0       8       0       0
  4652 ;;      Temps:          0       0       0       0       0
  4653 ;;      Totals:         0       0      26       0       0
  4654 ;;Total ram usage:       26 bytes
  4655 ;; Hardware stack levels used:    1
  4656 ;; Hardware stack levels required when called:    2
  4657 ;; This function calls:
  4658 ;;		___fladd
  4659 ;;		___fldiv
  4660 ;;		___flge
  4661 ;;		___flmul
  4662 ;;		___flsub
  4663 ;;		___fltol
  4664 ;;		___xxtofl
  4665 ;; This function is called by:
  4666 ;;		_Fuz
  4667 ;; This function uses a non-reentrant model
  4668 ;;
  4669                           
  4670                           
  4671                           ;psect for function _pimf
  4672  0000'                    _pimf:	
  4673  0000'                    l2818:	
  4674                           ;incstack = 0
  4675                           ; Regs used in _pimf: [wreg+status,2+status,0+btemp+1+pclath+cstack]
  4676                           
  4677                           
  4678                           ;./Fuzzy_Lib.h: 28:     if (x<=a){
  4679  0000' 1683               	bsf	3,5	;RP0=1, select bank1
  4680  0001' 1303               	bcf	3,6	;RP1=0, select bank1
  4681  0002' 0800'              	movf	(pimf@a+3)^(0+128),w
  4682  0003' 1283               	bcf	3,5	;RP0=0, select bank0
  4683  0004' 1303               	bcf	3,6	;RP1=0, select bank0
  4684  0005' 00BB'              	movwf	___flge@ff1+3
  4685  0006' 1683               	bsf	3,5	;RP0=1, select bank1
  4686  0007' 1303               	bcf	3,6	;RP1=0, select bank1
  4687  0008' 0800'              	movf	(pimf@a+2)^(0+128),w
  4688  0009' 1283               	bcf	3,5	;RP0=0, select bank0
  4689  000A' 1303               	bcf	3,6	;RP1=0, select bank0
  4690  000B' 00BA'              	movwf	___flge@ff1+2
  4691  000C' 1683               	bsf	3,5	;RP0=1, select bank1
  4692  000D' 1303               	bcf	3,6	;RP1=0, select bank1
  4693  000E' 0800'              	movf	(pimf@a+1)^(0+128),w
  4694  000F' 1283               	bcf	3,5	;RP0=0, select bank0
  4695  0010' 1303               	bcf	3,6	;RP1=0, select bank0
  4696  0011' 00B9'              	movwf	___flge@ff1+1
  4697  0012' 1683               	bsf	3,5	;RP0=1, select bank1
  4698  0013' 1303               	bcf	3,6	;RP1=0, select bank1
  4699  0014' 0800'              	movf	pimf@a^(0+128),w
  4700  0015' 1283               	bcf	3,5	;RP0=0, select bank0
  4701  0016' 1303               	bcf	3,6	;RP1=0, select bank0
  4702  0017' 00B8'              	movwf	___flge@ff1
  4703  0018' 1683               	bsf	3,5	;RP0=1, select bank1
  4704  0019' 1303               	bcf	3,6	;RP1=0, select bank1
  4705  001A' 0800'              	movf	pimf@x^(0+128),w
  4706  001B' 0089'              	movwf	___xxtofl@val
  4707  001C' 0800'              	movf	(pimf@x+1)^(0+128),w
  4708  001D' 008A'              	movwf	___xxtofl@val+1
  4709  001E' 3000               	movlw	0
  4710  001F' 1B8A'              	btfsc	___xxtofl@val+1,7
  4711  0020' 30FF               	movlw	255
  4712  0021' 008B'              	movwf	___xxtofl@val+2
  4713  0022' 008C'              	movwf	___xxtofl@val+3
  4714  0023' 3001               	movlw	1
  4715  0024' 120A' 118A' 2000' 120A' 118A' 	fcall	___xxtofl
  4716  0029' 080C'              	movf	?___xxtofl+3,w
  4717  002A' 1283               	bcf	3,5	;RP0=0, select bank0
  4718  002B' 1303               	bcf	3,6	;RP1=0, select bank0
  4719  002C' 00BF'              	movwf	___flge@ff2+3
  4720  002D' 080B'              	movf	?___xxtofl+2,w
  4721  002E' 00BE'              	movwf	___flge@ff2+2
  4722  002F' 080A'              	movf	?___xxtofl+1,w
  4723  0030' 00BD'              	movwf	___flge@ff2+1
  4724  0031' 0809'              	movf	?___xxtofl,w
  4725  0032' 00BC'              	movwf	___flge@ff2
  4726  0033' 120A' 118A' 2000' 120A' 118A' 	fcall	___flge
  4727  0038' 1C03               	btfss	3,0
  4728  0039' 2800'              	goto	u4261
  4729  003A' 2800'              	goto	u4260
  4730  003B'                    u4261:	
  4731  003B' 2800'              	goto	l2822
  4732  003C'                    u4260:	
  4733  003C'                    l2820:	
  4734                           
  4735                           ;./Fuzzy_Lib.h: 29:         f = 0;
  4736  003C' 3000               	movlw	0
  4737  003D' 1683               	bsf	3,5	;RP0=1, select bank3
  4738  003E' 1703               	bsf	3,6	;RP1=1, select bank3
  4739  003F' 0080'              	movwf	(_f+3)^(0+384)
  4740  0040' 3000               	movlw	0
  4741  0041' 0080'              	movwf	(_f+2)^(0+384)
  4742  0042' 3000               	movlw	0
  4743  0043' 0080'              	movwf	(_f+1)^(0+384)
  4744  0044' 3000               	movlw	0
  4745  0045' 0080'              	movwf	_f^(0+384)
  4746  0046'                    L1:	
  4747                           
  4748                           ;./Fuzzy_Lib.h: 30:     }
  4749  0046' 120A' 118A' 2800'  	goto	l2856
  4750  0049'                    l2822:	
  4751  0049' 1683               	bsf	3,5	;RP0=1, select bank1
  4752  004A' 1303               	bcf	3,6	;RP1=0, select bank1
  4753  004B' 0800'              	movf	pimf@x^(0+128),w
  4754  004C' 0089'              	movwf	___xxtofl@val
  4755  004D' 0800'              	movf	(pimf@x+1)^(0+128),w
  4756  004E' 008A'              	movwf	___xxtofl@val+1
  4757  004F' 3000               	movlw	0
  4758  0050' 1B8A'              	btfsc	___xxtofl@val+1,7
  4759  0051' 30FF               	movlw	255
  4760  0052' 008B'              	movwf	___xxtofl@val+2
  4761  0053' 008C'              	movwf	___xxtofl@val+3
  4762  0054' 3001               	movlw	1
  4763  0055' 120A' 118A' 2000' 120A' 118A' 	fcall	___xxtofl
  4764  005A' 080C'              	movf	?___xxtofl+3,w
  4765  005B' 1283               	bcf	3,5	;RP0=0, select bank0
  4766  005C' 1303               	bcf	3,6	;RP1=0, select bank0
  4767  005D' 00BB'              	movwf	___flge@ff1+3
  4768  005E' 080B'              	movf	?___xxtofl+2,w
  4769  005F' 00BA'              	movwf	___flge@ff1+2
  4770  0060' 080A'              	movf	?___xxtofl+1,w
  4771  0061' 00B9'              	movwf	___flge@ff1+1
  4772  0062' 0809'              	movf	?___xxtofl,w
  4773  0063' 00B8'              	movwf	___flge@ff1
  4774  0064' 1683               	bsf	3,5	;RP0=1, select bank1
  4775  0065' 1303               	bcf	3,6	;RP1=0, select bank1
  4776  0066' 0800'              	movf	(pimf@a+3)^(0+128),w
  4777  0067' 1283               	bcf	3,5	;RP0=0, select bank0
  4778  0068' 1303               	bcf	3,6	;RP1=0, select bank0
  4779  0069' 00BF'              	movwf	___flge@ff2+3
  4780  006A' 1683               	bsf	3,5	;RP0=1, select bank1
  4781  006B' 1303               	bcf	3,6	;RP1=0, select bank1
  4782  006C' 0800'              	movf	(pimf@a+2)^(0+128),w
  4783  006D' 1283               	bcf	3,5	;RP0=0, select bank0
  4784  006E' 1303               	bcf	3,6	;RP1=0, select bank0
  4785  006F' 00BE'              	movwf	___flge@ff2+2
  4786  0070' 1683               	bsf	3,5	;RP0=1, select bank1
  4787  0071' 1303               	bcf	3,6	;RP1=0, select bank1
  4788  0072' 0800'              	movf	(pimf@a+1)^(0+128),w
  4789  0073' 1283               	bcf	3,5	;RP0=0, select bank0
  4790  0074' 1303               	bcf	3,6	;RP1=0, select bank0
  4791  0075' 00BD'              	movwf	___flge@ff2+1
  4792  0076' 1683               	bsf	3,5	;RP0=1, select bank1
  4793  0077' 1303               	bcf	3,6	;RP1=0, select bank1
  4794  0078' 0800'              	movf	pimf@a^(0+128),w
  4795  0079' 1283               	bcf	3,5	;RP0=0, select bank0
  4796  007A' 1303               	bcf	3,6	;RP1=0, select bank0
  4797  007B' 00BC'              	movwf	___flge@ff2
  4798  007C' 120A' 118A' 2000' 120A' 118A' 	fcall	___flge
  4799  0081' 1C03               	btfss	3,0
  4800  0082' 2800'              	goto	u4271
  4801  0083' 2800'              	goto	u4270
  4802  0084'                    u4271:	
  4803  0084' 120A' 118A' 2800'  	goto	l2828
  4804  0087'                    u4270:	
  4805  0087'                    l2824:	
  4806  0087' 3040               	movlw	64
  4807  0088' 1283               	bcf	3,5	;RP0=0, select bank0
  4808  0089' 1303               	bcf	3,6	;RP1=0, select bank0
  4809  008A' 008D'              	movwf	___fldiv@a+3
  4810  008B' 3000               	movlw	0
  4811  008C' 008C'              	movwf	___fldiv@a+2
  4812  008D' 3000               	movlw	0
  4813  008E' 008B'              	movwf	___fldiv@a+1
  4814  008F' 3000               	movlw	0
  4815  0090' 008A'              	movwf	___fldiv@a
  4816  0091' 1683               	bsf	3,5	;RP0=1, select bank1
  4817  0092' 1303               	bcf	3,6	;RP1=0, select bank1
  4818  0093' 0800'              	movf	(pimf@b+3)^(0+128),w
  4819  0094' 1283               	bcf	3,5	;RP0=0, select bank0
  4820  0095' 1303               	bcf	3,6	;RP1=0, select bank0
  4821  0096' 00A7'              	movwf	___fladd@b+3
  4822  0097' 1683               	bsf	3,5	;RP0=1, select bank1
  4823  0098' 1303               	bcf	3,6	;RP1=0, select bank1
  4824  0099' 0800'              	movf	(pimf@b+2)^(0+128),w
  4825  009A' 1283               	bcf	3,5	;RP0=0, select bank0
  4826  009B' 1303               	bcf	3,6	;RP1=0, select bank0
  4827  009C' 00A6'              	movwf	___fladd@b+2
  4828  009D' 1683               	bsf	3,5	;RP0=1, select bank1
  4829  009E' 1303               	bcf	3,6	;RP1=0, select bank1
  4830  009F' 0800'              	movf	(pimf@b+1)^(0+128),w
  4831  00A0' 1283               	bcf	3,5	;RP0=0, select bank0
  4832  00A1' 1303               	bcf	3,6	;RP1=0, select bank0
  4833  00A2' 00A5'              	movwf	___fladd@b+1
  4834  00A3' 1683               	bsf	3,5	;RP0=1, select bank1
  4835  00A4' 1303               	bcf	3,6	;RP1=0, select bank1
  4836  00A5' 0800'              	movf	pimf@b^(0+128),w
  4837  00A6' 1283               	bcf	3,5	;RP0=0, select bank0
  4838  00A7' 1303               	bcf	3,6	;RP1=0, select bank0
  4839  00A8' 00A4'              	movwf	___fladd@b
  4840  00A9' 1683               	bsf	3,5	;RP0=1, select bank1
  4841  00AA' 1303               	bcf	3,6	;RP1=0, select bank1
  4842  00AB' 0800'              	movf	(pimf@a+3)^(0+128),w
  4843  00AC' 1283               	bcf	3,5	;RP0=0, select bank0
  4844  00AD' 1303               	bcf	3,6	;RP1=0, select bank0
  4845  00AE' 00AB'              	movwf	___fladd@a+3
  4846  00AF' 1683               	bsf	3,5	;RP0=1, select bank1
  4847  00B0' 1303               	bcf	3,6	;RP1=0, select bank1
  4848  00B1' 0800'              	movf	(pimf@a+2)^(0+128),w
  4849  00B2' 1283               	bcf	3,5	;RP0=0, select bank0
  4850  00B3' 1303               	bcf	3,6	;RP1=0, select bank0
  4851  00B4' 00AA'              	movwf	___fladd@a+2
  4852  00B5' 1683               	bsf	3,5	;RP0=1, select bank1
  4853  00B6' 1303               	bcf	3,6	;RP1=0, select bank1
  4854  00B7' 0800'              	movf	(pimf@a+1)^(0+128),w
  4855  00B8' 1283               	bcf	3,5	;RP0=0, select bank0
  4856  00B9' 1303               	bcf	3,6	;RP1=0, select bank0
  4857  00BA' 00A9'              	movwf	___fladd@a+1
  4858  00BB' 1683               	bsf	3,5	;RP0=1, select bank1
  4859  00BC' 1303               	bcf	3,6	;RP1=0, select bank1
  4860  00BD' 0800'              	movf	pimf@a^(0+128),w
  4861  00BE' 1283               	bcf	3,5	;RP0=0, select bank0
  4862  00BF' 1303               	bcf	3,6	;RP1=0, select bank0
  4863  00C0' 00A8'              	movwf	___fladd@a
  4864  00C1' 120A' 118A' 2000' 120A' 118A' 	fcall	___fladd
  4865  00C6' 1283               	bcf	3,5	;RP0=0, select bank0
  4866  00C7' 1303               	bcf	3,6	;RP1=0, select bank0
  4867  00C8' 0827'              	movf	?___fladd+3,w
  4868  00C9' 0091'              	movwf	___fldiv@b+3
  4869  00CA' 0826'              	movf	?___fladd+2,w
  4870  00CB' 0090'              	movwf	___fldiv@b+2
  4871  00CC' 0825'              	movf	?___fladd+1,w
  4872  00CD' 008F'              	movwf	___fldiv@b+1
  4873  00CE' 0824'              	movf	?___fladd,w
  4874  00CF' 008E'              	movwf	___fldiv@b
  4875  00D0' 120A' 118A' 2000' 120A' 118A' 	fcall	___fldiv
  4876  00D5' 1283               	bcf	3,5	;RP0=0, select bank0
  4877  00D6' 1303               	bcf	3,6	;RP1=0, select bank0
  4878  00D7' 080D'              	movf	?___fldiv+3,w
  4879  00D8' 00BB'              	movwf	___flge@ff1+3
  4880  00D9' 080C'              	movf	?___fldiv+2,w
  4881  00DA' 00BA'              	movwf	___flge@ff1+2
  4882  00DB' 080B'              	movf	?___fldiv+1,w
  4883  00DC' 00B9'              	movwf	___flge@ff1+1
  4884  00DD' 080A'              	movf	?___fldiv,w
  4885  00DE' 00B8'              	movwf	___flge@ff1
  4886  00DF' 1683               	bsf	3,5	;RP0=1, select bank1
  4887  00E0' 1303               	bcf	3,6	;RP1=0, select bank1
  4888  00E1' 0800'              	movf	pimf@x^(0+128),w
  4889  00E2' 0089'              	movwf	___xxtofl@val
  4890  00E3' 0800'              	movf	(pimf@x+1)^(0+128),w
  4891  00E4' 008A'              	movwf	___xxtofl@val+1
  4892  00E5' 3000               	movlw	0
  4893  00E6' 1B8A'              	btfsc	___xxtofl@val+1,7
  4894  00E7' 30FF               	movlw	255
  4895  00E8' 008B'              	movwf	___xxtofl@val+2
  4896  00E9' 008C'              	movwf	___xxtofl@val+3
  4897  00EA' 3001               	movlw	1
  4898  00EB' 120A' 118A' 2000' 120A' 118A' 	fcall	___xxtofl
  4899  00F0' 080C'              	movf	?___xxtofl+3,w
  4900  00F1' 1283               	bcf	3,5	;RP0=0, select bank0
  4901  00F2' 1303               	bcf	3,6	;RP1=0, select bank0
  4902  00F3' 00BF'              	movwf	___flge@ff2+3
  4903  00F4' 080B'              	movf	?___xxtofl+2,w
  4904  00F5' 00BE'              	movwf	___flge@ff2+2
  4905  00F6' 080A'              	movf	?___xxtofl+1,w
  4906  00F7' 00BD'              	movwf	___flge@ff2+1
  4907  00F8' 0809'              	movf	?___xxtofl,w
  4908  00F9' 00BC'              	movwf	___flge@ff2
  4909  00FA' 120A' 118A' 2000' 120A' 118A' 	fcall	___flge
  4910  00FF' 1C03               	btfss	3,0
  4911  0100' 2800'              	goto	u4281
  4912  0101' 2800'              	goto	u4280
  4913  0102'                    u4281:	
  4914  0102' 2800'              	goto	u4271
  4915  0103'                    u4280:	
  4916  0103'                    l2826:	
  4917                           
  4918                           ;./Fuzzy_Lib.h: 32:         f = 2*((x-a)/(b-a))*((x-a)/(b-a))*100;
  4919  0103' 3040               	movlw	64
  4920  0104' 1283               	bcf	3,5	;RP0=0, select bank0
  4921  0105' 1303               	bcf	3,6	;RP1=0, select bank0
  4922  0106' 00C3'              	movwf	___flmul@b+3
  4923  0107' 3000               	movlw	0
  4924  0108' 00C2'              	movwf	___flmul@b+2
  4925  0109' 3000               	movlw	0
  4926  010A' 00C1'              	movwf	___flmul@b+1
  4927  010B' 3000               	movlw	0
  4928  010C' 00C0'              	movwf	___flmul@b
  4929  010D' 1683               	bsf	3,5	;RP0=1, select bank1
  4930  010E' 1303               	bcf	3,6	;RP1=0, select bank1
  4931  010F' 0800'              	movf	(pimf@a+3)^(0+128),w
  4932  0110' 1283               	bcf	3,5	;RP0=0, select bank0
  4933  0111' 1303               	bcf	3,6	;RP1=0, select bank0
  4934  0112' 00BB'              	movwf	___flsub@a+3
  4935  0113' 1683               	bsf	3,5	;RP0=1, select bank1
  4936  0114' 1303               	bcf	3,6	;RP1=0, select bank1
  4937  0115' 0800'              	movf	(pimf@a+2)^(0+128),w
  4938  0116' 1283               	bcf	3,5	;RP0=0, select bank0
  4939  0117' 1303               	bcf	3,6	;RP1=0, select bank0
  4940  0118' 00BA'              	movwf	___flsub@a+2
  4941  0119' 1683               	bsf	3,5	;RP0=1, select bank1
  4942  011A' 1303               	bcf	3,6	;RP1=0, select bank1
  4943  011B' 0800'              	movf	(pimf@a+1)^(0+128),w
  4944  011C' 1283               	bcf	3,5	;RP0=0, select bank0
  4945  011D' 1303               	bcf	3,6	;RP1=0, select bank0
  4946  011E' 00B9'              	movwf	___flsub@a+1
  4947  011F' 1683               	bsf	3,5	;RP0=1, select bank1
  4948  0120' 1303               	bcf	3,6	;RP1=0, select bank1
  4949  0121' 0800'              	movf	pimf@a^(0+128),w
  4950  0122' 1283               	bcf	3,5	;RP0=0, select bank0
  4951  0123' 1303               	bcf	3,6	;RP1=0, select bank0
  4952  0124' 00B8'              	movwf	___flsub@a
  4953  0125' 1683               	bsf	3,5	;RP0=1, select bank1
  4954  0126' 1303               	bcf	3,6	;RP1=0, select bank1
  4955  0127' 0800'              	movf	(pimf@b+3)^(0+128),w
  4956  0128' 1283               	bcf	3,5	;RP0=0, select bank0
  4957  0129' 1303               	bcf	3,6	;RP1=0, select bank0
  4958  012A' 00BF'              	movwf	___flsub@b+3
  4959  012B' 1683               	bsf	3,5	;RP0=1, select bank1
  4960  012C' 1303               	bcf	3,6	;RP1=0, select bank1
  4961  012D' 0800'              	movf	(pimf@b+2)^(0+128),w
  4962  012E' 1283               	bcf	3,5	;RP0=0, select bank0
  4963  012F' 1303               	bcf	3,6	;RP1=0, select bank0
  4964  0130' 00BE'              	movwf	___flsub@b+2
  4965  0131' 1683               	bsf	3,5	;RP0=1, select bank1
  4966  0132' 1303               	bcf	3,6	;RP1=0, select bank1
  4967  0133' 0800'              	movf	(pimf@b+1)^(0+128),w
  4968  0134' 1283               	bcf	3,5	;RP0=0, select bank0
  4969  0135' 1303               	bcf	3,6	;RP1=0, select bank0
  4970  0136' 00BD'              	movwf	___flsub@b+1
  4971  0137' 1683               	bsf	3,5	;RP0=1, select bank1
  4972  0138' 1303               	bcf	3,6	;RP1=0, select bank1
  4973  0139' 0800'              	movf	pimf@b^(0+128),w
  4974  013A' 1283               	bcf	3,5	;RP0=0, select bank0
  4975  013B' 1303               	bcf	3,6	;RP1=0, select bank0
  4976  013C' 00BC'              	movwf	___flsub@b
  4977  013D' 120A' 118A' 2000' 120A' 118A' 	fcall	___flsub
  4978  0142' 1283               	bcf	3,5	;RP0=0, select bank0
  4979  0143' 1303               	bcf	3,6	;RP1=0, select bank0
  4980  0144' 083B'              	movf	?___flsub+3,w
  4981  0145' 008D'              	movwf	___fldiv@a+3
  4982  0146' 083A'              	movf	?___flsub+2,w
  4983  0147' 008C'              	movwf	___fldiv@a+2
  4984  0148' 0839'              	movf	?___flsub+1,w
  4985  0149' 008B'              	movwf	___fldiv@a+1
  4986  014A' 0838'              	movf	?___flsub,w
  4987  014B' 008A'              	movwf	___fldiv@a
  4988  014C' 1683               	bsf	3,5	;RP0=1, select bank1
  4989  014D' 1303               	bcf	3,6	;RP1=0, select bank1
  4990  014E' 0800'              	movf	(pimf@a+3)^(0+128),w
  4991  014F' 1283               	bcf	3,5	;RP0=0, select bank0
  4992  0150' 1303               	bcf	3,6	;RP1=0, select bank0
  4993  0151' 00BB'              	movwf	___flsub@a+3
  4994  0152' 1683               	bsf	3,5	;RP0=1, select bank1
  4995  0153' 1303               	bcf	3,6	;RP1=0, select bank1
  4996  0154' 0800'              	movf	(pimf@a+2)^(0+128),w
  4997  0155' 1283               	bcf	3,5	;RP0=0, select bank0
  4998  0156' 1303               	bcf	3,6	;RP1=0, select bank0
  4999  0157' 00BA'              	movwf	___flsub@a+2
  5000  0158' 1683               	bsf	3,5	;RP0=1, select bank1
  5001  0159' 1303               	bcf	3,6	;RP1=0, select bank1
  5002  015A' 0800'              	movf	(pimf@a+1)^(0+128),w
  5003  015B' 1283               	bcf	3,5	;RP0=0, select bank0
  5004  015C' 1303               	bcf	3,6	;RP1=0, select bank0
  5005  015D' 00B9'              	movwf	___flsub@a+1
  5006  015E' 1683               	bsf	3,5	;RP0=1, select bank1
  5007  015F' 1303               	bcf	3,6	;RP1=0, select bank1
  5008  0160' 0800'              	movf	pimf@a^(0+128),w
  5009  0161' 1283               	bcf	3,5	;RP0=0, select bank0
  5010  0162' 1303               	bcf	3,6	;RP1=0, select bank0
  5011  0163' 00B8'              	movwf	___flsub@a
  5012  0164' 1683               	bsf	3,5	;RP0=1, select bank1
  5013  0165' 1303               	bcf	3,6	;RP1=0, select bank1
  5014  0166' 0800'              	movf	pimf@x^(0+128),w
  5015  0167' 0089'              	movwf	___xxtofl@val
  5016  0168' 0800'              	movf	(pimf@x+1)^(0+128),w
  5017  0169' 008A'              	movwf	___xxtofl@val+1
  5018  016A' 3000               	movlw	0
  5019  016B' 1B8A'              	btfsc	___xxtofl@val+1,7
  5020  016C' 30FF               	movlw	255
  5021  016D' 008B'              	movwf	___xxtofl@val+2
  5022  016E' 008C'              	movwf	___xxtofl@val+3
  5023  016F' 3001               	movlw	1
  5024  0170' 120A' 118A' 2000' 120A' 118A' 	fcall	___xxtofl
  5025  0175' 080C'              	movf	?___xxtofl+3,w
  5026  0176' 1283               	bcf	3,5	;RP0=0, select bank0
  5027  0177' 1303               	bcf	3,6	;RP1=0, select bank0
  5028  0178' 00BF'              	movwf	___flsub@b+3
  5029  0179' 080B'              	movf	?___xxtofl+2,w
  5030  017A' 00BE'              	movwf	___flsub@b+2
  5031  017B' 080A'              	movf	?___xxtofl+1,w
  5032  017C' 00BD'              	movwf	___flsub@b+1
  5033  017D' 0809'              	movf	?___xxtofl,w
  5034  017E' 00BC'              	movwf	___flsub@b
  5035  017F' 120A' 118A' 2000' 120A' 118A' 	fcall	___flsub
  5036  0184' 1283               	bcf	3,5	;RP0=0, select bank0
  5037  0185' 1303               	bcf	3,6	;RP1=0, select bank0
  5038  0186' 083B'              	movf	?___flsub+3,w
  5039  0187' 0091'              	movwf	___fldiv@b+3
  5040  0188' 083A'              	movf	?___flsub+2,w
  5041  0189' 0090'              	movwf	___fldiv@b+2
  5042  018A' 0839'              	movf	?___flsub+1,w
  5043  018B' 008F'              	movwf	___fldiv@b+1
  5044  018C' 0838'              	movf	?___flsub,w
  5045  018D' 008E'              	movwf	___fldiv@b
  5046  018E' 120A' 118A' 2000' 120A' 118A' 	fcall	___fldiv
  5047  0193' 1283               	bcf	3,5	;RP0=0, select bank0
  5048  0194' 1303               	bcf	3,6	;RP1=0, select bank0
  5049  0195' 080D'              	movf	?___fldiv+3,w
  5050  0196' 00C7'              	movwf	___flmul@a+3
  5051  0197' 080C'              	movf	?___fldiv+2,w
  5052  0198' 00C6'              	movwf	___flmul@a+2
  5053  0199' 080B'              	movf	?___fldiv+1,w
  5054  019A' 00C5'              	movwf	___flmul@a+1
  5055  019B' 080A'              	movf	?___fldiv,w
  5056  019C' 00C4'              	movwf	___flmul@a
  5057  019D' 120A' 118A' 2000' 120A' 118A' 	fcall	___flmul
  5058  01A2' 1283               	bcf	3,5	;RP0=0, select bank0
  5059  01A3' 1303               	bcf	3,6	;RP1=0, select bank0
  5060  01A4' 0843'              	movf	?___flmul+3,w
  5061  01A5' 1683               	bsf	3,5	;RP0=1, select bank1
  5062  01A6' 1303               	bcf	3,6	;RP1=0, select bank1
  5063  01A7' 0080'              	movwf	(_pimf$823+3)^(0+128)
  5064  01A8' 1283               	bcf	3,5	;RP0=0, select bank0
  5065  01A9' 1303               	bcf	3,6	;RP1=0, select bank0
  5066  01AA' 0842'              	movf	?___flmul+2,w
  5067  01AB' 1683               	bsf	3,5	;RP0=1, select bank1
  5068  01AC' 1303               	bcf	3,6	;RP1=0, select bank1
  5069  01AD' 0080'              	movwf	(_pimf$823+2)^(0+128)
  5070  01AE' 1283               	bcf	3,5	;RP0=0, select bank0
  5071  01AF' 1303               	bcf	3,6	;RP1=0, select bank0
  5072  01B0' 0841'              	movf	?___flmul+1,w
  5073  01B1' 1683               	bsf	3,5	;RP0=1, select bank1
  5074  01B2' 1303               	bcf	3,6	;RP1=0, select bank1
  5075  01B3' 0080'              	movwf	(_pimf$823+1)^(0+128)
  5076  01B4' 1283               	bcf	3,5	;RP0=0, select bank0
  5077  01B5' 1303               	bcf	3,6	;RP1=0, select bank0
  5078  01B6' 0840'              	movf	?___flmul,w
  5079  01B7' 1683               	bsf	3,5	;RP0=1, select bank1
  5080  01B8' 1303               	bcf	3,6	;RP1=0, select bank1
  5081  01B9' 0080'              	movwf	_pimf$823^(0+128)
  5082                           
  5083                           ;./Fuzzy_Lib.h: 32:         f = 2*((x-a)/(b-a))*((x-a)/(b-a))*100;
  5084  01BA' 0800'              	movf	(pimf@a+3)^(0+128),w
  5085  01BB' 1283               	bcf	3,5	;RP0=0, select bank0
  5086  01BC' 1303               	bcf	3,6	;RP1=0, select bank0
  5087  01BD' 00BB'              	movwf	___flsub@a+3
  5088  01BE' 1683               	bsf	3,5	;RP0=1, select bank1
  5089  01BF' 1303               	bcf	3,6	;RP1=0, select bank1
  5090  01C0' 0800'              	movf	(pimf@a+2)^(0+128),w
  5091  01C1' 1283               	bcf	3,5	;RP0=0, select bank0
  5092  01C2' 1303               	bcf	3,6	;RP1=0, select bank0
  5093  01C3' 00BA'              	movwf	___flsub@a+2
  5094  01C4' 1683               	bsf	3,5	;RP0=1, select bank1
  5095  01C5' 1303               	bcf	3,6	;RP1=0, select bank1
  5096  01C6' 0800'              	movf	(pimf@a+1)^(0+128),w
  5097  01C7' 1283               	bcf	3,5	;RP0=0, select bank0
  5098  01C8' 1303               	bcf	3,6	;RP1=0, select bank0
  5099  01C9' 00B9'              	movwf	___flsub@a+1
  5100  01CA' 1683               	bsf	3,5	;RP0=1, select bank1
  5101  01CB' 1303               	bcf	3,6	;RP1=0, select bank1
  5102  01CC' 0800'              	movf	pimf@a^(0+128),w
  5103  01CD' 1283               	bcf	3,5	;RP0=0, select bank0
  5104  01CE' 1303               	bcf	3,6	;RP1=0, select bank0
  5105  01CF' 00B8'              	movwf	___flsub@a
  5106  01D0' 1683               	bsf	3,5	;RP0=1, select bank1
  5107  01D1' 1303               	bcf	3,6	;RP1=0, select bank1
  5108  01D2' 0800'              	movf	(pimf@b+3)^(0+128),w
  5109  01D3' 1283               	bcf	3,5	;RP0=0, select bank0
  5110  01D4' 1303               	bcf	3,6	;RP1=0, select bank0
  5111  01D5' 00BF'              	movwf	___flsub@b+3
  5112  01D6' 1683               	bsf	3,5	;RP0=1, select bank1
  5113  01D7' 1303               	bcf	3,6	;RP1=0, select bank1
  5114  01D8' 0800'              	movf	(pimf@b+2)^(0+128),w
  5115  01D9' 1283               	bcf	3,5	;RP0=0, select bank0
  5116  01DA' 1303               	bcf	3,6	;RP1=0, select bank0
  5117  01DB' 00BE'              	movwf	___flsub@b+2
  5118  01DC' 1683               	bsf	3,5	;RP0=1, select bank1
  5119  01DD' 1303               	bcf	3,6	;RP1=0, select bank1
  5120  01DE' 0800'              	movf	(pimf@b+1)^(0+128),w
  5121  01DF' 1283               	bcf	3,5	;RP0=0, select bank0
  5122  01E0' 1303               	bcf	3,6	;RP1=0, select bank0
  5123  01E1' 00BD'              	movwf	___flsub@b+1
  5124  01E2' 1683               	bsf	3,5	;RP0=1, select bank1
  5125  01E3' 1303               	bcf	3,6	;RP1=0, select bank1
  5126  01E4' 0800'              	movf	pimf@b^(0+128),w
  5127  01E5' 1283               	bcf	3,5	;RP0=0, select bank0
  5128  01E6' 1303               	bcf	3,6	;RP1=0, select bank0
  5129  01E7' 00BC'              	movwf	___flsub@b
  5130  01E8' 120A' 118A' 2000' 120A' 118A' 	fcall	___flsub
  5131  01ED' 1283               	bcf	3,5	;RP0=0, select bank0
  5132  01EE' 1303               	bcf	3,6	;RP1=0, select bank0
  5133  01EF' 083B'              	movf	?___flsub+3,w
  5134  01F0' 008D'              	movwf	___fldiv@a+3
  5135  01F1' 083A'              	movf	?___flsub+2,w
  5136  01F2' 008C'              	movwf	___fldiv@a+2
  5137  01F3' 0839'              	movf	?___flsub+1,w
  5138  01F4' 008B'              	movwf	___fldiv@a+1
  5139  01F5' 0838'              	movf	?___flsub,w
  5140  01F6' 008A'              	movwf	___fldiv@a
  5141  01F7' 1683               	bsf	3,5	;RP0=1, select bank1
  5142  01F8' 1303               	bcf	3,6	;RP1=0, select bank1
  5143  01F9' 0800'              	movf	(pimf@a+3)^(0+128),w
  5144  01FA' 1283               	bcf	3,5	;RP0=0, select bank0
  5145  01FB' 1303               	bcf	3,6	;RP1=0, select bank0
  5146  01FC' 00BB'              	movwf	___flsub@a+3
  5147  01FD' 1683               	bsf	3,5	;RP0=1, select bank1
  5148  01FE' 1303               	bcf	3,6	;RP1=0, select bank1
  5149  01FF' 0800'              	movf	(pimf@a+2)^(0+128),w
  5150  0200' 1283               	bcf	3,5	;RP0=0, select bank0
  5151  0201' 1303               	bcf	3,6	;RP1=0, select bank0
  5152  0202' 00BA'              	movwf	___flsub@a+2
  5153  0203' 1683               	bsf	3,5	;RP0=1, select bank1
  5154  0204' 1303               	bcf	3,6	;RP1=0, select bank1
  5155  0205' 0800'              	movf	(pimf@a+1)^(0+128),w
  5156  0206' 1283               	bcf	3,5	;RP0=0, select bank0
  5157  0207' 1303               	bcf	3,6	;RP1=0, select bank0
  5158  0208' 00B9'              	movwf	___flsub@a+1
  5159  0209' 1683               	bsf	3,5	;RP0=1, select bank1
  5160  020A' 1303               	bcf	3,6	;RP1=0, select bank1
  5161  020B' 0800'              	movf	pimf@a^(0+128),w
  5162  020C' 1283               	bcf	3,5	;RP0=0, select bank0
  5163  020D' 1303               	bcf	3,6	;RP1=0, select bank0
  5164  020E' 00B8'              	movwf	___flsub@a
  5165  020F' 1683               	bsf	3,5	;RP0=1, select bank1
  5166  0210' 1303               	bcf	3,6	;RP1=0, select bank1
  5167  0211' 0800'              	movf	pimf@x^(0+128),w
  5168  0212' 0089'              	movwf	___xxtofl@val
  5169  0213' 0800'              	movf	(pimf@x+1)^(0+128),w
  5170  0214' 008A'              	movwf	___xxtofl@val+1
  5171  0215' 3000               	movlw	0
  5172  0216' 1B8A'              	btfsc	___xxtofl@val+1,7
  5173  0217' 30FF               	movlw	255
  5174  0218' 008B'              	movwf	___xxtofl@val+2
  5175  0219' 008C'              	movwf	___xxtofl@val+3
  5176  021A' 3001               	movlw	1
  5177  021B' 120A' 118A' 2000' 120A' 118A' 	fcall	___xxtofl
  5178  0220' 080C'              	movf	?___xxtofl+3,w
  5179  0221' 1283               	bcf	3,5	;RP0=0, select bank0
  5180  0222' 1303               	bcf	3,6	;RP1=0, select bank0
  5181  0223' 00BF'              	movwf	___flsub@b+3
  5182  0224' 080B'              	movf	?___xxtofl+2,w
  5183  0225' 00BE'              	movwf	___flsub@b+2
  5184  0226' 080A'              	movf	?___xxtofl+1,w
  5185  0227' 00BD'              	movwf	___flsub@b+1
  5186  0228' 0809'              	movf	?___xxtofl,w
  5187  0229' 00BC'              	movwf	___flsub@b
  5188  022A' 120A' 118A' 2000' 120A' 118A' 	fcall	___flsub
  5189  022F' 1283               	bcf	3,5	;RP0=0, select bank0
  5190  0230' 1303               	bcf	3,6	;RP1=0, select bank0
  5191  0231' 083B'              	movf	?___flsub+3,w
  5192  0232' 0091'              	movwf	___fldiv@b+3
  5193  0233' 083A'              	movf	?___flsub+2,w
  5194  0234' 0090'              	movwf	___fldiv@b+2
  5195  0235' 0839'              	movf	?___flsub+1,w
  5196  0236' 008F'              	movwf	___fldiv@b+1
  5197  0237' 0838'              	movf	?___flsub,w
  5198  0238' 008E'              	movwf	___fldiv@b
  5199  0239' 120A' 118A' 2000' 120A' 118A' 	fcall	___fldiv
  5200  023E' 1283               	bcf	3,5	;RP0=0, select bank0
  5201  023F' 1303               	bcf	3,6	;RP1=0, select bank0
  5202  0240' 080D'              	movf	?___fldiv+3,w
  5203  0241' 00C3'              	movwf	___flmul@b+3
  5204  0242' 080C'              	movf	?___fldiv+2,w
  5205  0243' 00C2'              	movwf	___flmul@b+2
  5206  0244' 080B'              	movf	?___fldiv+1,w
  5207  0245' 00C1'              	movwf	___flmul@b+1
  5208  0246' 080A'              	movf	?___fldiv,w
  5209  0247' 00C0'              	movwf	___flmul@b
  5210  0248' 1683               	bsf	3,5	;RP0=1, select bank1
  5211  0249' 1303               	bcf	3,6	;RP1=0, select bank1
  5212  024A' 0800'              	movf	(_pimf$823+3)^(0+128),w
  5213  024B' 1283               	bcf	3,5	;RP0=0, select bank0
  5214  024C' 1303               	bcf	3,6	;RP1=0, select bank0
  5215  024D' 00C7'              	movwf	___flmul@a+3
  5216  024E' 1683               	bsf	3,5	;RP0=1, select bank1
  5217  024F' 1303               	bcf	3,6	;RP1=0, select bank1
  5218  0250' 0800'              	movf	(_pimf$823+2)^(0+128),w
  5219  0251' 1283               	bcf	3,5	;RP0=0, select bank0
  5220  0252' 1303               	bcf	3,6	;RP1=0, select bank0
  5221  0253' 00C6'              	movwf	___flmul@a+2
  5222  0254' 1683               	bsf	3,5	;RP0=1, select bank1
  5223  0255' 1303               	bcf	3,6	;RP1=0, select bank1
  5224  0256' 0800'              	movf	(_pimf$823+1)^(0+128),w
  5225  0257' 1283               	bcf	3,5	;RP0=0, select bank0
  5226  0258' 1303               	bcf	3,6	;RP1=0, select bank0
  5227  0259' 00C5'              	movwf	___flmul@a+1
  5228  025A' 1683               	bsf	3,5	;RP0=1, select bank1
  5229  025B' 1303               	bcf	3,6	;RP1=0, select bank1
  5230  025C' 0800'              	movf	_pimf$823^(0+128),w
  5231  025D' 1283               	bcf	3,5	;RP0=0, select bank0
  5232  025E' 1303               	bcf	3,6	;RP1=0, select bank0
  5233  025F' 00C4'              	movwf	___flmul@a
  5234  0260' 120A' 118A' 2000' 120A' 118A' 	fcall	___flmul
  5235  0265' 1283               	bcf	3,5	;RP0=0, select bank0
  5236  0266' 1303               	bcf	3,6	;RP1=0, select bank0
  5237  0267' 0843'              	movf	?___flmul+3,w
  5238  0268' 1683               	bsf	3,5	;RP0=1, select bank1
  5239  0269' 1303               	bcf	3,6	;RP1=0, select bank1
  5240  026A' 0080'              	movwf	(_pimf$824+3)^(0+128)
  5241  026B' 1283               	bcf	3,5	;RP0=0, select bank0
  5242  026C' 1303               	bcf	3,6	;RP1=0, select bank0
  5243  026D' 0842'              	movf	?___flmul+2,w
  5244  026E' 1683               	bsf	3,5	;RP0=1, select bank1
  5245  026F' 1303               	bcf	3,6	;RP1=0, select bank1
  5246  0270' 0080'              	movwf	(_pimf$824+2)^(0+128)
  5247  0271' 1283               	bcf	3,5	;RP0=0, select bank0
  5248  0272' 1303               	bcf	3,6	;RP1=0, select bank0
  5249  0273' 0841'              	movf	?___flmul+1,w
  5250  0274' 1683               	bsf	3,5	;RP0=1, select bank1
  5251  0275' 1303               	bcf	3,6	;RP1=0, select bank1
  5252  0276' 0080'              	movwf	(_pimf$824+1)^(0+128)
  5253  0277' 1283               	bcf	3,5	;RP0=0, select bank0
  5254  0278' 1303               	bcf	3,6	;RP1=0, select bank0
  5255  0279' 0840'              	movf	?___flmul,w
  5256  027A' 1683               	bsf	3,5	;RP0=1, select bank1
  5257  027B' 1303               	bcf	3,6	;RP1=0, select bank1
  5258  027C' 0080'              	movwf	_pimf$824^(0+128)
  5259                           
  5260                           ;./Fuzzy_Lib.h: 32:         f = 2*((x-a)/(b-a))*((x-a)/(b-a))*100;
  5261  027D' 3042               	movlw	66
  5262  027E' 1283               	bcf	3,5	;RP0=0, select bank0
  5263  027F' 1303               	bcf	3,6	;RP1=0, select bank0
  5264  0280' 00C3'              	movwf	___flmul@b+3
  5265  0281' 30C8               	movlw	200
  5266  0282' 00C2'              	movwf	___flmul@b+2
  5267  0283' 3000               	movlw	0
  5268  0284' 00C1'              	movwf	___flmul@b+1
  5269  0285' 3000               	movlw	0
  5270  0286' 00C0'              	movwf	___flmul@b
  5271  0287' 1683               	bsf	3,5	;RP0=1, select bank1
  5272  0288' 1303               	bcf	3,6	;RP1=0, select bank1
  5273  0289' 0800'              	movf	(_pimf$824+3)^(0+128),w
  5274  028A' 1283               	bcf	3,5	;RP0=0, select bank0
  5275  028B' 1303               	bcf	3,6	;RP1=0, select bank0
  5276  028C' 00C7'              	movwf	___flmul@a+3
  5277  028D' 1683               	bsf	3,5	;RP0=1, select bank1
  5278  028E' 1303               	bcf	3,6	;RP1=0, select bank1
  5279  028F' 0800'              	movf	(_pimf$824+2)^(0+128),w
  5280  0290' 1283               	bcf	3,5	;RP0=0, select bank0
  5281  0291' 1303               	bcf	3,6	;RP1=0, select bank0
  5282  0292' 00C6'              	movwf	___flmul@a+2
  5283  0293' 1683               	bsf	3,5	;RP0=1, select bank1
  5284  0294' 1303               	bcf	3,6	;RP1=0, select bank1
  5285  0295' 0800'              	movf	(_pimf$824+1)^(0+128),w
  5286  0296' 1283               	bcf	3,5	;RP0=0, select bank0
  5287  0297' 1303               	bcf	3,6	;RP1=0, select bank0
  5288  0298' 00C5'              	movwf	___flmul@a+1
  5289  0299' 1683               	bsf	3,5	;RP0=1, select bank1
  5290  029A' 1303               	bcf	3,6	;RP1=0, select bank1
  5291  029B' 0800'              	movf	_pimf$824^(0+128),w
  5292  029C' 1283               	bcf	3,5	;RP0=0, select bank0
  5293  029D' 1303               	bcf	3,6	;RP1=0, select bank0
  5294  029E' 00C4'              	movwf	___flmul@a
  5295  029F' 120A' 118A' 2000' 120A' 118A' 	fcall	___flmul
  5296  02A4' 1283               	bcf	3,5	;RP0=0, select bank0
  5297  02A5' 1303               	bcf	3,6	;RP1=0, select bank0
  5298  02A6' 0843'              	movf	?___flmul+3,w
  5299  02A7' 1683               	bsf	3,5	;RP0=1, select bank3
  5300  02A8' 1703               	bsf	3,6	;RP1=1, select bank3
  5301  02A9' 0080'              	movwf	(_f+3)^(0+384)
  5302  02AA' 1283               	bcf	3,5	;RP0=0, select bank0
  5303  02AB' 1303               	bcf	3,6	;RP1=0, select bank0
  5304  02AC' 0842'              	movf	?___flmul+2,w
  5305  02AD' 1683               	bsf	3,5	;RP0=1, select bank3
  5306  02AE' 1703               	bsf	3,6	;RP1=1, select bank3
  5307  02AF' 0080'              	movwf	(_f+2)^(0+384)
  5308  02B0' 1283               	bcf	3,5	;RP0=0, select bank0
  5309  02B1' 1303               	bcf	3,6	;RP1=0, select bank0
  5310  02B2' 0841'              	movf	?___flmul+1,w
  5311  02B3' 1683               	bsf	3,5	;RP0=1, select bank3
  5312  02B4' 1703               	bsf	3,6	;RP1=1, select bank3
  5313  02B5' 0080'              	movwf	(_f+1)^(0+384)
  5314  02B6' 1283               	bcf	3,5	;RP0=0, select bank0
  5315  02B7' 1303               	bcf	3,6	;RP1=0, select bank0
  5316  02B8' 0840'              	movf	?___flmul,w
  5317  02B9' 1683               	bsf	3,5	;RP0=1, select bank3
  5318  02BA' 1703               	bsf	3,6	;RP1=1, select bank3
  5319  02BB' 0080'              	movwf	_f^(0+384)
  5320                           
  5321                           ;./Fuzzy_Lib.h: 34:     }
  5322  02BC' 2800'              	goto	L1
  5323                           
  5324                           	psect	text19
  5325  0000'                    __ptext19:	
  5326 ;; *************** function ___xxtofl *****************
  5327 ;; Defined at:
  5328 ;;		line 10 in file "C:\Program Files (x86)\Microchip\xc8\v2.10\pic\sources\c90\common\xxtofl.c"
  5329 ;; Parameters:    Size  Location     Type
  5330 ;;  sign            1    wreg     unsigned char 
  5331 ;;  val             4    9[COMMON] long 
  5332 ;; Auto vars:     Size  Location     Type
  5333 ;;  sign            1    4[BANK0 ] unsigned char 
  5334 ;;  arg             4    6[BANK0 ] unsigned long 
  5335 ;;  exp             1    5[BANK0 ] unsigned char 
  5336 ;; Return value:  Size  Location     Type
  5337 ;;                  4    9[COMMON] unsigned char 
  5338 ;; Registers used:
  5339 ;;		wreg, status,2, status,0
  5340 ;; Tracked objects:
  5341 ;;		On entry : 0/0
  5342 ;;		On exit  : 0/0
  5343 ;;		Unchanged: 0/0
  5344 ;; Data sizes:     COMMON   BANK0   BANK1   BANK3   BANK2
  5345 ;;      Params:         4       0       0       0       0
  5346 ;;      Locals:         0       6       0       0       0
  5347 ;;      Temps:          0       4       0       0       0
  5348 ;;      Totals:         4      10       0       0       0
  5349 ;;Total ram usage:       14 bytes
  5350 ;; Hardware stack levels used:    1
  5351 ;; This function calls:
  5352 ;;		Nothing
  5353 ;; This function is called by:
  5354 ;;		_pimf
  5355 ;;		_Fuz
  5356 ;;		_main
  5357 ;;		_distancia
  5358 ;;		_trunc
  5359 ;; This function uses a non-reentrant model
  5360 ;;
  5361                           
  5362                           
  5363                           ;psect for function ___xxtofl
  5364  0000'                    ___xxtofl:	
  5365                           
  5366                           ;incstack = 0
  5367                           ; Regs used in ___xxtofl: [wreg+status,2+status,0]
  5368                           ;___xxtofl@sign stored from wreg
  5369  0000' 1283               	bcf	3,5	;RP0=0, select bank0
  5370  0001' 1303               	bcf	3,6	;RP1=0, select bank0
  5371  0002' 0084'              	movwf	___xxtofl@sign
  5372  0003'                    l2726:	
  5373  0003' 0804'              	movf	___xxtofl@sign,w
  5374  0004' 1903               	btfsc	3,2
  5375  0005' 2800'              	goto	u4091
  5376  0006' 2800'              	goto	u4090
  5377  0007'                    u4091:	
  5378  0007' 2800'              	goto	l2732
  5379  0008'                    u4090:	
  5380  0008'                    l2728:	
  5381  0008' 1F8C'              	btfss	___xxtofl@val+3,7
  5382  0009' 2800'              	goto	u4101
  5383  000A' 2800'              	goto	u4100
  5384  000B'                    u4101:	
  5385  000B' 2800'              	goto	l2732
  5386  000C'                    u4100:	
  5387  000C'                    l2730:	
  5388  000C' 0909'              	comf	___xxtofl@val,w
  5389  000D' 0086'              	movwf	___xxtofl@arg
  5390  000E' 090A'              	comf	___xxtofl@val+1,w
  5391  000F' 0087'              	movwf	___xxtofl@arg+1
  5392  0010' 090B'              	comf	___xxtofl@val+2,w
  5393  0011' 0088'              	movwf	___xxtofl@arg+2
  5394  0012' 090C'              	comf	___xxtofl@val+3,w
  5395  0013' 0089'              	movwf	___xxtofl@arg+3
  5396  0014' 0A86'              	incf	___xxtofl@arg,f
  5397  0015' 1903               	skipnz
  5398  0016' 0A87'              	incf	___xxtofl@arg+1,f
  5399  0017' 1903               	skipnz
  5400  0018' 0A88'              	incf	___xxtofl@arg+2,f
  5401  0019' 1903               	skipnz
  5402  001A' 0A89'              	incf	___xxtofl@arg+3,f
  5403  001B' 2800'              	goto	l701
  5404  001C'                    l2732:	
  5405  001C' 080C'              	movf	___xxtofl@val+3,w
  5406  001D' 0089'              	movwf	___xxtofl@arg+3
  5407  001E' 080B'              	movf	___xxtofl@val+2,w
  5408  001F' 0088'              	movwf	___xxtofl@arg+2
  5409  0020' 080A'              	movf	___xxtofl@val+1,w
  5410  0021' 0087'              	movwf	___xxtofl@arg+1
  5411  0022' 0809'              	movf	___xxtofl@val,w
  5412  0023' 0086'              	movwf	___xxtofl@arg
  5413  0024'                    l701:	
  5414  0024' 080C'              	movf	___xxtofl@val+3,w
  5415  0025' 040B'              	iorwf	___xxtofl@val+2,w
  5416  0026' 040A'              	iorwf	___xxtofl@val+1,w
  5417  0027' 0409'              	iorwf	___xxtofl@val,w
  5418  0028' 1D03               	skipz
  5419  0029' 2800'              	goto	u4111
  5420  002A' 2800'              	goto	u4110
  5421  002B'                    u4111:	
  5422  002B' 2800'              	goto	l2738
  5423  002C'                    u4110:	
  5424  002C'                    l2734:	
  5425  002C' 3000               	movlw	0
  5426  002D' 008C'              	movwf	?___xxtofl+3
  5427  002E' 3000               	movlw	0
  5428  002F' 008B'              	movwf	?___xxtofl+2
  5429  0030' 3000               	movlw	0
  5430  0031' 008A'              	movwf	?___xxtofl+1
  5431  0032' 3000               	movlw	0
  5432  0033' 0089'              	movwf	?___xxtofl
  5433  0034' 2800'              	goto	l703
  5434  0035'                    l2738:	
  5435  0035' 3096               	movlw	150
  5436  0036' 0080'              	movwf	??___xxtofl
  5437  0037' 0800'              	movf	??___xxtofl,w
  5438  0038' 0085'              	movwf	___xxtofl@exp
  5439  0039' 2800'              	goto	l2742
  5440  003A'                    l2740:	
  5441  003A' 3001               	movlw	1
  5442  003B' 0080'              	movwf	??___xxtofl
  5443  003C' 0800'              	movf	??___xxtofl,w
  5444  003D' 0785'              	addwf	___xxtofl@exp,f
  5445  003E' 3001               	movlw	1
  5446  003F'                    u4125:	
  5447  003F' 1003               	clrc
  5448  0040' 0C89'              	rrf	___xxtofl@arg+3,f
  5449  0041' 0C88'              	rrf	___xxtofl@arg+2,f
  5450  0042' 0C87'              	rrf	___xxtofl@arg+1,f
  5451  0043' 0C86'              	rrf	___xxtofl@arg,f
  5452  0044' 3EFF               	addlw	-1
  5453  0045' 1D03               	skipz
  5454  0046' 2800'              	goto	u4125
  5455  0047'                    l2742:	
  5456  0047' 30FE               	movlw	254
  5457  0048' 0509'              	andwf	___xxtofl@arg+3,w
  5458  0049' 1D03               	btfss	3,2
  5459  004A' 2800'              	goto	u4131
  5460  004B' 2800'              	goto	u4130
  5461  004C'                    u4131:	
  5462  004C' 2800'              	goto	l2740
  5463  004D'                    u4130:	
  5464  004D' 2800'              	goto	l707
  5465  004E'                    l2744:	
  5466  004E' 3001               	movlw	1
  5467  004F' 0080'              	movwf	??___xxtofl
  5468  0050' 0800'              	movf	??___xxtofl,w
  5469  0051' 0785'              	addwf	___xxtofl@exp,f
  5470  0052'                    l2746:	
  5471  0052' 3001               	movlw	1
  5472  0053' 0786'              	addwf	___xxtofl@arg,f
  5473  0054' 3000               	movlw	0
  5474  0055' 1803               	skipnc
  5475  0056' 3001               	movlw	1
  5476  0057' 0787'              	addwf	___xxtofl@arg+1,f
  5477  0058' 3000               	movlw	0
  5478  0059' 1803               	skipnc
  5479  005A' 3001               	movlw	1
  5480  005B' 0788'              	addwf	___xxtofl@arg+2,f
  5481  005C' 3000               	movlw	0
  5482  005D' 1803               	skipnc
  5483  005E' 3001               	movlw	1
  5484  005F' 0789'              	addwf	___xxtofl@arg+3,f
  5485  0060'                    l2748:	
  5486  0060' 3001               	movlw	1
  5487  0061'                    u4145:	
  5488  0061' 1003               	clrc
  5489  0062' 0C89'              	rrf	___xxtofl@arg+3,f
  5490  0063' 0C88'              	rrf	___xxtofl@arg+2,f
  5491  0064' 0C87'              	rrf	___xxtofl@arg+1,f
  5492  0065' 0C86'              	rrf	___xxtofl@arg,f
  5493  0066' 3EFF               	addlw	-1
  5494  0067' 1D03               	skipz
  5495  0068' 2800'              	goto	u4145
  5496  0069'                    l707:	
  5497  0069' 30FF               	movlw	255
  5498  006A' 0509'              	andwf	___xxtofl@arg+3,w
  5499  006B' 1D03               	btfss	3,2
  5500  006C' 2800'              	goto	u4151
  5501  006D' 2800'              	goto	u4150
  5502  006E'                    u4151:	
  5503  006E' 2800'              	goto	l2744
  5504  006F'                    u4150:	
  5505  006F' 2800'              	goto	l2752
  5506  0070'                    l2750:	
  5507  0070' 3001               	movlw	1
  5508  0071' 0285'              	subwf	___xxtofl@exp,f
  5509  0072' 3001               	movlw	1
  5510  0073' 0080'              	movwf	??___xxtofl
  5511  0074'                    u4165:	
  5512  0074' 1003               	clrc
  5513  0075' 0D86'              	rlf	___xxtofl@arg,f
  5514  0076' 0D87'              	rlf	___xxtofl@arg+1,f
  5515  0077' 0D88'              	rlf	___xxtofl@arg+2,f
  5516  0078' 0D89'              	rlf	___xxtofl@arg+3,f
  5517  0079' 0B80'              	decfsz	??___xxtofl,f
  5518  007A' 2800'              	goto	u4165
  5519  007B'                    l2752:	
  5520  007B' 1B88'              	btfsc	___xxtofl@arg+2,7
  5521  007C' 2800'              	goto	u4171
  5522  007D' 2800'              	goto	u4170
  5523  007E'                    u4171:	
  5524  007E' 2800'              	goto	l714
  5525  007F'                    u4170:	
  5526  007F'                    l2754:	
  5527  007F' 3002               	movlw	2
  5528  0080' 0205'              	subwf	___xxtofl@exp,w
  5529  0081' 1803               	skipnc
  5530  0082' 2800'              	goto	u4181
  5531  0083' 2800'              	goto	u4180
  5532  0084'                    u4181:	
  5533  0084' 2800'              	goto	l2750
  5534  0085'                    u4180:	
  5535  0085'                    l714:	
  5536  0085' 1805'              	btfsc	___xxtofl@exp,0
  5537  0086' 2800'              	goto	u4191
  5538  0087' 2800'              	goto	u4190
  5539  0088'                    u4191:	
  5540  0088' 2800'              	goto	l715
  5541  0089'                    u4190:	
  5542  0089'                    l2756:	
  5543  0089' 30FF               	movlw	255
  5544  008A' 0586'              	andwf	___xxtofl@arg,f
  5545  008B' 30FF               	movlw	255
  5546  008C' 0587'              	andwf	___xxtofl@arg+1,f
  5547  008D' 307F               	movlw	127
  5548  008E' 0588'              	andwf	___xxtofl@arg+2,f
  5549  008F' 30FF               	movlw	255
  5550  0090' 0589'              	andwf	___xxtofl@arg+3,f
  5551  0091'                    l715:	
  5552  0091' 1003               	clrc
  5553  0092' 0C85'              	rrf	___xxtofl@exp,f
  5554  0093'                    l2758:	
  5555  0093' 0805'              	movf	___xxtofl@exp,w
  5556  0094' 0080'              	movwf	??___xxtofl
  5557  0095' 0181'              	clrf	??___xxtofl+1
  5558  0096' 0182'              	clrf	??___xxtofl+2
  5559  0097' 0183'              	clrf	??___xxtofl+3
  5560  0098' 3018               	movlw	24
  5561  0099'                    u4205:	
  5562  0099' 1003               	clrc
  5563  009A' 0D80'              	rlf	??___xxtofl,f
  5564  009B' 0D81'              	rlf	??___xxtofl+1,f
  5565  009C' 0D82'              	rlf	??___xxtofl+2,f
  5566  009D' 0D83'              	rlf	??___xxtofl+3,f
  5567  009E'                    u4200:	
  5568  009E' 3EFF               	addlw	-1
  5569  009F' 1D03               	skipz
  5570  00A0' 2800'              	goto	u4205
  5571  00A1' 0800'              	movf	??___xxtofl,w
  5572  00A2' 0486'              	iorwf	___xxtofl@arg,f
  5573  00A3' 0801'              	movf	??___xxtofl+1,w
  5574  00A4' 0487'              	iorwf	___xxtofl@arg+1,f
  5575  00A5' 0802'              	movf	??___xxtofl+2,w
  5576  00A6' 0488'              	iorwf	___xxtofl@arg+2,f
  5577  00A7' 0803'              	movf	??___xxtofl+3,w
  5578  00A8' 0489'              	iorwf	___xxtofl@arg+3,f
  5579  00A9'                    l2760:	
  5580  00A9' 0804'              	movf	___xxtofl@sign,w
  5581  00AA' 1903               	btfsc	3,2
  5582  00AB' 2800'              	goto	u4211
  5583  00AC' 2800'              	goto	u4210
  5584  00AD'                    u4211:	
  5585  00AD' 2800'              	goto	l2766
  5586  00AE'                    u4210:	
  5587  00AE'                    l2762:	
  5588  00AE' 1F8C'              	btfss	___xxtofl@val+3,7
  5589  00AF' 2800'              	goto	u4221
  5590  00B0' 2800'              	goto	u4220
  5591  00B1'                    u4221:	
  5592  00B1' 2800'              	goto	l2766
  5593  00B2'                    u4220:	
  5594  00B2'                    l2764:	
  5595  00B2' 1789'              	bsf	___xxtofl@arg+3,7
  5596  00B3'                    l2766:	
  5597  00B3' 0809'              	movf	___xxtofl@arg+3,w
  5598  00B4' 008C'              	movwf	?___xxtofl+3
  5599  00B5' 0808'              	movf	___xxtofl@arg+2,w
  5600  00B6' 008B'              	movwf	?___xxtofl+2
  5601  00B7' 0807'              	movf	___xxtofl@arg+1,w
  5602  00B8' 008A'              	movwf	?___xxtofl+1
  5603  00B9' 0806'              	movf	___xxtofl@arg,w
  5604  00BA' 0089'              	movwf	?___xxtofl
  5605  00BB'                    l703:	
  5606  00BB' 0008               	return
  5607  00BC'                    __end_of___xxtofl:	
  5608                           
  5609                           	psect	text20
  5610  0000'                    __ptext20:	
  5611 ;; *************** function ___fltol *****************
  5612 ;; Defined at:
  5613 ;;		line 43 in file "C:\Program Files (x86)\Microchip\xc8\v2.10\pic\sources\c90\common\fltol.c"
  5614 ;; Parameters:    Size  Location     Type
  5615 ;;  f1              4   64[BANK0 ] unsigned char 
  5616 ;; Auto vars:     Size  Location     Type
  5617 ;;  exp1            1   74[BANK0 ] unsigned char 
  5618 ;;  sign1           1   73[BANK0 ] unsigned char 
  5619 ;; Return value:  Size  Location     Type
  5620 ;;                  4   64[BANK0 ] long 
  5621 ;; Registers used:
  5622 ;;		wreg, status,2, status,0
  5623 ;; Tracked objects:
  5624 ;;		On entry : 0/0
  5625 ;;		On exit  : 0/0
  5626 ;;		Unchanged: 0/0
  5627 ;; Data sizes:     COMMON   BANK0   BANK1   BANK3   BANK2
  5628 ;;      Params:         0       4       0       0       0
  5629 ;;      Locals:         0       2       0       0       0
  5630 ;;      Temps:          0       5       0       0       0
  5631 ;;      Totals:         0      11       0       0       0
  5632 ;;Total ram usage:       11 bytes
  5633 ;; Hardware stack levels used:    1
  5634 ;; This function calls:
  5635 ;;		Nothing
  5636 ;; This function is called by:
  5637 ;;		_pimf
  5638 ;;		_Fuz
  5639 ;;		_main
  5640 ;;		_trunc
  5641 ;; This function uses a non-reentrant model
  5642 ;;
  5643                           
  5644                           
  5645                           ;psect for function ___fltol
  5646  0000'                    ___fltol:	
  5647  0000'                    l2354:	
  5648                           ;incstack = 0
  5649                           ; Regs used in ___fltol: [wreg+status,2+status,0]
  5650                           
  5651  0000' 1003               	clrc
  5652  0001' 1283               	bcf	3,5	;RP0=0, select bank0
  5653  0002' 1303               	bcf	3,6	;RP1=0, select bank0
  5654  0003' 0D42'              	rlf	___fltol@f1+2,w
  5655  0004' 0D43'              	rlf	___fltol@f1+3,w
  5656  0005' 00C4'              	movwf	??___fltol
  5657  0006' 0844'              	movf	??___fltol,w
  5658  0007' 00CA'              	movwf	___fltol@exp1
  5659  0008' 084A'              	movf	___fltol@exp1,w
  5660  0009' 1D03               	btfss	3,2
  5661  000A' 2800'              	goto	u3201
  5662  000B' 2800'              	goto	u3200
  5663  000C'                    u3201:	
  5664  000C' 2800'              	goto	l2360
  5665  000D'                    u3200:	
  5666  000D'                    l2356:	
  5667  000D' 3000               	movlw	0
  5668  000E' 00C3'              	movwf	?___fltol+3
  5669  000F' 3000               	movlw	0
  5670  0010' 00C2'              	movwf	?___fltol+2
  5671  0011' 3000               	movlw	0
  5672  0012' 00C1'              	movwf	?___fltol+1
  5673  0013' 3000               	movlw	0
  5674  0014' 00C0'              	movwf	?___fltol
  5675  0015' 2800'              	goto	l460
  5676  0016'                    l2360:	
  5677  0016' 0840'              	movf	___fltol@f1,w
  5678  0017' 00C4'              	movwf	??___fltol
  5679  0018' 0841'              	movf	___fltol@f1+1,w
  5680  0019' 00C5'              	movwf	??___fltol+1
  5681  001A' 0842'              	movf	___fltol@f1+2,w
  5682  001B' 00C6'              	movwf	??___fltol+2
  5683  001C' 0843'              	movf	___fltol@f1+3,w
  5684  001D' 00C7'              	movwf	??___fltol+3
  5685  001E' 301F               	movlw	31
  5686  001F'                    u3215:	
  5687  001F' 1003               	clrc
  5688  0020' 0CC7'              	rrf	??___fltol+3,f
  5689  0021' 0CC6'              	rrf	??___fltol+2,f
  5690  0022' 0CC5'              	rrf	??___fltol+1,f
  5691  0023' 0CC4'              	rrf	??___fltol,f
  5692  0024'                    u3210:	
  5693  0024' 3EFF               	addlw	-1
  5694  0025' 1D03               	skipz
  5695  0026' 2800'              	goto	u3215
  5696  0027' 0844'              	movf	??___fltol,w
  5697  0028' 00C8'              	movwf	??___fltol+4
  5698  0029' 0848'              	movf	??___fltol+4,w
  5699  002A' 00C9'              	movwf	___fltol@sign1
  5700  002B'                    l2362:	
  5701  002B' 17C2'              	bsf	___fltol@f1+2,7
  5702  002C'                    l2364:	
  5703  002C' 30FF               	movlw	255
  5704  002D' 05C0'              	andwf	___fltol@f1,f
  5705  002E' 30FF               	movlw	255
  5706  002F' 05C1'              	andwf	___fltol@f1+1,f
  5707  0030' 30FF               	movlw	255
  5708  0031' 05C2'              	andwf	___fltol@f1+2,f
  5709  0032' 3000               	movlw	0
  5710  0033' 05C3'              	andwf	___fltol@f1+3,f
  5711  0034'                    l2366:	
  5712  0034' 3096               	movlw	150
  5713  0035' 02CA'              	subwf	___fltol@exp1,f
  5714  0036'                    l2368:	
  5715  0036' 1FCA'              	btfss	___fltol@exp1,7
  5716  0037' 2800'              	goto	u3221
  5717  0038' 2800'              	goto	u3220
  5718  0039'                    u3221:	
  5719  0039' 2800'              	goto	l2378
  5720  003A'                    u3220:	
  5721  003A'                    l2370:	
  5722  003A' 084A'              	movf	___fltol@exp1,w
  5723  003B' 3A80               	xorlw	128
  5724  003C' 3E97               	addlw	151
  5725  003D' 1803               	skipnc
  5726  003E' 2800'              	goto	u3231
  5727  003F' 2800'              	goto	u3230
  5728  0040'                    u3231:	
  5729  0040' 2800'              	goto	l2376
  5730  0041'                    u3230:	
  5731  0041' 2800'              	goto	l2356
  5732  0042'                    l2376:	
  5733  0042' 3001               	movlw	1
  5734  0043'                    u3245:	
  5735  0043' 1003               	clrc
  5736  0044' 0CC3'              	rrf	___fltol@f1+3,f
  5737  0045' 0CC2'              	rrf	___fltol@f1+2,f
  5738  0046' 0CC1'              	rrf	___fltol@f1+1,f
  5739  0047' 0CC0'              	rrf	___fltol@f1,f
  5740  0048' 3EFF               	addlw	-1
  5741  0049' 1D03               	skipz
  5742  004A' 2800'              	goto	u3245
  5743  004B' 3001               	movlw	1
  5744  004C' 00C4'              	movwf	??___fltol
  5745  004D' 0844'              	movf	??___fltol,w
  5746  004E' 07CA'              	addwf	___fltol@exp1,f
  5747  004F' 1D03               	btfss	3,2
  5748  0050' 2800'              	goto	u3251
  5749  0051' 2800'              	goto	u3250
  5750  0052'                    u3251:	
  5751  0052' 2800'              	goto	l2376
  5752  0053'                    u3250:	
  5753  0053' 2800'              	goto	l2386
  5754  0054'                    l2378:	
  5755  0054' 3020               	movlw	32
  5756  0055' 024A'              	subwf	___fltol@exp1,w
  5757  0056' 1C03               	skipc
  5758  0057' 2800'              	goto	u3261
  5759  0058' 2800'              	goto	u3260
  5760  0059'                    u3261:	
  5761  0059' 2800'              	goto	l467
  5762  005A'                    u3260:	
  5763  005A' 2800'              	goto	l2356
  5764  005B'                    l2384:	
  5765  005B' 3001               	movlw	1
  5766  005C' 00C4'              	movwf	??___fltol
  5767  005D'                    u3275:	
  5768  005D' 1003               	clrc
  5769  005E' 0DC0'              	rlf	___fltol@f1,f
  5770  005F' 0DC1'              	rlf	___fltol@f1+1,f
  5771  0060' 0DC2'              	rlf	___fltol@f1+2,f
  5772  0061' 0DC3'              	rlf	___fltol@f1+3,f
  5773  0062' 0BC4'              	decfsz	??___fltol,f
  5774  0063' 2800'              	goto	u3275
  5775  0064' 3001               	movlw	1
  5776  0065' 02CA'              	subwf	___fltol@exp1,f
  5777  0066'                    l467:	
  5778  0066' 084A'              	movf	___fltol@exp1,w
  5779  0067' 1D03               	btfss	3,2
  5780  0068' 2800'              	goto	u3281
  5781  0069' 2800'              	goto	u3280
  5782  006A'                    u3281:	
  5783  006A' 2800'              	goto	l2384
  5784  006B'                    u3280:	
  5785  006B'                    l2386:	
  5786  006B' 0849'              	movf	___fltol@sign1,w
  5787  006C' 1903               	btfsc	3,2
  5788  006D' 2800'              	goto	u3291
  5789  006E' 2800'              	goto	u3290
  5790  006F'                    u3291:	
  5791  006F' 2800'              	goto	l470
  5792  0070'                    u3290:	
  5793  0070'                    l2388:	
  5794  0070' 09C0'              	comf	___fltol@f1,f
  5795  0071' 09C1'              	comf	___fltol@f1+1,f
  5796  0072' 09C2'              	comf	___fltol@f1+2,f
  5797  0073' 09C3'              	comf	___fltol@f1+3,f
  5798  0074' 0AC0'              	incf	___fltol@f1,f
  5799  0075' 1903               	skipnz
  5800  0076' 0AC1'              	incf	___fltol@f1+1,f
  5801  0077' 1903               	skipnz
  5802  0078' 0AC2'              	incf	___fltol@f1+2,f
  5803  0079' 1903               	skipnz
  5804  007A' 0AC3'              	incf	___fltol@f1+3,f
  5805  007B'                    l470:	
  5806  007B'                    l460:	
  5807  007B' 0008               	return
  5808  007C'                    __end_of___fltol:	
  5809                           
  5810                           	psect	text21
  5811  0000'                    __ptext21:	
  5812 ;; *************** function ___flsub *****************
  5813 ;; Defined at:
  5814 ;;		line 242 in file "C:\Program Files (x86)\Microchip\xc8\v2.10\pic\sources\c90\common\sprcadd.c"
  5815 ;; Parameters:    Size  Location     Type
  5816 ;;  a               4   56[BANK0 ] long 
  5817 ;;  b               4   60[BANK0 ] long 
  5818 ;; Auto vars:     Size  Location     Type
  5819 ;;		None
  5820 ;; Return value:  Size  Location     Type
  5821 ;;                  4   56[BANK0 ] long 
  5822 ;; Registers used:
  5823 ;;		wreg, status,2, status,0, btemp+1, pclath, cstack
  5824 ;; Tracked objects:
  5825 ;;		On entry : 0/0
  5826 ;;		On exit  : 0/0
  5827 ;;		Unchanged: 0/0
  5828 ;; Data sizes:     COMMON   BANK0   BANK1   BANK3   BANK2
  5829 ;;      Params:         0       8       0       0       0
  5830 ;;      Locals:         0       0       0       0       0
  5831 ;;      Temps:          0       0       0       0       0
  5832 ;;      Totals:         0       8       0       0       0
  5833 ;;Total ram usage:        8 bytes
  5834 ;; Hardware stack levels used:    1
  5835 ;; Hardware stack levels required when called:    1
  5836 ;; This function calls:
  5837 ;;		___fladd
  5838 ;; This function is called by:
  5839 ;;		_pimf
  5840 ;;		_main
  5841 ;;		_round
  5842 ;; This function uses a non-reentrant model
  5843 ;;
  5844                           
  5845                           
  5846                           ;psect for function ___flsub
  5847  0000'                    ___flsub:	
  5848  0000'                    l2438:	
  5849                           ;incstack = 0
  5850                           ; Regs used in ___flsub: [wreg+status,2+status,0+btemp+1+pclath+cstack]
  5851                           
  5852  0000' 3080               	movlw	128
  5853  0001' 1283               	bcf	3,5	;RP0=0, select bank0
  5854  0002' 1303               	bcf	3,6	;RP1=0, select bank0
  5855  0003' 06BB'              	xorwf	___flsub@a+3,f
  5856  0004'                    l2440:	
  5857  0004' 083F'              	movf	___flsub@b+3,w
  5858  0005' 00A7'              	movwf	___fladd@b+3
  5859  0006' 083E'              	movf	___flsub@b+2,w
  5860  0007' 00A6'              	movwf	___fladd@b+2
  5861  0008' 083D'              	movf	___flsub@b+1,w
  5862  0009' 00A5'              	movwf	___fladd@b+1
  5863  000A' 083C'              	movf	___flsub@b,w
  5864  000B' 00A4'              	movwf	___fladd@b
  5865  000C' 083B'              	movf	___flsub@a+3,w
  5866  000D' 00AB'              	movwf	___fladd@a+3
  5867  000E' 083A'              	movf	___flsub@a+2,w
  5868  000F' 00AA'              	movwf	___fladd@a+2
  5869  0010' 0839'              	movf	___flsub@a+1,w
  5870  0011' 00A9'              	movwf	___fladd@a+1
  5871  0012' 0838'              	movf	___flsub@a,w
  5872  0013' 00A8'              	movwf	___fladd@a
  5873  0014' 120A' 118A' 2000' 120A' 118A' 	fcall	___fladd
  5874  0019' 1283               	bcf	3,5	;RP0=0, select bank0
  5875  001A' 1303               	bcf	3,6	;RP1=0, select bank0
  5876  001B' 0827'              	movf	?___fladd+3,w
  5877  001C' 00BB'              	movwf	?___flsub+3
  5878  001D' 0826'              	movf	?___fladd+2,w
  5879  001E' 00BA'              	movwf	?___flsub+2
  5880  001F' 0825'              	movf	?___fladd+1,w
  5881  0020' 00B9'              	movwf	?___flsub+1
  5882  0021' 0824'              	movf	?___fladd,w
  5883  0022' 00B8'              	movwf	?___flsub
  5884  0023'                    l613:	
  5885  0023' 0008               	return
  5886  0024'                    __end_of___flsub:	
  5887                           
  5888                           	psect	text22
  5889  0000'                    __ptext22:	
  5890 ;; *************** function ___fladd *****************
  5891 ;; Defined at:
  5892 ;;		line 10 in file "C:\Program Files (x86)\Microchip\xc8\v2.10\pic\sources\c90\common\sprcadd.c"
  5893 ;; Parameters:    Size  Location     Type
  5894 ;;  b               4   36[BANK0 ] long 
  5895 ;;  a               4   40[BANK0 ] long 
  5896 ;; Auto vars:     Size  Location     Type
  5897 ;;  grs             1   55[BANK0 ] unsigned char 
  5898 ;;  bexp            1   54[BANK0 ] unsigned char 
  5899 ;;  aexp            1   53[BANK0 ] unsigned char 
  5900 ;;  signs           1   52[BANK0 ] unsigned char 
  5901 ;; Return value:  Size  Location     Type
  5902 ;;                  4   36[BANK0 ] unsigned char 
  5903 ;; Registers used:
  5904 ;;		wreg, status,2, status,0, btemp+1
  5905 ;; Tracked objects:
  5906 ;;		On entry : 0/0
  5907 ;;		On exit  : 0/0
  5908 ;;		Unchanged: 0/0
  5909 ;; Data sizes:     COMMON   BANK0   BANK1   BANK3   BANK2
  5910 ;;      Params:         0       8       0       0       0
  5911 ;;      Locals:         0       4       0       0       0
  5912 ;;      Temps:          0       8       0       0       0
  5913 ;;      Totals:         0      20       0       0       0
  5914 ;;Total ram usage:       20 bytes
  5915 ;; Hardware stack levels used:    1
  5916 ;; This function calls:
  5917 ;;		Nothing
  5918 ;; This function is called by:
  5919 ;;		_pimf
  5920 ;;		_Fuz
  5921 ;;		_main
  5922 ;;		_distancia
  5923 ;;		___flsub
  5924 ;;		_round
  5925 ;; This function uses a non-reentrant model
  5926 ;;
  5927                           
  5928                           
  5929                           ;psect for function ___fladd
  5930  0000'                    ___fladd:	
  5931  0000'                    l2126:	
  5932                           ;incstack = 0
  5933                           ; Regs used in ___fladd: [wreg+status,2+status,0+btemp+1]
  5934                           
  5935  0000' 1283               	bcf	3,5	;RP0=0, select bank0
  5936  0001' 1303               	bcf	3,6	;RP1=0, select bank0
  5937  0002' 0827'              	movf	___fladd@b+3,w
  5938  0003' 3980               	andlw	128
  5939  0004' 00AC'              	movwf	??___fladd
  5940  0005' 082C'              	movf	??___fladd,w
  5941  0006' 00B4'              	movwf	___fladd@signs
  5942  0007'                    l2128:	
  5943  0007' 0827'              	movf	___fladd@b+3,w
  5944  0008' 00AC'              	movwf	??___fladd
  5945  0009' 072C'              	addwf	??___fladd,w
  5946  000A' 00AD'              	movwf	??___fladd+1
  5947  000B' 082D'              	movf	??___fladd+1,w
  5948  000C' 00B6'              	movwf	___fladd@bexp
  5949  000D'                    l2130:	
  5950  000D' 1FA6'              	btfss	___fladd@b+2,7
  5951  000E' 2800'              	goto	u2641
  5952  000F' 2800'              	goto	u2640
  5953  0010'                    u2641:	
  5954  0010' 2800'              	goto	l2134
  5955  0011'                    u2640:	
  5956  0011'                    l2132:	
  5957  0011' 1436'              	bsf	___fladd@bexp,0
  5958  0012'                    l2134:	
  5959  0012' 0836'              	movf	___fladd@bexp,w
  5960  0013' 1903               	btfsc	3,2
  5961  0014' 2800'              	goto	u2651
  5962  0015' 2800'              	goto	u2650
  5963  0016'                    u2651:	
  5964  0016' 2800'              	goto	l2144
  5965  0017'                    u2650:	
  5966  0017'                    l2136:	
  5967  0017' 0A36'              	incf	___fladd@bexp,w
  5968  0018' 1D03               	btfss	3,2
  5969  0019' 2800'              	goto	u2661
  5970  001A' 2800'              	goto	u2660
  5971  001B'                    u2661:	
  5972  001B' 2800'              	goto	l2140
  5973  001C'                    u2660:	
  5974  001C'                    l2138:	
  5975  001C' 3000               	movlw	0
  5976  001D' 00A7'              	movwf	___fladd@b+3
  5977  001E' 3000               	movlw	0
  5978  001F' 00A6'              	movwf	___fladd@b+2
  5979  0020' 3000               	movlw	0
  5980  0021' 00A5'              	movwf	___fladd@b+1
  5981  0022' 3000               	movlw	0
  5982  0023' 00A4'              	movwf	___fladd@b
  5983  0024'                    l2140:	
  5984  0024' 17A6'              	bsf	___fladd@b+2,7
  5985  0025'                    l2142:	
  5986  0025' 01A7'              	clrf	___fladd@b+3
  5987  0026' 2800'              	goto	l2146
  5988  0027'                    l2144:	
  5989  0027' 3000               	movlw	0
  5990  0028' 00A7'              	movwf	___fladd@b+3
  5991  0029' 3000               	movlw	0
  5992  002A' 00A6'              	movwf	___fladd@b+2
  5993  002B' 3000               	movlw	0
  5994  002C' 00A5'              	movwf	___fladd@b+1
  5995  002D' 3000               	movlw	0
  5996  002E' 00A4'              	movwf	___fladd@b
  5997  002F'                    l2146:	
  5998  002F' 082B'              	movf	___fladd@a+3,w
  5999  0030' 3980               	andlw	128
  6000  0031' 00AC'              	movwf	??___fladd
  6001  0032' 082C'              	movf	??___fladd,w
  6002  0033' 00B5'              	movwf	___fladd@aexp
  6003  0034'                    l2148:	
  6004  0034' 0835'              	movf	___fladd@aexp,w
  6005  0035' 0634'              	xorwf	___fladd@signs,w
  6006  0036' 1903               	skipnz
  6007  0037' 2800'              	goto	u2671
  6008  0038' 2800'              	goto	u2670
  6009  0039'                    u2671:	
  6010  0039' 2800'              	goto	l2152
  6011  003A'                    u2670:	
  6012  003A'                    l2150:	
  6013  003A' 1734'              	bsf	___fladd@signs,6
  6014  003B'                    l2152:	
  6015  003B' 082B'              	movf	___fladd@a+3,w
  6016  003C' 00AC'              	movwf	??___fladd
  6017  003D' 072C'              	addwf	??___fladd,w
  6018  003E' 00AD'              	movwf	??___fladd+1
  6019  003F' 082D'              	movf	??___fladd+1,w
  6020  0040' 00B5'              	movwf	___fladd@aexp
  6021  0041'                    l2154:	
  6022  0041' 1FAA'              	btfss	___fladd@a+2,7
  6023  0042' 2800'              	goto	u2681
  6024  0043' 2800'              	goto	u2680
  6025  0044'                    u2681:	
  6026  0044' 2800'              	goto	l2158
  6027  0045'                    u2680:	
  6028  0045'                    l2156:	
  6029  0045' 1435'              	bsf	___fladd@aexp,0
  6030  0046'                    l2158:	
  6031  0046' 0835'              	movf	___fladd@aexp,w
  6032  0047' 1903               	btfsc	3,2
  6033  0048' 2800'              	goto	u2691
  6034  0049' 2800'              	goto	u2690
  6035  004A'                    u2691:	
  6036  004A' 2800'              	goto	l2168
  6037  004B'                    u2690:	
  6038  004B'                    l2160:	
  6039  004B' 0A35'              	incf	___fladd@aexp,w
  6040  004C' 1D03               	btfss	3,2
  6041  004D' 2800'              	goto	u2701
  6042  004E' 2800'              	goto	u2700
  6043  004F'                    u2701:	
  6044  004F' 2800'              	goto	l2164
  6045  0050'                    u2700:	
  6046  0050'                    l2162:	
  6047  0050' 3000               	movlw	0
  6048  0051' 00AB'              	movwf	___fladd@a+3
  6049  0052' 3000               	movlw	0
  6050  0053' 00AA'              	movwf	___fladd@a+2
  6051  0054' 3000               	movlw	0
  6052  0055' 00A9'              	movwf	___fladd@a+1
  6053  0056' 3000               	movlw	0
  6054  0057' 00A8'              	movwf	___fladd@a
  6055  0058'                    l2164:	
  6056  0058' 17AA'              	bsf	___fladd@a+2,7
  6057  0059'                    l2166:	
  6058  0059' 01AB'              	clrf	___fladd@a+3
  6059  005A' 2800'              	goto	l567
  6060  005B'                    l2168:	
  6061  005B' 3000               	movlw	0
  6062  005C' 00AB'              	movwf	___fladd@a+3
  6063  005D' 3000               	movlw	0
  6064  005E' 00AA'              	movwf	___fladd@a+2
  6065  005F' 3000               	movlw	0
  6066  0060' 00A9'              	movwf	___fladd@a+1
  6067  0061' 3000               	movlw	0
  6068  0062' 00A8'              	movwf	___fladd@a
  6069  0063'                    l567:	
  6070  0063' 0836'              	movf	___fladd@bexp,w
  6071  0064' 0235'              	subwf	___fladd@aexp,w
  6072  0065' 1803               	skipnc
  6073  0066' 2800'              	goto	u2711
  6074  0067' 2800'              	goto	u2710
  6075  0068'                    u2711:	
  6076  0068' 2800'              	goto	l2204
  6077  0069'                    u2710:	
  6078  0069'                    l2170:	
  6079  0069' 1F34'              	btfss	___fladd@signs,6
  6080  006A' 2800'              	goto	u2721
  6081  006B' 2800'              	goto	u2720
  6082  006C'                    u2721:	
  6083  006C' 2800'              	goto	l2174
  6084  006D'                    u2720:	
  6085  006D'                    l2172:	
  6086  006D' 3080               	movlw	128
  6087  006E' 00AC'              	movwf	??___fladd
  6088  006F' 082C'              	movf	??___fladd,w
  6089  0070' 06B4'              	xorwf	___fladd@signs,f
  6090  0071'                    l2174:	
  6091  0071' 0836'              	movf	___fladd@bexp,w
  6092  0072' 00AC'              	movwf	??___fladd
  6093  0073' 082C'              	movf	??___fladd,w
  6094  0074' 00B7'              	movwf	___fladd@grs
  6095  0075'                    l2176:	
  6096  0075' 0835'              	movf	___fladd@aexp,w
  6097  0076' 00AC'              	movwf	??___fladd
  6098  0077' 082C'              	movf	??___fladd,w
  6099  0078' 00B6'              	movwf	___fladd@bexp
  6100  0079'                    l2178:	
  6101  0079' 0837'              	movf	___fladd@grs,w
  6102  007A' 00AC'              	movwf	??___fladd
  6103  007B' 082C'              	movf	??___fladd,w
  6104  007C' 00B5'              	movwf	___fladd@aexp
  6105  007D'                    l2180:	
  6106  007D' 0824'              	movf	___fladd@b,w
  6107  007E' 00AC'              	movwf	??___fladd
  6108  007F' 082C'              	movf	??___fladd,w
  6109  0080' 00B7'              	movwf	___fladd@grs
  6110  0081'                    l2182:	
  6111  0081' 0828'              	movf	___fladd@a,w
  6112  0082' 00AC'              	movwf	??___fladd
  6113  0083' 082C'              	movf	??___fladd,w
  6114  0084' 00A4'              	movwf	___fladd@b
  6115  0085'                    l2184:	
  6116  0085' 0837'              	movf	___fladd@grs,w
  6117  0086' 00AC'              	movwf	??___fladd
  6118  0087' 082C'              	movf	??___fladd,w
  6119  0088' 00A8'              	movwf	___fladd@a
  6120  0089'                    l2186:	
  6121  0089' 0825'              	movf	___fladd@b+1,w
  6122  008A' 00AC'              	movwf	??___fladd
  6123  008B' 082C'              	movf	??___fladd,w
  6124  008C' 00B7'              	movwf	___fladd@grs
  6125  008D'                    l2188:	
  6126  008D' 0829'              	movf	___fladd@a+1,w
  6127  008E' 00AC'              	movwf	??___fladd
  6128  008F' 082C'              	movf	??___fladd,w
  6129  0090' 00A5'              	movwf	___fladd@b+1
  6130  0091'                    l2190:	
  6131  0091' 0837'              	movf	___fladd@grs,w
  6132  0092' 00AC'              	movwf	??___fladd
  6133  0093' 082C'              	movf	??___fladd,w
  6134  0094' 00A9'              	movwf	___fladd@a+1
  6135  0095'                    l2192:	
  6136  0095' 0826'              	movf	___fladd@b+2,w
  6137  0096' 00AC'              	movwf	??___fladd
  6138  0097' 082C'              	movf	??___fladd,w
  6139  0098' 00B7'              	movwf	___fladd@grs
  6140  0099'                    l2194:	
  6141  0099' 082A'              	movf	___fladd@a+2,w
  6142  009A' 00AC'              	movwf	??___fladd
  6143  009B' 082C'              	movf	??___fladd,w
  6144  009C' 00A6'              	movwf	___fladd@b+2
  6145  009D'                    l2196:	
  6146  009D' 0837'              	movf	___fladd@grs,w
  6147  009E' 00AC'              	movwf	??___fladd
  6148  009F' 082C'              	movf	??___fladd,w
  6149  00A0' 00AA'              	movwf	___fladd@a+2
  6150  00A1'                    l2198:	
  6151  00A1' 0827'              	movf	___fladd@b+3,w
  6152  00A2' 00AC'              	movwf	??___fladd
  6153  00A3' 082C'              	movf	??___fladd,w
  6154  00A4' 00B7'              	movwf	___fladd@grs
  6155  00A5'                    l2200:	
  6156  00A5' 082B'              	movf	___fladd@a+3,w
  6157  00A6' 00AC'              	movwf	??___fladd
  6158  00A7' 082C'              	movf	??___fladd,w
  6159  00A8' 00A7'              	movwf	___fladd@b+3
  6160  00A9'                    l2202:	
  6161  00A9' 0837'              	movf	___fladd@grs,w
  6162  00AA' 00AC'              	movwf	??___fladd
  6163  00AB' 082C'              	movf	??___fladd,w
  6164  00AC' 00AB'              	movwf	___fladd@a+3
  6165  00AD'                    l2204:	
  6166  00AD' 01B7'              	clrf	___fladd@grs
  6167  00AE'                    l2206:	
  6168  00AE' 0835'              	movf	___fladd@aexp,w
  6169  00AF' 00AC'              	movwf	??___fladd
  6170  00B0' 01AD'              	clrf	??___fladd+1
  6171  00B1' 082D'              	movf	??___fladd+1,w
  6172  00B2' 00AF'              	movwf	??___fladd+3
  6173  00B3' 0836'              	movf	___fladd@bexp,w
  6174  00B4' 022C'              	subwf	??___fladd,w
  6175  00B5' 00AE'              	movwf	??___fladd+2
  6176  00B6' 1C03               	skipc
  6177  00B7' 03AF'              	decf	??___fladd+3,f
  6178  00B8' 082F'              	movf	??___fladd+3,w
  6179  00B9' 3A80               	xorlw	128
  6180  00BA' 00FF               	movwf	btemp+1
  6181  00BB' 3080               	movlw	128
  6182  00BC' 027F               	subwf	btemp+1,w
  6183  00BD' 1D03               	skipz
  6184  00BE' 2800'              	goto	u2735
  6185  00BF' 301A               	movlw	26
  6186  00C0' 022E'              	subwf	??___fladd+2,w
  6187  00C1'                    u2735:	
  6188  00C1' 1C03               	skipc
  6189  00C2' 2800'              	goto	u2731
  6190  00C3' 2800'              	goto	u2730
  6191  00C4'                    u2731:	
  6192  00C4' 2800'              	goto	l2222
  6193  00C5'                    u2730:	
  6194  00C5'                    l2208:	
  6195  00C5' 1283               	bcf	3,5	;RP0=0, select bank0
  6196  00C6' 1303               	bcf	3,6	;RP1=0, select bank0
  6197  00C7' 0827'              	movf	___fladd@b+3,w
  6198  00C8' 0426'              	iorwf	___fladd@b+2,w
  6199  00C9' 0425'              	iorwf	___fladd@b+1,w
  6200  00CA' 0424'              	iorwf	___fladd@b,w
  6201  00CB' 1D03               	skipz
  6202  00CC' 2800'              	goto	u2741
  6203  00CD' 2800'              	goto	u2740
  6204  00CE'                    u2741:	
  6205  00CE' 3001               	movlw	1
  6206  00CF' 2800'              	goto	u2750
  6207  00D0'                    u2740:	
  6208  00D0' 3000               	movlw	0
  6209  00D1'                    u2750:	
  6210  00D1' 00AC'              	movwf	??___fladd
  6211  00D2' 082C'              	movf	??___fladd,w
  6212  00D3' 00B7'              	movwf	___fladd@grs
  6213  00D4' 3000               	movlw	0
  6214  00D5' 00A7'              	movwf	___fladd@b+3
  6215  00D6' 3000               	movlw	0
  6216  00D7' 00A6'              	movwf	___fladd@b+2
  6217  00D8' 3000               	movlw	0
  6218  00D9' 00A5'              	movwf	___fladd@b+1
  6219  00DA' 3000               	movlw	0
  6220  00DB' 00A4'              	movwf	___fladd@b
  6221  00DC' 0835'              	movf	___fladd@aexp,w
  6222  00DD' 00AC'              	movwf	??___fladd
  6223  00DE' 082C'              	movf	??___fladd,w
  6224  00DF' 00B6'              	movwf	___fladd@bexp
  6225  00E0' 2800'              	goto	l571
  6226  00E1'                    l573:	
  6227  00E1' 1C37'              	btfss	___fladd@grs,0
  6228  00E2' 2800'              	goto	u2761
  6229  00E3' 2800'              	goto	u2760
  6230  00E4'                    u2761:	
  6231  00E4' 2800'              	goto	l2212
  6232  00E5'                    u2760:	
  6233  00E5'                    l2210:	
  6234  00E5' 0837'              	movf	___fladd@grs,w
  6235  00E6' 00AC'              	movwf	??___fladd
  6236  00E7' 1003               	clrc
  6237  00E8' 0C2C'              	rrf	??___fladd,w
  6238  00E9' 3801               	iorlw	1
  6239  00EA' 00AD'              	movwf	??___fladd+1
  6240  00EB' 082D'              	movf	??___fladd+1,w
  6241  00EC' 00B7'              	movwf	___fladd@grs
  6242  00ED' 2800'              	goto	l2214
  6243  00EE'                    l2212:	
  6244  00EE' 1003               	clrc
  6245  00EF' 0CB7'              	rrf	___fladd@grs,f
  6246  00F0'                    l2214:	
  6247  00F0' 1C24'              	btfss	___fladd@b,0
  6248  00F1' 2800'              	goto	u2771
  6249  00F2' 2800'              	goto	u2770
  6250  00F3'                    u2771:	
  6251  00F3' 2800'              	goto	l2218
  6252  00F4'                    u2770:	
  6253  00F4'                    l2216:	
  6254  00F4' 17B7'              	bsf	___fladd@grs,7
  6255  00F5'                    l2218:	
  6256  00F5' 3001               	movlw	1
  6257  00F6' 00AC'              	movwf	??___fladd
  6258  00F7'                    u2785:	
  6259  00F7' 0D27'              	rlf	___fladd@b+3,w
  6260  00F8' 0CA7'              	rrf	___fladd@b+3,f
  6261  00F9' 0CA6'              	rrf	___fladd@b+2,f
  6262  00FA' 0CA5'              	rrf	___fladd@b+1,f
  6263  00FB' 0CA4'              	rrf	___fladd@b,f
  6264  00FC' 0B80'              	decfsz	??___fladd& (0+127),f
  6265  00FD' 2800'              	goto	u2785
  6266  00FE'                    l2220:	
  6267  00FE' 3001               	movlw	1
  6268  00FF' 00AC'              	movwf	??___fladd
  6269  0100' 082C'              	movf	??___fladd,w
  6270  0101' 07B6'              	addwf	___fladd@bexp,f
  6271  0102'                    l2222:	
  6272  0102' 1283               	bcf	3,5	;RP0=0, select bank0
  6273  0103' 1303               	bcf	3,6	;RP1=0, select bank0
  6274  0104' 0835'              	movf	___fladd@aexp,w
  6275  0105' 0236'              	subwf	___fladd@bexp,w
  6276  0106' 1C03               	skipc
  6277  0107' 2800'              	goto	u2791
  6278  0108' 2800'              	goto	u2790
  6279  0109'                    u2791:	
  6280  0109' 2800'              	goto	l573
  6281  010A'                    u2790:	
  6282  010A'                    l571:	
  6283  010A' 1B34'              	btfsc	___fladd@signs,6
  6284  010B' 2800'              	goto	u2801
  6285  010C' 2800'              	goto	u2800
  6286  010D'                    u2801:	
  6287  010D' 2800'              	goto	l2248
  6288  010E'                    u2800:	
  6289  010E'                    l2224:	
  6290  010E' 0836'              	movf	___fladd@bexp,w
  6291  010F' 1D03               	btfss	3,2
  6292  0110' 2800'              	goto	u2811
  6293  0111' 2800'              	goto	u2810
  6294  0112'                    u2811:	
  6295  0112' 2800'              	goto	l2230
  6296  0113'                    u2810:	
  6297  0113'                    l2226:	
  6298  0113' 3000               	movlw	0
  6299  0114' 00A7'              	movwf	?___fladd+3
  6300  0115' 3000               	movlw	0
  6301  0116' 00A6'              	movwf	?___fladd+2
  6302  0117' 3000               	movlw	0
  6303  0118' 00A5'              	movwf	?___fladd+1
  6304  0119' 3000               	movlw	0
  6305  011A' 00A4'              	movwf	?___fladd
  6306  011B' 2800'              	goto	l580
  6307  011C'                    l2230:	
  6308  011C' 0828'              	movf	___fladd@a,w
  6309  011D' 07A4'              	addwf	___fladd@b,f
  6310  011E' 0829'              	movf	___fladd@a+1,w
  6311  011F' 1103               	clrz
  6312  0120' 1803               	skipnc
  6313  0121' 3E01               	addlw	1
  6314  0122' 1903               	skipnz
  6315  0123' 2800'              	goto	u2821
  6316  0124' 07A5'              	addwf	___fladd@b+1,f
  6317  0125'                    u2821:	
  6318  0125' 082A'              	movf	___fladd@a+2,w
  6319  0126' 1103               	clrz
  6320  0127' 1803               	skipnc
  6321  0128' 3E01               	addlw	1
  6322  0129' 1903               	skipnz
  6323  012A' 2800'              	goto	u2822
  6324  012B' 07A6'              	addwf	___fladd@b+2,f
  6325  012C'                    u2822:	
  6326  012C' 082B'              	movf	___fladd@a+3,w
  6327  012D' 1103               	clrz
  6328  012E' 1803               	skipnc
  6329  012F' 3E01               	addlw	1
  6330  0130' 1903               	skipnz
  6331  0131' 2800'              	goto	u2823
  6332  0132' 07A7'              	addwf	___fladd@b+3,f
  6333  0133'                    u2823:	
  6334  0133'                    l2232:	
  6335  0133' 1C27'              	btfss	___fladd@b+3,0
  6336  0134' 2800'              	goto	u2831
  6337  0135' 2800'              	goto	u2830
  6338  0136'                    u2831:	
  6339  0136' 2800'              	goto	l2282
  6340  0137'                    u2830:	
  6341  0137'                    l2234:	
  6342  0137' 1C37'              	btfss	___fladd@grs,0
  6343  0138' 2800'              	goto	u2841
  6344  0139' 2800'              	goto	u2840
  6345  013A'                    u2841:	
  6346  013A' 2800'              	goto	l2238
  6347  013B'                    u2840:	
  6348  013B'                    l2236:	
  6349  013B' 0837'              	movf	___fladd@grs,w
  6350  013C' 00AC'              	movwf	??___fladd
  6351  013D' 1003               	clrc
  6352  013E' 0C2C'              	rrf	??___fladd,w
  6353  013F' 3801               	iorlw	1
  6354  0140' 00AD'              	movwf	??___fladd+1
  6355  0141' 082D'              	movf	??___fladd+1,w
  6356  0142' 00B7'              	movwf	___fladd@grs
  6357  0143' 2800'              	goto	l2240
  6358  0144'                    l2238:	
  6359  0144' 1003               	clrc
  6360  0145' 0CB7'              	rrf	___fladd@grs,f
  6361  0146'                    l2240:	
  6362  0146' 1C24'              	btfss	___fladd@b,0
  6363  0147' 2800'              	goto	u2851
  6364  0148' 2800'              	goto	u2850
  6365  0149'                    u2851:	
  6366  0149' 2800'              	goto	l2244
  6367  014A'                    u2850:	
  6368  014A'                    l2242:	
  6369  014A' 17B7'              	bsf	___fladd@grs,7
  6370  014B'                    l2244:	
  6371  014B' 3001               	movlw	1
  6372  014C' 00AC'              	movwf	??___fladd
  6373  014D'                    u2865:	
  6374  014D' 0D27'              	rlf	___fladd@b+3,w
  6375  014E' 0CA7'              	rrf	___fladd@b+3,f
  6376  014F' 0CA6'              	rrf	___fladd@b+2,f
  6377  0150' 0CA5'              	rrf	___fladd@b+1,f
  6378  0151' 0CA4'              	rrf	___fladd@b,f
  6379  0152' 0B80'              	decfsz	??___fladd& (0+127),f
  6380  0153' 2800'              	goto	u2865
  6381  0154'                    l2246:	
  6382  0154' 3001               	movlw	1
  6383  0155' 00AC'              	movwf	??___fladd
  6384  0156' 082C'              	movf	??___fladd,w
  6385  0157' 07B6'              	addwf	___fladd@bexp,f
  6386  0158' 2800'              	goto	l2282
  6387  0159'                    l2248:	
  6388  0159' 0827'              	movf	___fladd@b+3,w
  6389  015A' 3A80               	xorlw	128
  6390  015B' 00FF               	movwf	btemp+1
  6391  015C' 082B'              	movf	___fladd@a+3,w
  6392  015D' 3A80               	xorlw	128
  6393  015E' 027F               	subwf	btemp+1,w
  6394  015F' 1D03               	skipz
  6395  0160' 2800'              	goto	u2873
  6396  0161' 082A'              	movf	___fladd@a+2,w
  6397  0162' 0226'              	subwf	___fladd@b+2,w
  6398  0163' 1D03               	skipz
  6399  0164' 2800'              	goto	u2873
  6400  0165' 0829'              	movf	___fladd@a+1,w
  6401  0166' 0225'              	subwf	___fladd@b+1,w
  6402  0167' 1D03               	skipz
  6403  0168' 2800'              	goto	u2873
  6404  0169' 0828'              	movf	___fladd@a,w
  6405  016A' 0224'              	subwf	___fladd@b,w
  6406  016B'                    u2873:	
  6407  016B' 1803               	skipnc
  6408  016C' 2800'              	goto	u2871
  6409  016D' 2800'              	goto	u2870
  6410  016E'                    u2871:	
  6411  016E' 2800'              	goto	l2258
  6412  016F'                    u2870:	
  6413  016F'                    l2250:	
  6414  016F' 30FF               	movlw	255
  6415  0170' 00AC'              	movwf	??___fladd
  6416  0171' 30FF               	movlw	255
  6417  0172' 00AD'              	movwf	??___fladd+1
  6418  0173' 30FF               	movlw	255
  6419  0174' 00AE'              	movwf	??___fladd+2
  6420  0175' 30FF               	movlw	255
  6421  0176' 00AF'              	movwf	??___fladd+3
  6422  0177' 0828'              	movf	___fladd@a,w
  6423  0178' 00B0'              	movwf	??___fladd+4
  6424  0179' 0829'              	movf	___fladd@a+1,w
  6425  017A' 00B1'              	movwf	??___fladd+5
  6426  017B' 082A'              	movf	___fladd@a+2,w
  6427  017C' 00B2'              	movwf	??___fladd+6
  6428  017D' 082B'              	movf	___fladd@a+3,w
  6429  017E' 00B3'              	movwf	??___fladd+7
  6430  017F' 0824'              	movf	___fladd@b,w
  6431  0180' 02B0'              	subwf	??___fladd+4,f
  6432  0181' 0825'              	movf	___fladd@b+1,w
  6433  0182' 1C03               	skipc
  6434  0183' 0F25'              	incfsz	___fladd@b+1,w
  6435  0184' 2800'              	goto	u2881
  6436  0185' 2800'              	goto	u2882
  6437  0186'                    u2881:	
  6438  0186' 02B1'              	subwf	??___fladd+5,f
  6439  0187'                    u2882:	
  6440  0187' 0826'              	movf	___fladd@b+2,w
  6441  0188' 1C03               	skipc
  6442  0189' 0F26'              	incfsz	___fladd@b+2,w
  6443  018A' 2800'              	goto	u2883
  6444  018B' 2800'              	goto	u2884
  6445  018C'                    u2883:	
  6446  018C' 02B2'              	subwf	??___fladd+6,f
  6447  018D'                    u2884:	
  6448  018D' 0827'              	movf	___fladd@b+3,w
  6449  018E' 1C03               	skipc
  6450  018F' 0F27'              	incfsz	___fladd@b+3,w
  6451  0190' 2800'              	goto	u2885
  6452  0191' 2800'              	goto	u2886
  6453  0192'                    u2885:	
  6454  0192' 02B3'              	subwf	??___fladd+7,f
  6455  0193'                    u2886:	
  6456  0193' 0830'              	movf	??___fladd+4,w
  6457  0194' 07AC'              	addwf	??___fladd,f
  6458  0195' 0831'              	movf	??___fladd+5,w
  6459  0196' 1803               	skipnc
  6460  0197' 0F31'              	incfsz	??___fladd+5,w
  6461  0198' 2800'              	goto	u2890
  6462  0199' 2800'              	goto	u2891
  6463  019A'                    u2890:	
  6464  019A' 07AD'              	addwf	??___fladd+1,f
  6465  019B'                    u2891:	
  6466  019B' 0832'              	movf	??___fladd+6,w
  6467  019C' 1803               	skipnc
  6468  019D' 0F32'              	incfsz	??___fladd+6,w
  6469  019E' 2800'              	goto	u2892
  6470  019F' 2800'              	goto	u2893
  6471  01A0'                    u2892:	
  6472  01A0' 07AE'              	addwf	??___fladd+2,f
  6473  01A1'                    u2893:	
  6474  01A1' 0833'              	movf	??___fladd+7,w
  6475  01A2' 1803               	skipnc
  6476  01A3' 0A33'              	incf	??___fladd+7,w
  6477  01A4' 07AF'              	addwf	??___fladd+3,f
  6478  01A5' 082F'              	movf	??___fladd+3,w
  6479  01A6' 00A7'              	movwf	___fladd@b+3
  6480  01A7' 082E'              	movf	??___fladd+2,w
  6481  01A8' 00A6'              	movwf	___fladd@b+2
  6482  01A9' 082D'              	movf	??___fladd+1,w
  6483  01AA' 00A5'              	movwf	___fladd@b+1
  6484  01AB' 082C'              	movf	??___fladd,w
  6485  01AC' 00A4'              	movwf	___fladd@b
  6486  01AD'                    l2252:	
  6487  01AD' 3080               	movlw	128
  6488  01AE' 00AC'              	movwf	??___fladd
  6489  01AF' 082C'              	movf	??___fladd,w
  6490  01B0' 06B4'              	xorwf	___fladd@signs,f
  6491  01B1' 09B7'              	comf	___fladd@grs,f
  6492  01B2' 0AB7'              	incf	___fladd@grs,f
  6493  01B3'                    l2254:	
  6494  01B3' 0837'              	movf	___fladd@grs,w
  6495  01B4' 1D03               	btfss	3,2
  6496  01B5' 2800'              	goto	u2901
  6497  01B6' 2800'              	goto	u2900
  6498  01B7'                    u2901:	
  6499  01B7' 2800'              	goto	l588
  6500  01B8'                    u2900:	
  6501  01B8'                    l2256:	
  6502  01B8' 3001               	movlw	1
  6503  01B9' 07A4'              	addwf	___fladd@b,f
  6504  01BA' 3000               	movlw	0
  6505  01BB' 1803               	skipnc
  6506  01BC' 3001               	movlw	1
  6507  01BD' 07A5'              	addwf	___fladd@b+1,f
  6508  01BE' 3000               	movlw	0
  6509  01BF' 1803               	skipnc
  6510  01C0' 3001               	movlw	1
  6511  01C1' 07A6'              	addwf	___fladd@b+2,f
  6512  01C2' 3000               	movlw	0
  6513  01C3' 1803               	skipnc
  6514  01C4' 3001               	movlw	1
  6515  01C5' 07A7'              	addwf	___fladd@b+3,f
  6516  01C6' 2800'              	goto	l588
  6517  01C7'                    l2258:	
  6518  01C7' 0828'              	movf	___fladd@a,w
  6519  01C8' 02A4'              	subwf	___fladd@b,f
  6520  01C9' 0829'              	movf	___fladd@a+1,w
  6521  01CA' 1C03               	skipc
  6522  01CB' 0F29'              	incfsz	___fladd@a+1,w
  6523  01CC' 02A5'              	subwf	___fladd@b+1,f
  6524  01CD' 082A'              	movf	___fladd@a+2,w
  6525  01CE' 1C03               	skipc
  6526  01CF' 0F2A'              	incfsz	___fladd@a+2,w
  6527  01D0' 02A6'              	subwf	___fladd@b+2,f
  6528  01D1' 082B'              	movf	___fladd@a+3,w
  6529  01D2' 1C03               	skipc
  6530  01D3' 0F2B'              	incfsz	___fladd@a+3,w
  6531  01D4' 02A7'              	subwf	___fladd@b+3,f
  6532  01D5'                    l588:	
  6533  01D5' 0827'              	movf	___fladd@b+3,w
  6534  01D6' 0426'              	iorwf	___fladd@b+2,w
  6535  01D7' 0425'              	iorwf	___fladd@b+1,w
  6536  01D8' 0424'              	iorwf	___fladd@b,w
  6537  01D9' 1D03               	skipz
  6538  01DA' 2800'              	goto	u2911
  6539  01DB' 2800'              	goto	u2910
  6540  01DC'                    u2911:	
  6541  01DC' 2800'              	goto	l2280
  6542  01DD'                    u2910:	
  6543  01DD'                    l2260:	
  6544  01DD' 0837'              	movf	___fladd@grs,w
  6545  01DE' 1D03               	btfss	3,2
  6546  01DF' 2800'              	goto	u2921
  6547  01E0' 2800'              	goto	u2920
  6548  01E1'                    u2921:	
  6549  01E1' 2800'              	goto	l2280
  6550  01E2'                    u2920:	
  6551  01E2'                    l2262:	
  6552  01E2' 3000               	movlw	0
  6553  01E3' 00A7'              	movwf	?___fladd+3
  6554  01E4' 3000               	movlw	0
  6555  01E5' 00A6'              	movwf	?___fladd+2
  6556  01E6' 3000               	movlw	0
  6557  01E7' 00A5'              	movwf	?___fladd+1
  6558  01E8' 3000               	movlw	0
  6559  01E9' 00A4'              	movwf	?___fladd
  6560  01EA' 2800'              	goto	l580
  6561  01EB'                    l2266:	
  6562  01EB' 3001               	movlw	1
  6563  01EC' 00AC'              	movwf	??___fladd
  6564  01ED'                    u2935:	
  6565  01ED' 1003               	clrc
  6566  01EE' 0DA4'              	rlf	___fladd@b,f
  6567  01EF' 0DA5'              	rlf	___fladd@b+1,f
  6568  01F0' 0DA6'              	rlf	___fladd@b+2,f
  6569  01F1' 0DA7'              	rlf	___fladd@b+3,f
  6570  01F2' 0BAC'              	decfsz	??___fladd,f
  6571  01F3' 2800'              	goto	u2935
  6572  01F4'                    l2268:	
  6573  01F4' 1FB7'              	btfss	___fladd@grs,7
  6574  01F5' 2800'              	goto	u2941
  6575  01F6' 2800'              	goto	u2940
  6576  01F7'                    u2941:	
  6577  01F7' 2800'              	goto	l592
  6578  01F8'                    u2940:	
  6579  01F8'                    l2270:	
  6580  01F8' 1424'              	bsf	___fladd@b,0
  6581  01F9'                    l592:	
  6582  01F9' 1C37'              	btfss	___fladd@grs,0
  6583  01FA' 2800'              	goto	u2951
  6584  01FB' 2800'              	goto	u2950
  6585  01FC'                    u2951:	
  6586  01FC' 2800'              	goto	l2274
  6587  01FD'                    u2950:	
  6588  01FD'                    l2272:	
  6589  01FD' 1403               	setc
  6590  01FE' 0DB7'              	rlf	___fladd@grs,f
  6591  01FF' 2800'              	goto	l2276
  6592  0200'                    l2274:	
  6593  0200' 1003               	clrc
  6594  0201' 0DB7'              	rlf	___fladd@grs,f
  6595  0202'                    l2276:	
  6596  0202' 0836'              	movf	___fladd@bexp,w
  6597  0203' 1903               	btfsc	3,2
  6598  0204' 2800'              	goto	u2961
  6599  0205' 2800'              	goto	u2960
  6600  0206'                    u2961:	
  6601  0206' 2800'              	goto	l2280
  6602  0207'                    u2960:	
  6603  0207'                    l2278:	
  6604  0207' 3001               	movlw	1
  6605  0208' 02B6'              	subwf	___fladd@bexp,f
  6606  0209'                    l2280:	
  6607  0209' 1FA6'              	btfss	___fladd@b+2,7
  6608  020A' 2800'              	goto	u2971
  6609  020B' 2800'              	goto	u2970
  6610  020C'                    u2971:	
  6611  020C' 2800'              	goto	l2266
  6612  020D'                    u2970:	
  6613  020D'                    l2282:	
  6614  020D' 01B5'              	clrf	___fladd@aexp
  6615  020E'                    l2284:	
  6616  020E' 1FB7'              	btfss	___fladd@grs,7
  6617  020F' 2800'              	goto	u2981
  6618  0210' 2800'              	goto	u2980
  6619  0211'                    u2981:	
  6620  0211' 2800'              	goto	l2292
  6621  0212'                    u2980:	
  6622  0212'                    l2286:	
  6623  0212' 0837'              	movf	___fladd@grs,w
  6624  0213' 397F               	andlw	127
  6625  0214' 1903               	btfsc	3,2
  6626  0215' 2800'              	goto	u2991
  6627  0216' 2800'              	goto	u2990
  6628  0217'                    u2991:	
  6629  0217' 2800'              	goto	l598
  6630  0218'                    u2990:	
  6631  0218'                    l2288:	
  6632  0218' 01B5'              	clrf	___fladd@aexp
  6633  0219' 0AB5'              	incf	___fladd@aexp,f
  6634  021A' 2800'              	goto	l2292
  6635  021B'                    l598:	
  6636  021B' 1C24'              	btfss	___fladd@b,0
  6637  021C' 2800'              	goto	u3001
  6638  021D' 2800'              	goto	u3000
  6639  021E'                    u3001:	
  6640  021E' 2800'              	goto	l2292
  6641  021F'                    u3000:	
  6642  021F' 2800'              	goto	l2288
  6643  0220'                    l2292:	
  6644  0220' 0835'              	movf	___fladd@aexp,w
  6645  0221' 1903               	btfsc	3,2
  6646  0222' 2800'              	goto	u3011
  6647  0223' 2800'              	goto	u3010
  6648  0224'                    u3011:	
  6649  0224' 2800'              	goto	l601
  6650  0225'                    u3010:	
  6651  0225'                    l2294:	
  6652  0225' 3001               	movlw	1
  6653  0226' 07A4'              	addwf	___fladd@b,f
  6654  0227' 3000               	movlw	0
  6655  0228' 1803               	skipnc
  6656  0229' 3001               	movlw	1
  6657  022A' 07A5'              	addwf	___fladd@b+1,f
  6658  022B' 3000               	movlw	0
  6659  022C' 1803               	skipnc
  6660  022D' 3001               	movlw	1
  6661  022E' 07A6'              	addwf	___fladd@b+2,f
  6662  022F' 3000               	movlw	0
  6663  0230' 1803               	skipnc
  6664  0231' 3001               	movlw	1
  6665  0232' 07A7'              	addwf	___fladd@b+3,f
  6666  0233'                    l2296:	
  6667  0233' 1C27'              	btfss	___fladd@b+3,0
  6668  0234' 2800'              	goto	u3021
  6669  0235' 2800'              	goto	u3020
  6670  0236'                    u3021:	
  6671  0236' 2800'              	goto	l601
  6672  0237'                    u3020:	
  6673  0237'                    l2298:	
  6674  0237' 0824'              	movf	___fladd@b,w
  6675  0238' 00AC'              	movwf	??___fladd
  6676  0239' 0825'              	movf	___fladd@b+1,w
  6677  023A' 00AD'              	movwf	??___fladd+1
  6678  023B' 0826'              	movf	___fladd@b+2,w
  6679  023C' 00AE'              	movwf	??___fladd+2
  6680  023D' 0827'              	movf	___fladd@b+3,w
  6681  023E' 00AF'              	movwf	??___fladd+3
  6682  023F' 3001               	movlw	1
  6683  0240' 00B0'              	movwf	??___fladd+4
  6684  0241'                    u3035:	
  6685  0241' 0D2F'              	rlf	??___fladd+3,w
  6686  0242' 0CAF'              	rrf	??___fladd+3,f
  6687  0243' 0CAE'              	rrf	??___fladd+2,f
  6688  0244' 0CAD'              	rrf	??___fladd+1,f
  6689  0245' 0CAC'              	rrf	??___fladd,f
  6690  0246'                    u3030:	
  6691  0246' 0BB0'              	decfsz	??___fladd+4,f
  6692  0247' 2800'              	goto	u3035
  6693  0248' 082F'              	movf	??___fladd+3,w
  6694  0249' 00A7'              	movwf	___fladd@b+3
  6695  024A' 082E'              	movf	??___fladd+2,w
  6696  024B' 00A6'              	movwf	___fladd@b+2
  6697  024C' 082D'              	movf	??___fladd+1,w
  6698  024D' 00A5'              	movwf	___fladd@b+1
  6699  024E' 082C'              	movf	??___fladd,w
  6700  024F' 00A4'              	movwf	___fladd@b
  6701  0250' 0A36'              	incf	___fladd@bexp,w
  6702  0251' 1903               	btfsc	3,2
  6703  0252' 2800'              	goto	u3041
  6704  0253' 2800'              	goto	u3040
  6705  0254'                    u3041:	
  6706  0254' 2800'              	goto	l601
  6707  0255'                    u3040:	
  6708  0255'                    l2300:	
  6709  0255' 3001               	movlw	1
  6710  0256' 00AC'              	movwf	??___fladd
  6711  0257' 082C'              	movf	??___fladd,w
  6712  0258' 07B6'              	addwf	___fladd@bexp,f
  6713  0259'                    l601:	
  6714  0259' 0A36'              	incf	___fladd@bexp,w
  6715  025A' 1903               	btfsc	3,2
  6716  025B' 2800'              	goto	u3051
  6717  025C' 2800'              	goto	u3050
  6718  025D'                    u3051:	
  6719  025D' 2800'              	goto	l2304
  6720  025E'                    u3050:	
  6721  025E'                    l2302:	
  6722  025E' 0836'              	movf	___fladd@bexp,w
  6723  025F' 1D03               	btfss	3,2
  6724  0260' 2800'              	goto	u3061
  6725  0261' 2800'              	goto	u3060
  6726  0262'                    u3061:	
  6727  0262' 2800'              	goto	l2310
  6728  0263'                    u3060:	
  6729  0263'                    l2304:	
  6730  0263' 3000               	movlw	0
  6731  0264' 00A7'              	movwf	___fladd@b+3
  6732  0265' 3000               	movlw	0
  6733  0266' 00A6'              	movwf	___fladd@b+2
  6734  0267' 3000               	movlw	0
  6735  0268' 00A5'              	movwf	___fladd@b+1
  6736  0269' 3000               	movlw	0
  6737  026A' 00A4'              	movwf	___fladd@b
  6738  026B'                    l2306:	
  6739  026B' 0836'              	movf	___fladd@bexp,w
  6740  026C' 1D03               	btfss	3,2
  6741  026D' 2800'              	goto	u3071
  6742  026E' 2800'              	goto	u3070
  6743  026F'                    u3071:	
  6744  026F' 2800'              	goto	l2310
  6745  0270'                    u3070:	
  6746  0270'                    l2308:	
  6747  0270' 01B4'              	clrf	___fladd@signs
  6748  0271'                    l2310:	
  6749  0271' 1C36'              	btfss	___fladd@bexp,0
  6750  0272' 2800'              	goto	u3081
  6751  0273' 2800'              	goto	u3080
  6752  0274'                    u3081:	
  6753  0274' 2800'              	goto	l2314
  6754  0275'                    u3080:	
  6755  0275'                    l2312:	
  6756  0275' 17A6'              	bsf	___fladd@b+2,7
  6757  0276' 2800'              	goto	l609
  6758  0277'                    l2314:	
  6759  0277' 307F               	movlw	127
  6760  0278' 00AC'              	movwf	??___fladd
  6761  0279' 082C'              	movf	??___fladd,w
  6762  027A' 05A6'              	andwf	___fladd@b+2,f
  6763  027B'                    l609:	
  6764  027B' 0836'              	movf	___fladd@bexp,w
  6765  027C' 00AC'              	movwf	??___fladd
  6766  027D' 1003               	clrc
  6767  027E' 0C2C'              	rrf	??___fladd,w
  6768  027F' 00AD'              	movwf	??___fladd+1
  6769  0280' 082D'              	movf	??___fladd+1,w
  6770  0281' 00A7'              	movwf	___fladd@b+3
  6771  0282'                    l2316:	
  6772  0282' 1FB4'              	btfss	___fladd@signs,7
  6773  0283' 2800'              	goto	u3091
  6774  0284' 2800'              	goto	u3090
  6775  0285'                    u3091:	
  6776  0285' 2800'              	goto	l610
  6777  0286'                    u3090:	
  6778  0286'                    l2318:	
  6779  0286' 17A7'              	bsf	___fladd@b+3,7
  6780  0287'                    l610:	
  6781  0287'                    l580:	
  6782  0287' 0008               	return
  6783  0288'                    __end_of___fladd:	
  6784                           
  6785                           	psect	text23
  6786  0000'                    __ptext23:	
  6787 ;; *************** function ___flmul *****************
  6788 ;; Defined at:
  6789 ;;		line 8 in file "C:\Program Files (x86)\Microchip\xc8\v2.10\pic\sources\c90\common\sprcmul.c"
  6790 ;; Parameters:    Size  Location     Type
  6791 ;;  b               4   64[BANK0 ] unsigned char 
  6792 ;;  a               4   68[BANK0 ] unsigned char 
  6793 ;; Auto vars:     Size  Location     Type
  6794 ;;  prod            4    7[BANK1 ] struct .
  6795 ;;  grs             4    1[BANK1 ] unsigned long 
  6796 ;;  temp            2   11[BANK1 ] struct .
  6797 ;;  bexp            1    6[BANK1 ] unsigned char 
  6798 ;;  aexp            1    5[BANK1 ] unsigned char 
  6799 ;;  sign            1    0[BANK1 ] unsigned char 
  6800 ;; Return value:  Size  Location     Type
  6801 ;;                  4   64[BANK0 ] unsigned char 
  6802 ;; Registers used:
  6803 ;;		wreg, status,2, status,0, btemp+1, pclath, cstack
  6804 ;; Tracked objects:
  6805 ;;		On entry : 0/0
  6806 ;;		On exit  : 0/0
  6807 ;;		Unchanged: 0/0
  6808 ;; Data sizes:     COMMON   BANK0   BANK1   BANK3   BANK2
  6809 ;;      Params:         0       8       0       0       0
  6810 ;;      Locals:         0       0      13       0       0
  6811 ;;      Temps:          0       5       0       0       0
  6812 ;;      Totals:         0      13      13       0       0
  6813 ;;Total ram usage:       26 bytes
  6814 ;; Hardware stack levels used:    1
  6815 ;; Hardware stack levels required when called:    1
  6816 ;; This function calls:
  6817 ;;		__Umul8_16
  6818 ;; This function is called by:
  6819 ;;		_pimf
  6820 ;; This function uses a non-reentrant model
  6821 ;;
  6822                           
  6823                           
  6824                           ;psect for function ___flmul
  6825  0000'                    ___flmul:	
  6826  0000'                    l2586:	
  6827                           ;incstack = 0
  6828                           ; Regs used in ___flmul: [wreg+status,2+status,0+btemp+1+pclath+cstack]
  6829                           
  6830  0000' 1283               	bcf	3,5	;RP0=0, select bank0
  6831  0001' 1303               	bcf	3,6	;RP1=0, select bank0
  6832  0002' 0843'              	movf	___flmul@b+3,w
  6833  0003' 3980               	andlw	128
  6834  0004' 00C8'              	movwf	??___flmul
  6835  0005' 0848'              	movf	??___flmul,w
  6836  0006' 1683               	bsf	3,5	;RP0=1, select bank1
  6837  0007' 1303               	bcf	3,6	;RP1=0, select bank1
  6838  0008' 0080'              	movwf	___flmul@sign^(0+128)
  6839  0009'                    l2588:	
  6840  0009' 1283               	bcf	3,5	;RP0=0, select bank0
  6841  000A' 1303               	bcf	3,6	;RP1=0, select bank0
  6842  000B' 0843'              	movf	___flmul@b+3,w
  6843  000C' 00C8'              	movwf	??___flmul
  6844  000D' 0748'              	addwf	??___flmul,w
  6845  000E' 00C9'              	movwf	??___flmul+1
  6846  000F' 0849'              	movf	??___flmul+1,w
  6847  0010' 1683               	bsf	3,5	;RP0=1, select bank1
  6848  0011' 1303               	bcf	3,6	;RP1=0, select bank1
  6849  0012' 0080'              	movwf	___flmul@bexp^(0+128)
  6850  0013'                    l2590:	
  6851  0013' 1283               	bcf	3,5	;RP0=0, select bank0
  6852  0014' 1303               	bcf	3,6	;RP1=0, select bank0
  6853  0015' 1FC2'              	btfss	___flmul@b+2,7
  6854  0016' 2800'              	goto	u3721
  6855  0017' 2800'              	goto	u3720
  6856  0018'                    u3721:	
  6857  0018' 2800'              	goto	l2594
  6858  0019'                    u3720:	
  6859  0019'                    l2592:	
  6860  0019' 1683               	bsf	3,5	;RP0=1, select bank1
  6861  001A' 1303               	bcf	3,6	;RP1=0, select bank1
  6862  001B' 1400'              	bsf	___flmul@bexp^(0+128),0
  6863  001C'                    l2594:	
  6864  001C' 1683               	bsf	3,5	;RP0=1, select bank1
  6865  001D' 1303               	bcf	3,6	;RP1=0, select bank1
  6866  001E' 0800'              	movf	___flmul@bexp^(0+128),w
  6867  001F' 1903               	btfsc	3,2
  6868  0020' 2800'              	goto	u3731
  6869  0021' 2800'              	goto	u3730
  6870  0022'                    u3731:	
  6871  0022' 2800'              	goto	l2602
  6872  0023'                    u3730:	
  6873  0023'                    l2596:	
  6874  0023' 0A00'              	incf	___flmul@bexp^(0+128),w
  6875  0024' 1D03               	btfss	3,2
  6876  0025' 2800'              	goto	u3741
  6877  0026' 2800'              	goto	u3740
  6878  0027'                    u3741:	
  6879  0027' 2800'              	goto	l2600
  6880  0028'                    u3740:	
  6881  0028'                    l2598:	
  6882  0028' 3000               	movlw	0
  6883  0029' 1283               	bcf	3,5	;RP0=0, select bank0
  6884  002A' 1303               	bcf	3,6	;RP1=0, select bank0
  6885  002B' 00C3'              	movwf	___flmul@b+3
  6886  002C' 3000               	movlw	0
  6887  002D' 00C2'              	movwf	___flmul@b+2
  6888  002E' 3000               	movlw	0
  6889  002F' 00C1'              	movwf	___flmul@b+1
  6890  0030' 3000               	movlw	0
  6891  0031' 00C0'              	movwf	___flmul@b
  6892  0032'                    l2600:	
  6893  0032' 1283               	bcf	3,5	;RP0=0, select bank0
  6894  0033' 17C2'              	bsf	___flmul@b+2,7
  6895  0034' 2800'              	goto	l2604
  6896  0035'                    l2602:	
  6897  0035' 3000               	movlw	0
  6898  0036' 1283               	bcf	3,5	;RP0=0, select bank0
  6899  0037' 1303               	bcf	3,6	;RP1=0, select bank0
  6900  0038' 00C3'              	movwf	___flmul@b+3
  6901  0039' 3000               	movlw	0
  6902  003A' 00C2'              	movwf	___flmul@b+2
  6903  003B' 3000               	movlw	0
  6904  003C' 00C1'              	movwf	___flmul@b+1
  6905  003D' 3000               	movlw	0
  6906  003E' 00C0'              	movwf	___flmul@b
  6907  003F'                    l2604:	
  6908  003F' 0847'              	movf	___flmul@a+3,w
  6909  0040' 3980               	andlw	128
  6910  0041' 00C8'              	movwf	??___flmul
  6911  0042' 0848'              	movf	??___flmul,w
  6912  0043' 1683               	bsf	3,5	;RP0=1, select bank1
  6913  0044' 1303               	bcf	3,6	;RP1=0, select bank1
  6914  0045' 0680'              	xorwf	___flmul@sign^(0+128),f
  6915  0046'                    l2606:	
  6916  0046' 1283               	bcf	3,5	;RP0=0, select bank0
  6917  0047' 1303               	bcf	3,6	;RP1=0, select bank0
  6918  0048' 0847'              	movf	___flmul@a+3,w
  6919  0049' 00C8'              	movwf	??___flmul
  6920  004A' 0748'              	addwf	??___flmul,w
  6921  004B' 00C9'              	movwf	??___flmul+1
  6922  004C' 0849'              	movf	??___flmul+1,w
  6923  004D' 1683               	bsf	3,5	;RP0=1, select bank1
  6924  004E' 1303               	bcf	3,6	;RP1=0, select bank1
  6925  004F' 0080'              	movwf	___flmul@aexp^(0+128)
  6926  0050'                    l2608:	
  6927  0050' 1283               	bcf	3,5	;RP0=0, select bank0
  6928  0051' 1303               	bcf	3,6	;RP1=0, select bank0
  6929  0052' 1FC6'              	btfss	___flmul@a+2,7
  6930  0053' 2800'              	goto	u3751
  6931  0054' 2800'              	goto	u3750
  6932  0055'                    u3751:	
  6933  0055' 2800'              	goto	l2612
  6934  0056'                    u3750:	
  6935  0056'                    l2610:	
  6936  0056' 1683               	bsf	3,5	;RP0=1, select bank1
  6937  0057' 1303               	bcf	3,6	;RP1=0, select bank1
  6938  0058' 1400'              	bsf	___flmul@aexp^(0+128),0
  6939  0059'                    l2612:	
  6940  0059' 1683               	bsf	3,5	;RP0=1, select bank1
  6941  005A' 1303               	bcf	3,6	;RP1=0, select bank1
  6942  005B' 0800'              	movf	___flmul@aexp^(0+128),w
  6943  005C' 1903               	btfsc	3,2
  6944  005D' 2800'              	goto	u3761
  6945  005E' 2800'              	goto	u3760
  6946  005F'                    u3761:	
  6947  005F' 2800'              	goto	l2620
  6948  0060'                    u3760:	
  6949  0060'                    l2614:	
  6950  0060' 0A00'              	incf	___flmul@aexp^(0+128),w
  6951  0061' 1D03               	btfss	3,2
  6952  0062' 2800'              	goto	u3771
  6953  0063' 2800'              	goto	u3770
  6954  0064'                    u3771:	
  6955  0064' 2800'              	goto	l2618
  6956  0065'                    u3770:	
  6957  0065'                    l2616:	
  6958  0065' 3000               	movlw	0
  6959  0066' 1283               	bcf	3,5	;RP0=0, select bank0
  6960  0067' 1303               	bcf	3,6	;RP1=0, select bank0
  6961  0068' 00C7'              	movwf	___flmul@a+3
  6962  0069' 3000               	movlw	0
  6963  006A' 00C6'              	movwf	___flmul@a+2
  6964  006B' 3000               	movlw	0
  6965  006C' 00C5'              	movwf	___flmul@a+1
  6966  006D' 3000               	movlw	0
  6967  006E' 00C4'              	movwf	___flmul@a
  6968  006F'                    l2618:	
  6969  006F' 1283               	bcf	3,5	;RP0=0, select bank0
  6970  0070' 17C6'              	bsf	___flmul@a+2,7
  6971  0071' 2800'              	goto	l2622
  6972  0072'                    l2620:	
  6973  0072' 3000               	movlw	0
  6974  0073' 1283               	bcf	3,5	;RP0=0, select bank0
  6975  0074' 1303               	bcf	3,6	;RP1=0, select bank0
  6976  0075' 00C7'              	movwf	___flmul@a+3
  6977  0076' 3000               	movlw	0
  6978  0077' 00C6'              	movwf	___flmul@a+2
  6979  0078' 3000               	movlw	0
  6980  0079' 00C5'              	movwf	___flmul@a+1
  6981  007A' 3000               	movlw	0
  6982  007B' 00C4'              	movwf	___flmul@a
  6983  007C'                    l2622:	
  6984  007C' 1683               	bsf	3,5	;RP0=1, select bank1
  6985  007D' 1303               	bcf	3,6	;RP1=0, select bank1
  6986  007E' 0800'              	movf	___flmul@aexp^(0+128),w
  6987  007F' 1903               	btfsc	3,2
  6988  0080' 2800'              	goto	u3781
  6989  0081' 2800'              	goto	u3780
  6990  0082'                    u3781:	
  6991  0082' 2800'              	goto	l2626
  6992  0083'                    u3780:	
  6993  0083'                    l2624:	
  6994  0083' 0800'              	movf	___flmul@bexp^(0+128),w
  6995  0084' 1D03               	btfss	3,2
  6996  0085' 2800'              	goto	u3791
  6997  0086' 2800'              	goto	u3790
  6998  0087'                    u3791:	
  6999  0087' 2800'              	goto	l2630
  7000  0088'                    u3790:	
  7001  0088'                    l2626:	
  7002  0088' 3000               	movlw	0
  7003  0089' 1283               	bcf	3,5	;RP0=0, select bank0
  7004  008A' 1303               	bcf	3,6	;RP1=0, select bank0
  7005  008B' 00C3'              	movwf	?___flmul+3
  7006  008C' 3000               	movlw	0
  7007  008D' 00C2'              	movwf	?___flmul+2
  7008  008E' 3000               	movlw	0
  7009  008F' 00C1'              	movwf	?___flmul+1
  7010  0090' 3000               	movlw	0
  7011  0091' 00C0'              	movwf	?___flmul
  7012  0092' 2800'              	goto	l663
  7013  0093'                    l2630:	
  7014  0093' 1283               	bcf	3,5	;RP0=0, select bank0
  7015  0094' 1303               	bcf	3,6	;RP1=0, select bank0
  7016  0095' 0840'              	movf	___flmul@b,w
  7017  0096' 00C8'              	movwf	??___flmul
  7018  0097' 0848'              	movf	??___flmul,w
  7019  0098' 0080'              	movwf	__Umul8_16@multiplicand
  7020  0099' 0846'              	movf	___flmul@a+2,w
  7021  009A' 120A' 118A' 2000' 120A' 118A' 	fcall	__Umul8_16
  7022  009F' 0801'              	movf	?__Umul8_16+1,w
  7023  00A0' 1683               	bsf	3,5	;RP0=1, select bank1
  7024  00A1' 1303               	bcf	3,6	;RP1=0, select bank1
  7025  00A2' 0080'              	movwf	(___flmul@temp+1)^(0+128)
  7026  00A3' 0800'              	movf	?__Umul8_16,w
  7027  00A4' 0080'              	movwf	___flmul@temp^(0+128)
  7028  00A5'                    l2632:	
  7029  00A5' 0800'              	movf	___flmul@temp^(0+128),w
  7030  00A6' 1283               	bcf	3,5	;RP0=0, select bank0
  7031  00A7' 1303               	bcf	3,6	;RP1=0, select bank0
  7032  00A8' 00C8'              	movwf	??___flmul
  7033  00A9' 01C9'              	clrf	??___flmul+1
  7034  00AA' 01CA'              	clrf	??___flmul+2
  7035  00AB' 01CB'              	clrf	??___flmul+3
  7036  00AC' 084B'              	movf	??___flmul+3,w
  7037  00AD' 1683               	bsf	3,5	;RP0=1, select bank1
  7038  00AE' 1303               	bcf	3,6	;RP1=0, select bank1
  7039  00AF' 0080'              	movwf	(___flmul@grs+3)^(0+128)
  7040  00B0' 1283               	bcf	3,5	;RP0=0, select bank0
  7041  00B1' 1303               	bcf	3,6	;RP1=0, select bank0
  7042  00B2' 084A'              	movf	??___flmul+2,w
  7043  00B3' 1683               	bsf	3,5	;RP0=1, select bank1
  7044  00B4' 1303               	bcf	3,6	;RP1=0, select bank1
  7045  00B5' 0080'              	movwf	(___flmul@grs+2)^(0+128)
  7046  00B6' 1283               	bcf	3,5	;RP0=0, select bank0
  7047  00B7' 1303               	bcf	3,6	;RP1=0, select bank0
  7048  00B8' 0849'              	movf	??___flmul+1,w
  7049  00B9' 1683               	bsf	3,5	;RP0=1, select bank1
  7050  00BA' 1303               	bcf	3,6	;RP1=0, select bank1
  7051  00BB' 0080'              	movwf	(___flmul@grs+1)^(0+128)
  7052  00BC' 1283               	bcf	3,5	;RP0=0, select bank0
  7053  00BD' 1303               	bcf	3,6	;RP1=0, select bank0
  7054  00BE' 0848'              	movf	??___flmul,w
  7055  00BF' 1683               	bsf	3,5	;RP0=1, select bank1
  7056  00C0' 1303               	bcf	3,6	;RP1=0, select bank1
  7057  00C1' 0080'              	movwf	___flmul@grs^(0+128)
  7058  00C2'                    l2634:	
  7059  00C2' 0801'              	movf	(___flmul@temp^(0+128)+1),w
  7060  00C3' 1283               	bcf	3,5	;RP0=0, select bank0
  7061  00C4' 1303               	bcf	3,6	;RP1=0, select bank0
  7062  00C5' 00C8'              	movwf	??___flmul
  7063  00C6' 01C9'              	clrf	??___flmul+1
  7064  00C7' 01CA'              	clrf	??___flmul+2
  7065  00C8' 01CB'              	clrf	??___flmul+3
  7066  00C9' 084B'              	movf	??___flmul+3,w
  7067  00CA' 1683               	bsf	3,5	;RP0=1, select bank1
  7068  00CB' 1303               	bcf	3,6	;RP1=0, select bank1
  7069  00CC' 0080'              	movwf	(___flmul@prod+3)^(0+128)
  7070  00CD' 1283               	bcf	3,5	;RP0=0, select bank0
  7071  00CE' 1303               	bcf	3,6	;RP1=0, select bank0
  7072  00CF' 084A'              	movf	??___flmul+2,w
  7073  00D0' 1683               	bsf	3,5	;RP0=1, select bank1
  7074  00D1' 1303               	bcf	3,6	;RP1=0, select bank1
  7075  00D2' 0080'              	movwf	(___flmul@prod+2)^(0+128)
  7076  00D3' 1283               	bcf	3,5	;RP0=0, select bank0
  7077  00D4' 1303               	bcf	3,6	;RP1=0, select bank0
  7078  00D5' 0849'              	movf	??___flmul+1,w
  7079  00D6' 1683               	bsf	3,5	;RP0=1, select bank1
  7080  00D7' 1303               	bcf	3,6	;RP1=0, select bank1
  7081  00D8' 0080'              	movwf	(___flmul@prod+1)^(0+128)
  7082  00D9' 1283               	bcf	3,5	;RP0=0, select bank0
  7083  00DA' 1303               	bcf	3,6	;RP1=0, select bank0
  7084  00DB' 0848'              	movf	??___flmul,w
  7085  00DC' 1683               	bsf	3,5	;RP0=1, select bank1
  7086  00DD' 1303               	bcf	3,6	;RP1=0, select bank1
  7087  00DE' 0080'              	movwf	___flmul@prod^(0+128)
  7088  00DF' 1283               	bcf	3,5	;RP0=0, select bank0
  7089  00E0' 1303               	bcf	3,6	;RP1=0, select bank0
  7090  00E1' 0841'              	movf	___flmul@b+1,w
  7091  00E2' 00C8'              	movwf	??___flmul
  7092  00E3' 0848'              	movf	??___flmul,w
  7093  00E4' 0080'              	movwf	__Umul8_16@multiplicand
  7094  00E5' 0845'              	movf	___flmul@a+1,w
  7095  00E6' 120A' 118A' 2000' 120A' 118A' 	fcall	__Umul8_16
  7096  00EB' 0801'              	movf	?__Umul8_16+1,w
  7097  00EC' 1683               	bsf	3,5	;RP0=1, select bank1
  7098  00ED' 1303               	bcf	3,6	;RP1=0, select bank1
  7099  00EE' 0080'              	movwf	(___flmul@temp+1)^(0+128)
  7100  00EF' 0800'              	movf	?__Umul8_16,w
  7101  00F0' 0080'              	movwf	___flmul@temp^(0+128)
  7102  00F1'                    l2636:	
  7103  00F1' 0800'              	movf	___flmul@temp^(0+128),w
  7104  00F2' 1283               	bcf	3,5	;RP0=0, select bank0
  7105  00F3' 1303               	bcf	3,6	;RP1=0, select bank0
  7106  00F4' 00C8'              	movwf	??___flmul
  7107  00F5' 01C9'              	clrf	??___flmul+1
  7108  00F6' 01CA'              	clrf	??___flmul+2
  7109  00F7' 01CB'              	clrf	??___flmul+3
  7110  00F8' 0848'              	movf	??___flmul,w
  7111  00F9' 1683               	bsf	3,5	;RP0=1, select bank1
  7112  00FA' 1303               	bcf	3,6	;RP1=0, select bank1
  7113  00FB' 0780'              	addwf	___flmul@grs^(0+128),f
  7114  00FC' 1283               	bcf	3,5	;RP0=0, select bank0
  7115  00FD' 1303               	bcf	3,6	;RP1=0, select bank0
  7116  00FE' 0849'              	movf	??___flmul+1,w
  7117  00FF' 1103               	clrz
  7118  0100' 1803               	skipnc
  7119  0101' 3E01               	addlw	1
  7120  0102' 1903               	skipnz
  7121  0103' 2800'              	goto	u3801
  7122  0104' 1683               	bsf	3,5	;RP0=1, select bank1
  7123  0105' 1303               	bcf	3,6	;RP1=0, select bank1
  7124  0106' 0780'              	addwf	(___flmul@grs+1)^(0+128),f
  7125  0107'                    u3801:	
  7126  0107' 1283               	bcf	3,5	;RP0=0, select bank0
  7127  0108' 1303               	bcf	3,6	;RP1=0, select bank0
  7128  0109' 084A'              	movf	??___flmul+2,w
  7129  010A' 1103               	clrz
  7130  010B' 1803               	skipnc
  7131  010C' 3E01               	addlw	1
  7132  010D' 1903               	skipnz
  7133  010E' 2800'              	goto	u3802
  7134  010F' 1683               	bsf	3,5	;RP0=1, select bank1
  7135  0110' 1303               	bcf	3,6	;RP1=0, select bank1
  7136  0111' 0780'              	addwf	(___flmul@grs+2)^(0+128),f
  7137  0112'                    u3802:	
  7138  0112' 1283               	bcf	3,5	;RP0=0, select bank0
  7139  0113' 1303               	bcf	3,6	;RP1=0, select bank0
  7140  0114' 084B'              	movf	??___flmul+3,w
  7141  0115' 1103               	clrz
  7142  0116' 1803               	skipnc
  7143  0117' 3E01               	addlw	1
  7144  0118' 1903               	skipnz
  7145  0119' 2800'              	goto	u3803
  7146  011A' 1683               	bsf	3,5	;RP0=1, select bank1
  7147  011B' 1303               	bcf	3,6	;RP1=0, select bank1
  7148  011C' 0780'              	addwf	(___flmul@grs+3)^(0+128),f
  7149  011D'                    u3803:	
  7150  011D' 1283               	bcf	3,5	;RP0=0, select bank0
  7151  011E' 1303               	bcf	3,6	;RP1=0, select bank0
  7152  011F' 1683               	bsf	3,5	;RP0=1, select bank1
  7153  0120' 1303               	bcf	3,6	;RP1=0, select bank1
  7154  0121'                    l2638:	
  7155  0121' 0801'              	movf	(___flmul@temp^(0+128)+1),w
  7156  0122' 1283               	bcf	3,5	;RP0=0, select bank0
  7157  0123' 1303               	bcf	3,6	;RP1=0, select bank0
  7158  0124' 00C8'              	movwf	??___flmul
  7159  0125' 01C9'              	clrf	??___flmul+1
  7160  0126' 01CA'              	clrf	??___flmul+2
  7161  0127' 01CB'              	clrf	??___flmul+3
  7162  0128' 0848'              	movf	??___flmul,w
  7163  0129' 1683               	bsf	3,5	;RP0=1, select bank1
  7164  012A' 1303               	bcf	3,6	;RP1=0, select bank1
  7165  012B' 0780'              	addwf	___flmul@prod^(0+128),f
  7166  012C' 1283               	bcf	3,5	;RP0=0, select bank0
  7167  012D' 1303               	bcf	3,6	;RP1=0, select bank0
  7168  012E' 0849'              	movf	??___flmul+1,w
  7169  012F' 1103               	clrz
  7170  0130' 1803               	skipnc
  7171  0131' 3E01               	addlw	1
  7172  0132' 1903               	skipnz
  7173  0133' 2800'              	goto	u3811
  7174  0134' 1683               	bsf	3,5	;RP0=1, select bank1
  7175  0135' 1303               	bcf	3,6	;RP1=0, select bank1
  7176  0136' 0780'              	addwf	(___flmul@prod+1)^(0+128),f
  7177  0137'                    u3811:	
  7178  0137' 1283               	bcf	3,5	;RP0=0, select bank0
  7179  0138' 1303               	bcf	3,6	;RP1=0, select bank0
  7180  0139' 084A'              	movf	??___flmul+2,w
  7181  013A' 1103               	clrz
  7182  013B' 1803               	skipnc
  7183  013C' 3E01               	addlw	1
  7184  013D' 1903               	skipnz
  7185  013E' 2800'              	goto	u3812
  7186  013F' 1683               	bsf	3,5	;RP0=1, select bank1
  7187  0140' 1303               	bcf	3,6	;RP1=0, select bank1
  7188  0141' 0780'              	addwf	(___flmul@prod+2)^(0+128),f
  7189  0142'                    u3812:	
  7190  0142' 1283               	bcf	3,5	;RP0=0, select bank0
  7191  0143' 1303               	bcf	3,6	;RP1=0, select bank0
  7192  0144' 084B'              	movf	??___flmul+3,w
  7193  0145' 1103               	clrz
  7194  0146' 1803               	skipnc
  7195  0147' 3E01               	addlw	1
  7196  0148' 1903               	skipnz
  7197  0149' 2800'              	goto	u3813
  7198  014A' 1683               	bsf	3,5	;RP0=1, select bank1
  7199  014B' 1303               	bcf	3,6	;RP1=0, select bank1
  7200  014C' 0780'              	addwf	(___flmul@prod+3)^(0+128),f
  7201  014D'                    u3813:	
  7202  014D' 1283               	bcf	3,5	;RP0=0, select bank0
  7203  014E' 1303               	bcf	3,6	;RP1=0, select bank0
  7204  014F' 1683               	bsf	3,5	;RP0=1, select bank1
  7205  0150' 1303               	bcf	3,6	;RP1=0, select bank1
  7206  0151' 1283               	bcf	3,5	;RP0=0, select bank0
  7207  0152' 1303               	bcf	3,6	;RP1=0, select bank0
  7208  0153' 0842'              	movf	___flmul@b+2,w
  7209  0154' 00C8'              	movwf	??___flmul
  7210  0155' 0848'              	movf	??___flmul,w
  7211  0156' 0080'              	movwf	__Umul8_16@multiplicand
  7212  0157' 0844'              	movf	___flmul@a,w
  7213  0158' 120A' 118A' 2000' 120A' 118A' 	fcall	__Umul8_16
  7214  015D' 0801'              	movf	?__Umul8_16+1,w
  7215  015E' 1683               	bsf	3,5	;RP0=1, select bank1
  7216  015F' 1303               	bcf	3,6	;RP1=0, select bank1
  7217  0160' 0080'              	movwf	(___flmul@temp+1)^(0+128)
  7218  0161' 0800'              	movf	?__Umul8_16,w
  7219  0162' 0080'              	movwf	___flmul@temp^(0+128)
  7220  0163'                    l2640:	
  7221  0163' 0800'              	movf	___flmul@temp^(0+128),w
  7222  0164' 1283               	bcf	3,5	;RP0=0, select bank0
  7223  0165' 1303               	bcf	3,6	;RP1=0, select bank0
  7224  0166' 00C8'              	movwf	??___flmul
  7225  0167' 01C9'              	clrf	??___flmul+1
  7226  0168' 01CA'              	clrf	??___flmul+2
  7227  0169' 01CB'              	clrf	??___flmul+3
  7228  016A' 0848'              	movf	??___flmul,w
  7229  016B' 1683               	bsf	3,5	;RP0=1, select bank1
  7230  016C' 1303               	bcf	3,6	;RP1=0, select bank1
  7231  016D' 0780'              	addwf	___flmul@grs^(0+128),f
  7232  016E' 1283               	bcf	3,5	;RP0=0, select bank0
  7233  016F' 1303               	bcf	3,6	;RP1=0, select bank0
  7234  0170' 0849'              	movf	??___flmul+1,w
  7235  0171' 1103               	clrz
  7236  0172' 1803               	skipnc
  7237  0173' 3E01               	addlw	1
  7238  0174' 1903               	skipnz
  7239  0175' 2800'              	goto	u3821
  7240  0176' 1683               	bsf	3,5	;RP0=1, select bank1
  7241  0177' 1303               	bcf	3,6	;RP1=0, select bank1
  7242  0178' 0780'              	addwf	(___flmul@grs+1)^(0+128),f
  7243  0179'                    u3821:	
  7244  0179' 1283               	bcf	3,5	;RP0=0, select bank0
  7245  017A' 1303               	bcf	3,6	;RP1=0, select bank0
  7246  017B' 084A'              	movf	??___flmul+2,w
  7247  017C' 1103               	clrz
  7248  017D' 1803               	skipnc
  7249  017E' 3E01               	addlw	1
  7250  017F' 1903               	skipnz
  7251  0180' 2800'              	goto	u3822
  7252  0181' 1683               	bsf	3,5	;RP0=1, select bank1
  7253  0182' 1303               	bcf	3,6	;RP1=0, select bank1
  7254  0183' 0780'              	addwf	(___flmul@grs+2)^(0+128),f
  7255  0184'                    u3822:	
  7256  0184' 1283               	bcf	3,5	;RP0=0, select bank0
  7257  0185' 1303               	bcf	3,6	;RP1=0, select bank0
  7258  0186' 084B'              	movf	??___flmul+3,w
  7259  0187' 1103               	clrz
  7260  0188' 1803               	skipnc
  7261  0189' 3E01               	addlw	1
  7262  018A' 1903               	skipnz
  7263  018B' 2800'              	goto	u3823
  7264  018C' 1683               	bsf	3,5	;RP0=1, select bank1
  7265  018D' 1303               	bcf	3,6	;RP1=0, select bank1
  7266  018E' 0780'              	addwf	(___flmul@grs+3)^(0+128),f
  7267  018F'                    u3823:	
  7268  018F' 1283               	bcf	3,5	;RP0=0, select bank0
  7269  0190' 1303               	bcf	3,6	;RP1=0, select bank0
  7270  0191' 1683               	bsf	3,5	;RP0=1, select bank1
  7271  0192' 1303               	bcf	3,6	;RP1=0, select bank1
  7272  0193'                    l2642:	
  7273  0193' 0801'              	movf	(___flmul@temp^(0+128)+1),w
  7274  0194' 1283               	bcf	3,5	;RP0=0, select bank0
  7275  0195' 1303               	bcf	3,6	;RP1=0, select bank0
  7276  0196' 00C8'              	movwf	??___flmul
  7277  0197' 01C9'              	clrf	??___flmul+1
  7278  0198' 01CA'              	clrf	??___flmul+2
  7279  0199' 01CB'              	clrf	??___flmul+3
  7280  019A' 0848'              	movf	??___flmul,w
  7281  019B' 1683               	bsf	3,5	;RP0=1, select bank1
  7282  019C' 1303               	bcf	3,6	;RP1=0, select bank1
  7283  019D' 0780'              	addwf	___flmul@prod^(0+128),f
  7284  019E' 1283               	bcf	3,5	;RP0=0, select bank0
  7285  019F' 1303               	bcf	3,6	;RP1=0, select bank0
  7286  01A0' 0849'              	movf	??___flmul+1,w
  7287  01A1' 1103               	clrz
  7288  01A2' 1803               	skipnc
  7289  01A3' 3E01               	addlw	1
  7290  01A4' 1903               	skipnz
  7291  01A5' 2800'              	goto	u3831
  7292  01A6' 1683               	bsf	3,5	;RP0=1, select bank1
  7293  01A7' 1303               	bcf	3,6	;RP1=0, select bank1
  7294  01A8' 0780'              	addwf	(___flmul@prod+1)^(0+128),f
  7295  01A9'                    u3831:	
  7296  01A9' 1283               	bcf	3,5	;RP0=0, select bank0
  7297  01AA' 1303               	bcf	3,6	;RP1=0, select bank0
  7298  01AB' 084A'              	movf	??___flmul+2,w
  7299  01AC' 1103               	clrz
  7300  01AD' 1803               	skipnc
  7301  01AE' 3E01               	addlw	1
  7302  01AF' 1903               	skipnz
  7303  01B0' 2800'              	goto	u3832
  7304  01B1' 1683               	bsf	3,5	;RP0=1, select bank1
  7305  01B2' 1303               	bcf	3,6	;RP1=0, select bank1
  7306  01B3' 0780'              	addwf	(___flmul@prod+2)^(0+128),f
  7307  01B4'                    u3832:	
  7308  01B4' 1283               	bcf	3,5	;RP0=0, select bank0
  7309  01B5' 1303               	bcf	3,6	;RP1=0, select bank0
  7310  01B6' 084B'              	movf	??___flmul+3,w
  7311  01B7' 1103               	clrz
  7312  01B8' 1803               	skipnc
  7313  01B9' 3E01               	addlw	1
  7314  01BA' 1903               	skipnz
  7315  01BB' 2800'              	goto	u3833
  7316  01BC' 1683               	bsf	3,5	;RP0=1, select bank1
  7317  01BD' 1303               	bcf	3,6	;RP1=0, select bank1
  7318  01BE' 0780'              	addwf	(___flmul@prod+3)^(0+128),f
  7319  01BF'                    u3833:	
  7320  01BF' 1283               	bcf	3,5	;RP0=0, select bank0
  7321  01C0' 1303               	bcf	3,6	;RP1=0, select bank0
  7322  01C1' 1683               	bsf	3,5	;RP0=1, select bank1
  7323  01C2' 1303               	bcf	3,6	;RP1=0, select bank1
  7324  01C3'                    l2644:	
  7325  01C3' 3008               	movlw	8
  7326  01C4' 1283               	bcf	3,5	;RP0=0, select bank0
  7327  01C5' 1303               	bcf	3,6	;RP1=0, select bank0
  7328  01C6' 00C8'              	movwf	??___flmul
  7329  01C7'                    u3845:	
  7330  01C7' 1003               	clrc
  7331  01C8' 1683               	bsf	3,5	;RP0=1, select bank1
  7332  01C9' 1303               	bcf	3,6	;RP1=0, select bank1
  7333  01CA' 0D80'              	rlf	___flmul@grs^(0+128),f
  7334  01CB' 0D80'              	rlf	(___flmul@grs+1)^(0+128),f
  7335  01CC' 0D80'              	rlf	(___flmul@grs+2)^(0+128),f
  7336  01CD' 0D80'              	rlf	(___flmul@grs+3)^(0+128),f
  7337  01CE' 1283               	bcf	3,5	;RP0=0, select bank0
  7338  01CF' 1303               	bcf	3,6	;RP1=0, select bank0
  7339  01D0' 0BC8'              	decfsz	??___flmul,f
  7340  01D1' 2800'              	goto	u3845
  7341  01D2'                    l2646:	
  7342  01D2' 0841'              	movf	___flmul@b+1,w
  7343  01D3' 00C8'              	movwf	??___flmul
  7344  01D4' 0848'              	movf	??___flmul,w
  7345  01D5' 0080'              	movwf	__Umul8_16@multiplicand
  7346  01D6' 0844'              	movf	___flmul@a,w
  7347  01D7' 120A' 118A' 2000' 120A' 118A' 	fcall	__Umul8_16
  7348  01DC' 0801'              	movf	?__Umul8_16+1,w
  7349  01DD' 1683               	bsf	3,5	;RP0=1, select bank1
  7350  01DE' 1303               	bcf	3,6	;RP1=0, select bank1
  7351  01DF' 0080'              	movwf	(___flmul@temp+1)^(0+128)
  7352  01E0' 0800'              	movf	?__Umul8_16,w
  7353  01E1' 0080'              	movwf	___flmul@temp^(0+128)
  7354  01E2'                    l2648:	
  7355  01E2' 0800'              	movf	___flmul@temp^(0+128),w
  7356  01E3' 1283               	bcf	3,5	;RP0=0, select bank0
  7357  01E4' 1303               	bcf	3,6	;RP1=0, select bank0
  7358  01E5' 00C8'              	movwf	??___flmul
  7359  01E6' 1683               	bsf	3,5	;RP0=1, select bank1
  7360  01E7' 1303               	bcf	3,6	;RP1=0, select bank1
  7361  01E8' 0800'              	movf	(___flmul@temp+1)^(0+128),w
  7362  01E9' 1283               	bcf	3,5	;RP0=0, select bank0
  7363  01EA' 1303               	bcf	3,6	;RP1=0, select bank0
  7364  01EB' 00C9'              	movwf	??___flmul+1
  7365  01EC' 01CA'              	clrf	??___flmul+2
  7366  01ED' 01CB'              	clrf	??___flmul+3
  7367  01EE' 0848'              	movf	??___flmul,w
  7368  01EF' 1683               	bsf	3,5	;RP0=1, select bank1
  7369  01F0' 1303               	bcf	3,6	;RP1=0, select bank1
  7370  01F1' 0780'              	addwf	___flmul@grs^(0+128),f
  7371  01F2' 1283               	bcf	3,5	;RP0=0, select bank0
  7372  01F3' 1303               	bcf	3,6	;RP1=0, select bank0
  7373  01F4' 0849'              	movf	??___flmul+1,w
  7374  01F5' 1103               	clrz
  7375  01F6' 1803               	skipnc
  7376  01F7' 3E01               	addlw	1
  7377  01F8' 1903               	skipnz
  7378  01F9' 2800'              	goto	u3851
  7379  01FA' 1683               	bsf	3,5	;RP0=1, select bank1
  7380  01FB' 1303               	bcf	3,6	;RP1=0, select bank1
  7381  01FC' 0780'              	addwf	(___flmul@grs+1)^(0+128),f
  7382  01FD'                    u3851:	
  7383  01FD' 1283               	bcf	3,5	;RP0=0, select bank0
  7384  01FE' 1303               	bcf	3,6	;RP1=0, select bank0
  7385  01FF' 084A'              	movf	??___flmul+2,w
  7386  0200' 1103               	clrz
  7387  0201' 1803               	skipnc
  7388  0202' 3E01               	addlw	1
  7389  0203' 1903               	skipnz
  7390  0204' 2800'              	goto	u3852
  7391  0205' 1683               	bsf	3,5	;RP0=1, select bank1
  7392  0206' 1303               	bcf	3,6	;RP1=0, select bank1
  7393  0207' 0780'              	addwf	(___flmul@grs+2)^(0+128),f
  7394  0208'                    u3852:	
  7395  0208' 1283               	bcf	3,5	;RP0=0, select bank0
  7396  0209' 1303               	bcf	3,6	;RP1=0, select bank0
  7397  020A' 084B'              	movf	??___flmul+3,w
  7398  020B' 1103               	clrz
  7399  020C' 1803               	skipnc
  7400  020D' 3E01               	addlw	1
  7401  020E' 1903               	skipnz
  7402  020F' 2800'              	goto	u3853
  7403  0210' 1683               	bsf	3,5	;RP0=1, select bank1
  7404  0211' 1303               	bcf	3,6	;RP1=0, select bank1
  7405  0212' 0780'              	addwf	(___flmul@grs+3)^(0+128),f
  7406  0213'                    u3853:	
  7407  0213' 1283               	bcf	3,5	;RP0=0, select bank0
  7408  0214' 1303               	bcf	3,6	;RP1=0, select bank0
  7409  0215' 1683               	bsf	3,5	;RP0=1, select bank1
  7410  0216' 1303               	bcf	3,6	;RP1=0, select bank1
  7411  0217'                    l2650:	
  7412  0217' 1283               	bcf	3,5	;RP0=0, select bank0
  7413  0218' 1303               	bcf	3,6	;RP1=0, select bank0
  7414  0219' 0840'              	movf	___flmul@b,w
  7415  021A' 00C8'              	movwf	??___flmul
  7416  021B' 0848'              	movf	??___flmul,w
  7417  021C' 0080'              	movwf	__Umul8_16@multiplicand
  7418  021D' 0845'              	movf	___flmul@a+1,w
  7419  021E' 120A' 118A' 2000' 120A' 118A' 	fcall	__Umul8_16
  7420  0223' 0801'              	movf	?__Umul8_16+1,w
  7421  0224' 1683               	bsf	3,5	;RP0=1, select bank1
  7422  0225' 1303               	bcf	3,6	;RP1=0, select bank1
  7423  0226' 0080'              	movwf	(___flmul@temp+1)^(0+128)
  7424  0227' 0800'              	movf	?__Umul8_16,w
  7425  0228' 0080'              	movwf	___flmul@temp^(0+128)
  7426  0229'                    l2652:	
  7427  0229' 0800'              	movf	___flmul@temp^(0+128),w
  7428  022A' 1283               	bcf	3,5	;RP0=0, select bank0
  7429  022B' 1303               	bcf	3,6	;RP1=0, select bank0
  7430  022C' 00C8'              	movwf	??___flmul
  7431  022D' 1683               	bsf	3,5	;RP0=1, select bank1
  7432  022E' 1303               	bcf	3,6	;RP1=0, select bank1
  7433  022F' 0800'              	movf	(___flmul@temp+1)^(0+128),w
  7434  0230' 1283               	bcf	3,5	;RP0=0, select bank0
  7435  0231' 1303               	bcf	3,6	;RP1=0, select bank0
  7436  0232' 00C9'              	movwf	??___flmul+1
  7437  0233' 01CA'              	clrf	??___flmul+2
  7438  0234' 01CB'              	clrf	??___flmul+3
  7439  0235' 0848'              	movf	??___flmul,w
  7440  0236' 1683               	bsf	3,5	;RP0=1, select bank1
  7441  0237' 1303               	bcf	3,6	;RP1=0, select bank1
  7442  0238' 0780'              	addwf	___flmul@grs^(0+128),f
  7443  0239' 1283               	bcf	3,5	;RP0=0, select bank0
  7444  023A' 1303               	bcf	3,6	;RP1=0, select bank0
  7445  023B' 0849'              	movf	??___flmul+1,w
  7446  023C' 1103               	clrz
  7447  023D' 1803               	skipnc
  7448  023E' 3E01               	addlw	1
  7449  023F' 1903               	skipnz
  7450  0240' 2800'              	goto	u3861
  7451  0241' 1683               	bsf	3,5	;RP0=1, select bank1
  7452  0242' 1303               	bcf	3,6	;RP1=0, select bank1
  7453  0243' 0780'              	addwf	(___flmul@grs+1)^(0+128),f
  7454  0244'                    u3861:	
  7455  0244' 1283               	bcf	3,5	;RP0=0, select bank0
  7456  0245' 1303               	bcf	3,6	;RP1=0, select bank0
  7457  0246' 084A'              	movf	??___flmul+2,w
  7458  0247' 1103               	clrz
  7459  0248' 1803               	skipnc
  7460  0249' 3E01               	addlw	1
  7461  024A' 1903               	skipnz
  7462  024B' 2800'              	goto	u3862
  7463  024C' 1683               	bsf	3,5	;RP0=1, select bank1
  7464  024D' 1303               	bcf	3,6	;RP1=0, select bank1
  7465  024E' 0780'              	addwf	(___flmul@grs+2)^(0+128),f
  7466  024F'                    u3862:	
  7467  024F' 1283               	bcf	3,5	;RP0=0, select bank0
  7468  0250' 1303               	bcf	3,6	;RP1=0, select bank0
  7469  0251' 084B'              	movf	??___flmul+3,w
  7470  0252' 1103               	clrz
  7471  0253' 1803               	skipnc
  7472  0254' 3E01               	addlw	1
  7473  0255' 1903               	skipnz
  7474  0256' 2800'              	goto	u3863
  7475  0257' 1683               	bsf	3,5	;RP0=1, select bank1
  7476  0258' 1303               	bcf	3,6	;RP1=0, select bank1
  7477  0259' 0780'              	addwf	(___flmul@grs+3)^(0+128),f
  7478  025A'                    u3863:	
  7479  025A' 1283               	bcf	3,5	;RP0=0, select bank0
  7480  025B' 1303               	bcf	3,6	;RP1=0, select bank0
  7481  025C' 1683               	bsf	3,5	;RP0=1, select bank1
  7482  025D' 1303               	bcf	3,6	;RP1=0, select bank1
  7483  025E'                    l2654:	
  7484  025E' 3008               	movlw	8
  7485  025F' 1283               	bcf	3,5	;RP0=0, select bank0
  7486  0260' 1303               	bcf	3,6	;RP1=0, select bank0
  7487  0261' 00C8'              	movwf	??___flmul
  7488  0262'                    u3875:	
  7489  0262' 1003               	clrc
  7490  0263' 1683               	bsf	3,5	;RP0=1, select bank1
  7491  0264' 1303               	bcf	3,6	;RP1=0, select bank1
  7492  0265' 0D80'              	rlf	___flmul@grs^(0+128),f
  7493  0266' 0D80'              	rlf	(___flmul@grs+1)^(0+128),f
  7494  0267' 0D80'              	rlf	(___flmul@grs+2)^(0+128),f
  7495  0268' 0D80'              	rlf	(___flmul@grs+3)^(0+128),f
  7496  0269' 1283               	bcf	3,5	;RP0=0, select bank0
  7497  026A' 1303               	bcf	3,6	;RP1=0, select bank0
  7498  026B' 0BC8'              	decfsz	??___flmul,f
  7499  026C' 2800'              	goto	u3875
  7500  026D' 0840'              	movf	___flmul@b,w
  7501  026E' 00C8'              	movwf	??___flmul
  7502  026F' 0848'              	movf	??___flmul,w
  7503  0270' 0080'              	movwf	__Umul8_16@multiplicand
  7504  0271' 0844'              	movf	___flmul@a,w
  7505  0272' 120A' 118A' 2000' 120A' 118A' 	fcall	__Umul8_16
  7506  0277' 0801'              	movf	?__Umul8_16+1,w
  7507  0278' 1683               	bsf	3,5	;RP0=1, select bank1
  7508  0279' 1303               	bcf	3,6	;RP1=0, select bank1
  7509  027A' 0080'              	movwf	(___flmul@temp+1)^(0+128)
  7510  027B' 0800'              	movf	?__Umul8_16,w
  7511  027C' 0080'              	movwf	___flmul@temp^(0+128)
  7512  027D'                    l2656:	
  7513  027D' 0800'              	movf	___flmul@temp^(0+128),w
  7514  027E' 1283               	bcf	3,5	;RP0=0, select bank0
  7515  027F' 1303               	bcf	3,6	;RP1=0, select bank0
  7516  0280' 00C8'              	movwf	??___flmul
  7517  0281' 1683               	bsf	3,5	;RP0=1, select bank1
  7518  0282' 1303               	bcf	3,6	;RP1=0, select bank1
  7519  0283' 0800'              	movf	(___flmul@temp+1)^(0+128),w
  7520  0284' 1283               	bcf	3,5	;RP0=0, select bank0
  7521  0285' 1303               	bcf	3,6	;RP1=0, select bank0
  7522  0286' 00C9'              	movwf	??___flmul+1
  7523  0287' 01CA'              	clrf	??___flmul+2
  7524  0288' 01CB'              	clrf	??___flmul+3
  7525  0289' 0848'              	movf	??___flmul,w
  7526  028A' 1683               	bsf	3,5	;RP0=1, select bank1
  7527  028B' 1303               	bcf	3,6	;RP1=0, select bank1
  7528  028C' 0780'              	addwf	___flmul@grs^(0+128),f
  7529  028D' 1283               	bcf	3,5	;RP0=0, select bank0
  7530  028E' 1303               	bcf	3,6	;RP1=0, select bank0
  7531  028F' 0849'              	movf	??___flmul+1,w
  7532  0290' 1103               	clrz
  7533  0291' 1803               	skipnc
  7534  0292' 3E01               	addlw	1
  7535  0293' 1903               	skipnz
  7536  0294' 2800'              	goto	u3881
  7537  0295' 1683               	bsf	3,5	;RP0=1, select bank1
  7538  0296' 1303               	bcf	3,6	;RP1=0, select bank1
  7539  0297' 0780'              	addwf	(___flmul@grs+1)^(0+128),f
  7540  0298'                    u3881:	
  7541  0298' 1283               	bcf	3,5	;RP0=0, select bank0
  7542  0299' 1303               	bcf	3,6	;RP1=0, select bank0
  7543  029A' 084A'              	movf	??___flmul+2,w
  7544  029B' 1103               	clrz
  7545  029C' 1803               	skipnc
  7546  029D' 3E01               	addlw	1
  7547  029E' 1903               	skipnz
  7548  029F' 2800'              	goto	u3882
  7549  02A0' 1683               	bsf	3,5	;RP0=1, select bank1
  7550  02A1' 1303               	bcf	3,6	;RP1=0, select bank1
  7551  02A2' 0780'              	addwf	(___flmul@grs+2)^(0+128),f
  7552  02A3'                    u3882:	
  7553  02A3' 1283               	bcf	3,5	;RP0=0, select bank0
  7554  02A4' 1303               	bcf	3,6	;RP1=0, select bank0
  7555  02A5' 084B'              	movf	??___flmul+3,w
  7556  02A6' 1103               	clrz
  7557  02A7' 1803               	skipnc
  7558  02A8' 3E01               	addlw	1
  7559  02A9' 1903               	skipnz
  7560  02AA' 2800'              	goto	u3883
  7561  02AB' 1683               	bsf	3,5	;RP0=1, select bank1
  7562  02AC' 1303               	bcf	3,6	;RP1=0, select bank1
  7563  02AD' 0780'              	addwf	(___flmul@grs+3)^(0+128),f
  7564  02AE'                    u3883:	
  7565  02AE' 1283               	bcf	3,5	;RP0=0, select bank0
  7566  02AF' 1303               	bcf	3,6	;RP1=0, select bank0
  7567  02B0' 1683               	bsf	3,5	;RP0=1, select bank1
  7568  02B1' 1303               	bcf	3,6	;RP1=0, select bank1
  7569  02B2'                    l2658:	
  7570  02B2' 1283               	bcf	3,5	;RP0=0, select bank0
  7571  02B3' 1303               	bcf	3,6	;RP1=0, select bank0
  7572  02B4' 0841'              	movf	___flmul@b+1,w
  7573  02B5' 00C8'              	movwf	??___flmul
  7574  02B6' 0848'              	movf	??___flmul,w
  7575  02B7' 0080'              	movwf	__Umul8_16@multiplicand
  7576  02B8' 0846'              	movf	___flmul@a+2,w
  7577  02B9' 120A' 118A' 2000' 120A' 118A' 	fcall	__Umul8_16
  7578  02BE' 0801'              	movf	?__Umul8_16+1,w
  7579  02BF' 1683               	bsf	3,5	;RP0=1, select bank1
  7580  02C0' 1303               	bcf	3,6	;RP1=0, select bank1
  7581  02C1' 0080'              	movwf	(___flmul@temp+1)^(0+128)
  7582  02C2' 0800'              	movf	?__Umul8_16,w
  7583  02C3' 0080'              	movwf	___flmul@temp^(0+128)
  7584  02C4' 0800'              	movf	___flmul@temp^(0+128),w
  7585  02C5' 1283               	bcf	3,5	;RP0=0, select bank0
  7586  02C6' 1303               	bcf	3,6	;RP1=0, select bank0
  7587  02C7' 00C8'              	movwf	??___flmul
  7588  02C8' 1683               	bsf	3,5	;RP0=1, select bank1
  7589  02C9' 1303               	bcf	3,6	;RP1=0, select bank1
  7590  02CA' 0800'              	movf	(___flmul@temp+1)^(0+128),w
  7591  02CB' 1283               	bcf	3,5	;RP0=0, select bank0
  7592  02CC' 1303               	bcf	3,6	;RP1=0, select bank0
  7593  02CD' 00C9'              	movwf	??___flmul+1
  7594  02CE' 01CA'              	clrf	??___flmul+2
  7595  02CF' 01CB'              	clrf	??___flmul+3
  7596  02D0' 0848'              	movf	??___flmul,w
  7597  02D1' 1683               	bsf	3,5	;RP0=1, select bank1
  7598  02D2' 1303               	bcf	3,6	;RP1=0, select bank1
  7599  02D3' 0780'              	addwf	___flmul@prod^(0+128),f
  7600  02D4' 1283               	bcf	3,5	;RP0=0, select bank0
  7601  02D5' 1303               	bcf	3,6	;RP1=0, select bank0
  7602  02D6' 0849'              	movf	??___flmul+1,w
  7603  02D7' 1103               	clrz
  7604  02D8' 1803               	skipnc
  7605  02D9' 3E01               	addlw	1
  7606  02DA' 1903               	skipnz
  7607  02DB' 2800'              	goto	u3891
  7608  02DC' 1683               	bsf	3,5	;RP0=1, select bank1
  7609  02DD' 1303               	bcf	3,6	;RP1=0, select bank1
  7610  02DE' 0780'              	addwf	(___flmul@prod+1)^(0+128),f
  7611  02DF'                    u3891:	
  7612  02DF' 1283               	bcf	3,5	;RP0=0, select bank0
  7613  02E0' 1303               	bcf	3,6	;RP1=0, select bank0
  7614  02E1' 084A'              	movf	??___flmul+2,w
  7615  02E2' 1103               	clrz
  7616  02E3' 1803               	skipnc
  7617  02E4' 3E01               	addlw	1
  7618  02E5' 1903               	skipnz
  7619  02E6' 2800'              	goto	u3892
  7620  02E7' 1683               	bsf	3,5	;RP0=1, select bank1
  7621  02E8' 1303               	bcf	3,6	;RP1=0, select bank1
  7622  02E9' 0780'              	addwf	(___flmul@prod+2)^(0+128),f
  7623  02EA'                    u3892:	
  7624  02EA' 1283               	bcf	3,5	;RP0=0, select bank0
  7625  02EB' 1303               	bcf	3,6	;RP1=0, select bank0
  7626  02EC' 084B'              	movf	??___flmul+3,w
  7627  02ED' 1103               	clrz
  7628  02EE' 1803               	skipnc
  7629  02EF' 3E01               	addlw	1
  7630  02F0' 1903               	skipnz
  7631  02F1' 2800'              	goto	u3893
  7632  02F2' 1683               	bsf	3,5	;RP0=1, select bank1
  7633  02F3' 1303               	bcf	3,6	;RP1=0, select bank1
  7634  02F4' 0780'              	addwf	(___flmul@prod+3)^(0+128),f
  7635  02F5'                    u3893:	
  7636  02F5' 1283               	bcf	3,5	;RP0=0, select bank0
  7637  02F6' 1303               	bcf	3,6	;RP1=0, select bank0
  7638  02F7' 1683               	bsf	3,5	;RP0=1, select bank1
  7639  02F8' 1303               	bcf	3,6	;RP1=0, select bank1
  7640  02F9'                    l2660:	
  7641  02F9' 1283               	bcf	3,5	;RP0=0, select bank0
  7642  02FA' 1303               	bcf	3,6	;RP1=0, select bank0
  7643  02FB' 0842'              	movf	___flmul@b+2,w
  7644  02FC' 00C8'              	movwf	??___flmul
  7645  02FD' 0848'              	movf	??___flmul,w
  7646  02FE' 0080'              	movwf	__Umul8_16@multiplicand
  7647  02FF' 0845'              	movf	___flmul@a+1,w
  7648  0300' 120A' 118A' 2000' 120A' 118A' 	fcall	__Umul8_16
  7649  0305' 0801'              	movf	?__Umul8_16+1,w
  7650  0306' 1683               	bsf	3,5	;RP0=1, select bank1
  7651  0307' 1303               	bcf	3,6	;RP1=0, select bank1
  7652  0308' 0080'              	movwf	(___flmul@temp+1)^(0+128)
  7653  0309' 0800'              	movf	?__Umul8_16,w
  7654  030A' 0080'              	movwf	___flmul@temp^(0+128)
  7655  030B'                    l2662:	
  7656  030B' 0800'              	movf	___flmul@temp^(0+128),w
  7657  030C' 1283               	bcf	3,5	;RP0=0, select bank0
  7658  030D' 1303               	bcf	3,6	;RP1=0, select bank0
  7659  030E' 00C8'              	movwf	??___flmul
  7660  030F' 1683               	bsf	3,5	;RP0=1, select bank1
  7661  0310' 1303               	bcf	3,6	;RP1=0, select bank1
  7662  0311' 0800'              	movf	(___flmul@temp+1)^(0+128),w
  7663  0312' 1283               	bcf	3,5	;RP0=0, select bank0
  7664  0313' 1303               	bcf	3,6	;RP1=0, select bank0
  7665  0314' 00C9'              	movwf	??___flmul+1
  7666  0315' 01CA'              	clrf	??___flmul+2
  7667  0316' 01CB'              	clrf	??___flmul+3
  7668  0317' 0848'              	movf	??___flmul,w
  7669  0318' 1683               	bsf	3,5	;RP0=1, select bank1
  7670  0319' 1303               	bcf	3,6	;RP1=0, select bank1
  7671  031A' 0780'              	addwf	___flmul@prod^(0+128),f
  7672  031B' 1283               	bcf	3,5	;RP0=0, select bank0
  7673  031C' 1303               	bcf	3,6	;RP1=0, select bank0
  7674  031D' 0849'              	movf	??___flmul+1,w
  7675  031E' 1103               	clrz
  7676  031F' 1803               	skipnc
  7677  0320' 3E01               	addlw	1
  7678  0321' 1903               	skipnz
  7679  0322' 2800'              	goto	u3901
  7680  0323' 1683               	bsf	3,5	;RP0=1, select bank1
  7681  0324' 1303               	bcf	3,6	;RP1=0, select bank1
  7682  0325' 0780'              	addwf	(___flmul@prod+1)^(0+128),f
  7683  0326'                    u3901:	
  7684  0326' 1283               	bcf	3,5	;RP0=0, select bank0
  7685  0327' 1303               	bcf	3,6	;RP1=0, select bank0
  7686  0328' 084A'              	movf	??___flmul+2,w
  7687  0329' 1103               	clrz
  7688  032A' 1803               	skipnc
  7689  032B' 3E01               	addlw	1
  7690  032C' 1903               	skipnz
  7691  032D' 2800'              	goto	u3902
  7692  032E' 1683               	bsf	3,5	;RP0=1, select bank1
  7693  032F' 1303               	bcf	3,6	;RP1=0, select bank1
  7694  0330' 0780'              	addwf	(___flmul@prod+2)^(0+128),f
  7695  0331'                    u3902:	
  7696  0331' 1283               	bcf	3,5	;RP0=0, select bank0
  7697  0332' 1303               	bcf	3,6	;RP1=0, select bank0
  7698  0333' 084B'              	movf	??___flmul+3,w
  7699  0334' 1103               	clrz
  7700  0335' 1803               	skipnc
  7701  0336' 3E01               	addlw	1
  7702  0337' 1903               	skipnz
  7703  0338' 2800'              	goto	u3903
  7704  0339' 1683               	bsf	3,5	;RP0=1, select bank1
  7705  033A' 1303               	bcf	3,6	;RP1=0, select bank1
  7706  033B' 0780'              	addwf	(___flmul@prod+3)^(0+128),f
  7707  033C'                    u3903:	
  7708  033C' 1283               	bcf	3,5	;RP0=0, select bank0
  7709  033D' 1303               	bcf	3,6	;RP1=0, select bank0
  7710  033E' 1683               	bsf	3,5	;RP0=1, select bank1
  7711  033F' 1303               	bcf	3,6	;RP1=0, select bank1
  7712  0340' 1283               	bcf	3,5	;RP0=0, select bank0
  7713  0341' 1303               	bcf	3,6	;RP1=0, select bank0
  7714  0342' 0842'              	movf	___flmul@b+2,w
  7715  0343' 00C8'              	movwf	??___flmul
  7716  0344' 0848'              	movf	??___flmul,w
  7717  0345' 0080'              	movwf	__Umul8_16@multiplicand
  7718  0346' 0846'              	movf	___flmul@a+2,w
  7719  0347' 120A' 118A' 2000' 120A' 118A' 	fcall	__Umul8_16
  7720  034C' 0801'              	movf	?__Umul8_16+1,w
  7721  034D' 1683               	bsf	3,5	;RP0=1, select bank1
  7722  034E' 1303               	bcf	3,6	;RP1=0, select bank1
  7723  034F' 0080'              	movwf	(___flmul@temp+1)^(0+128)
  7724  0350' 0800'              	movf	?__Umul8_16,w
  7725  0351' 0080'              	movwf	___flmul@temp^(0+128)
  7726  0352'                    l2664:	
  7727  0352' 0800'              	movf	___flmul@temp^(0+128),w
  7728  0353' 1283               	bcf	3,5	;RP0=0, select bank0
  7729  0354' 1303               	bcf	3,6	;RP1=0, select bank0
  7730  0355' 00C8'              	movwf	??___flmul
  7731  0356' 1683               	bsf	3,5	;RP0=1, select bank1
  7732  0357' 1303               	bcf	3,6	;RP1=0, select bank1
  7733  0358' 0800'              	movf	(___flmul@temp+1)^(0+128),w
  7734  0359' 1283               	bcf	3,5	;RP0=0, select bank0
  7735  035A' 1303               	bcf	3,6	;RP1=0, select bank0
  7736  035B' 00C9'              	movwf	??___flmul+1
  7737  035C' 01CA'              	clrf	??___flmul+2
  7738  035D' 01CB'              	clrf	??___flmul+3
  7739  035E' 3008               	movlw	8
  7740  035F'                    u3915:	
  7741  035F' 1003               	clrc
  7742  0360' 0DC8'              	rlf	??___flmul,f
  7743  0361' 0DC9'              	rlf	??___flmul+1,f
  7744  0362' 0DCA'              	rlf	??___flmul+2,f
  7745  0363' 0DCB'              	rlf	??___flmul+3,f
  7746  0364'                    u3910:	
  7747  0364' 3EFF               	addlw	-1
  7748  0365' 1D03               	skipz
  7749  0366' 2800'              	goto	u3915
  7750  0367' 0848'              	movf	??___flmul,w
  7751  0368' 1683               	bsf	3,5	;RP0=1, select bank1
  7752  0369' 1303               	bcf	3,6	;RP1=0, select bank1
  7753  036A' 0780'              	addwf	___flmul@prod^(0+128),f
  7754  036B' 1283               	bcf	3,5	;RP0=0, select bank0
  7755  036C' 1303               	bcf	3,6	;RP1=0, select bank0
  7756  036D' 0849'              	movf	??___flmul+1,w
  7757  036E' 1103               	clrz
  7758  036F' 1803               	skipnc
  7759  0370' 3E01               	addlw	1
  7760  0371' 1903               	skipnz
  7761  0372' 2800'              	goto	u3921
  7762  0373' 1683               	bsf	3,5	;RP0=1, select bank1
  7763  0374' 1303               	bcf	3,6	;RP1=0, select bank1
  7764  0375' 0780'              	addwf	(___flmul@prod+1)^(0+128),f
  7765  0376'                    u3921:	
  7766  0376' 1283               	bcf	3,5	;RP0=0, select bank0
  7767  0377' 1303               	bcf	3,6	;RP1=0, select bank0
  7768  0378' 084A'              	movf	??___flmul+2,w
  7769  0379' 1103               	clrz
  7770  037A' 1803               	skipnc
  7771  037B' 3E01               	addlw	1
  7772  037C' 1903               	skipnz
  7773  037D' 2800'              	goto	u3922
  7774  037E' 1683               	bsf	3,5	;RP0=1, select bank1
  7775  037F' 1303               	bcf	3,6	;RP1=0, select bank1
  7776  0380' 0780'              	addwf	(___flmul@prod+2)^(0+128),f
  7777  0381'                    u3922:	
  7778  0381' 1283               	bcf	3,5	;RP0=0, select bank0
  7779  0382' 1303               	bcf	3,6	;RP1=0, select bank0
  7780  0383' 084B'              	movf	??___flmul+3,w
  7781  0384' 1103               	clrz
  7782  0385' 1803               	skipnc
  7783  0386' 3E01               	addlw	1
  7784  0387' 1903               	skipnz
  7785  0388' 2800'              	goto	u3923
  7786  0389' 1683               	bsf	3,5	;RP0=1, select bank1
  7787  038A' 1303               	bcf	3,6	;RP1=0, select bank1
  7788  038B' 0780'              	addwf	(___flmul@prod+3)^(0+128),f
  7789  038C'                    u3923:	
  7790  038C' 1283               	bcf	3,5	;RP0=0, select bank0
  7791  038D' 1303               	bcf	3,6	;RP1=0, select bank0
  7792  038E' 1683               	bsf	3,5	;RP0=1, select bank1
  7793  038F' 1303               	bcf	3,6	;RP1=0, select bank1
  7794  0390'                    l2666:	
  7795  0390' 0800'              	movf	___flmul@grs^(0+128),w
  7796  0391' 1283               	bcf	3,5	;RP0=0, select bank0
  7797  0392' 1303               	bcf	3,6	;RP1=0, select bank0
  7798  0393' 00C8'              	movwf	??___flmul
  7799  0394' 1683               	bsf	3,5	;RP0=1, select bank1
  7800  0395' 1303               	bcf	3,6	;RP1=0, select bank1
  7801  0396' 0800'              	movf	(___flmul@grs+1)^(0+128),w
  7802  0397' 1283               	bcf	3,5	;RP0=0, select bank0
  7803  0398' 1303               	bcf	3,6	;RP1=0, select bank0
  7804  0399' 00C9'              	movwf	??___flmul+1
  7805  039A' 1683               	bsf	3,5	;RP0=1, select bank1
  7806  039B' 1303               	bcf	3,6	;RP1=0, select bank1
  7807  039C' 0800'              	movf	(___flmul@grs+2)^(0+128),w
  7808  039D' 1283               	bcf	3,5	;RP0=0, select bank0
  7809  039E' 1303               	bcf	3,6	;RP1=0, select bank0
  7810  039F' 00CA'              	movwf	??___flmul+2
  7811  03A0' 1683               	bsf	3,5	;RP0=1, select bank1
  7812  03A1' 1303               	bcf	3,6	;RP1=0, select bank1
  7813  03A2' 0800'              	movf	(___flmul@grs+3)^(0+128),w
  7814  03A3' 1283               	bcf	3,5	;RP0=0, select bank0
  7815  03A4' 1303               	bcf	3,6	;RP1=0, select bank0
  7816  03A5' 00CB'              	movwf	??___flmul+3
  7817  03A6' 3018               	movlw	24
  7818  03A7'                    u3935:	
  7819  03A7' 1003               	clrc
  7820  03A8' 0CCB'              	rrf	??___flmul+3,f
  7821  03A9' 0CCA'              	rrf	??___flmul+2,f
  7822  03AA' 0CC9'              	rrf	??___flmul+1,f
  7823  03AB' 0CC8'              	rrf	??___flmul,f
  7824  03AC'                    u3930:	
  7825  03AC' 3EFF               	addlw	-1
  7826  03AD' 1D03               	skipz
  7827  03AE' 2800'              	goto	u3935
  7828  03AF' 0848'              	movf	??___flmul,w
  7829  03B0' 1683               	bsf	3,5	;RP0=1, select bank1
  7830  03B1' 1303               	bcf	3,6	;RP1=0, select bank1
  7831  03B2' 0780'              	addwf	___flmul@prod^(0+128),f
  7832  03B3' 1283               	bcf	3,5	;RP0=0, select bank0
  7833  03B4' 1303               	bcf	3,6	;RP1=0, select bank0
  7834  03B5' 0849'              	movf	??___flmul+1,w
  7835  03B6' 1103               	clrz
  7836  03B7' 1803               	skipnc
  7837  03B8' 3E01               	addlw	1
  7838  03B9' 1903               	skipnz
  7839  03BA' 2800'              	goto	u3941
  7840  03BB' 1683               	bsf	3,5	;RP0=1, select bank1
  7841  03BC' 1303               	bcf	3,6	;RP1=0, select bank1
  7842  03BD' 0780'              	addwf	(___flmul@prod+1)^(0+128),f
  7843  03BE'                    u3941:	
  7844  03BE' 1283               	bcf	3,5	;RP0=0, select bank0
  7845  03BF' 1303               	bcf	3,6	;RP1=0, select bank0
  7846  03C0' 084A'              	movf	??___flmul+2,w
  7847  03C1' 1103               	clrz
  7848  03C2' 1803               	skipnc
  7849  03C3' 3E01               	addlw	1
  7850  03C4' 1903               	skipnz
  7851  03C5' 2800'              	goto	u3942
  7852  03C6' 1683               	bsf	3,5	;RP0=1, select bank1
  7853  03C7' 1303               	bcf	3,6	;RP1=0, select bank1
  7854  03C8' 0780'              	addwf	(___flmul@prod+2)^(0+128),f
  7855  03C9'                    u3942:	
  7856  03C9' 1283               	bcf	3,5	;RP0=0, select bank0
  7857  03CA' 1303               	bcf	3,6	;RP1=0, select bank0
  7858  03CB' 084B'              	movf	??___flmul+3,w
  7859  03CC' 1103               	clrz
  7860  03CD' 1803               	skipnc
  7861  03CE' 3E01               	addlw	1
  7862  03CF' 1903               	skipnz
  7863  03D0' 2800'              	goto	u3943
  7864  03D1' 1683               	bsf	3,5	;RP0=1, select bank1
  7865  03D2' 1303               	bcf	3,6	;RP1=0, select bank1
  7866  03D3' 0780'              	addwf	(___flmul@prod+3)^(0+128),f
  7867  03D4'                    u3943:	
  7868  03D4' 1283               	bcf	3,5	;RP0=0, select bank0
  7869  03D5' 1303               	bcf	3,6	;RP1=0, select bank0
  7870  03D6' 1683               	bsf	3,5	;RP0=1, select bank1
  7871  03D7' 1303               	bcf	3,6	;RP1=0, select bank1
  7872  03D8'                    l2668:	
  7873  03D8' 3008               	movlw	8
  7874  03D9' 1283               	bcf	3,5	;RP0=0, select bank0
  7875  03DA' 1303               	bcf	3,6	;RP1=0, select bank0
  7876  03DB' 00C8'              	movwf	??___flmul
  7877  03DC'                    u3955:	
  7878  03DC' 1003               	clrc
  7879  03DD' 1683               	bsf	3,5	;RP0=1, select bank1
  7880  03DE' 1303               	bcf	3,6	;RP1=0, select bank1
  7881  03DF' 0D80'              	rlf	___flmul@grs^(0+128),f
  7882  03E0' 0D80'              	rlf	(___flmul@grs+1)^(0+128),f
  7883  03E1' 0D80'              	rlf	(___flmul@grs+2)^(0+128),f
  7884  03E2' 0D80'              	rlf	(___flmul@grs+3)^(0+128),f
  7885  03E3' 1283               	bcf	3,5	;RP0=0, select bank0
  7886  03E4' 1303               	bcf	3,6	;RP1=0, select bank0
  7887  03E5' 0BC8'              	decfsz	??___flmul,f
  7888  03E6' 2800'              	goto	u3955
  7889  03E7'                    l2670:	
  7890  03E7' 1683               	bsf	3,5	;RP0=1, select bank1
  7891  03E8' 1303               	bcf	3,6	;RP1=0, select bank1
  7892  03E9' 0800'              	movf	___flmul@bexp^(0+128),w
  7893  03EA' 0700'              	addwf	___flmul@aexp^(0+128),w
  7894  03EB' 1283               	bcf	3,5	;RP0=0, select bank0
  7895  03EC' 1303               	bcf	3,6	;RP1=0, select bank0
  7896  03ED' 00C8'              	movwf	??___flmul
  7897  03EE' 01C9'              	clrf	??___flmul+1
  7898  03EF' 0DC9'              	rlf	??___flmul+1,f
  7899  03F0' 0848'              	movf	??___flmul,w
  7900  03F1' 3E82               	addlw	130
  7901  03F2' 1683               	bsf	3,5	;RP0=1, select bank1
  7902  03F3' 1303               	bcf	3,6	;RP1=0, select bank1
  7903  03F4' 0080'              	movwf	___flmul@temp^(0+128)
  7904  03F5' 1283               	bcf	3,5	;RP0=0, select bank0
  7905  03F6' 1303               	bcf	3,6	;RP1=0, select bank0
  7906  03F7' 0849'              	movf	??___flmul+1,w
  7907  03F8' 1803               	skipnc
  7908  03F9' 3E01               	addlw	1
  7909  03FA' 3EFF               	addlw	255
  7910  03FB' 1683               	bsf	3,5	;RP0=1, select bank1
  7911  03FC' 1303               	bcf	3,6	;RP1=0, select bank1
  7912  03FD' 0080'              	movwf	(___flmul@temp+1)^(0+128)
  7913  03FE' 2800'              	goto	l2682
  7914  03FF'                    l2672:	
  7915  03FF' 3001               	movlw	1
  7916  0400' 1283               	bcf	3,5	;RP0=0, select bank0
  7917  0401' 1303               	bcf	3,6	;RP1=0, select bank0
  7918  0402' 00C8'              	movwf	??___flmul
  7919  0403'                    u3965:	
  7920  0403' 1003               	clrc
  7921  0404' 1683               	bsf	3,5	;RP0=1, select bank1
  7922  0405' 1303               	bcf	3,6	;RP1=0, select bank1
  7923  0406' 0D80'              	rlf	___flmul@prod^(0+128),f
  7924  0407' 0D80'              	rlf	(___flmul@prod+1)^(0+128),f
  7925  0408' 0D80'              	rlf	(___flmul@prod+2)^(0+128),f
  7926  0409' 0D80'              	rlf	(___flmul@prod+3)^(0+128),f
  7927  040A' 1283               	bcf	3,5	;RP0=0, select bank0
  7928  040B' 1303               	bcf	3,6	;RP1=0, select bank0
  7929  040C' 0BC8'              	decfsz	??___flmul,f
  7930  040D' 2800'              	goto	u3965
  7931  040E'                    l2674:	
  7932  040E' 1683               	bsf	3,5	;RP0=1, select bank1
  7933  040F' 1303               	bcf	3,6	;RP1=0, select bank1
  7934  0410' 1F80'              	btfss	(___flmul@grs+3)^(0+128),7
  7935  0411' 2800'              	goto	u3971
  7936  0412' 2800'              	goto	u3970
  7937  0413'                    u3971:	
  7938  0413' 2800'              	goto	l2678
  7939  0414'                    u3970:	
  7940  0414'                    l2676:	
  7941  0414' 1400'              	bsf	___flmul@prod^(0+128),0
  7942  0415'                    l2678:	
  7943  0415' 3001               	movlw	1
  7944  0416' 1283               	bcf	3,5	;RP0=0, select bank0
  7945  0417' 1303               	bcf	3,6	;RP1=0, select bank0
  7946  0418' 00C8'              	movwf	??___flmul
  7947  0419'                    u3985:	
  7948  0419' 1003               	clrc
  7949  041A' 1683               	bsf	3,5	;RP0=1, select bank1
  7950  041B' 1303               	bcf	3,6	;RP1=0, select bank1
  7951  041C' 0D80'              	rlf	___flmul@grs^(0+128),f
  7952  041D' 0D80'              	rlf	(___flmul@grs+1)^(0+128),f
  7953  041E' 0D80'              	rlf	(___flmul@grs+2)^(0+128),f
  7954  041F' 0D80'              	rlf	(___flmul@grs+3)^(0+128),f
  7955  0420' 1283               	bcf	3,5	;RP0=0, select bank0
  7956  0421' 1303               	bcf	3,6	;RP1=0, select bank0
  7957  0422' 0BC8'              	decfsz	??___flmul,f
  7958  0423' 2800'              	goto	u3985
  7959  0424'                    l2680:	
  7960  0424' 30FF               	movlw	255
  7961  0425' 1683               	bsf	3,5	;RP0=1, select bank1
  7962  0426' 1303               	bcf	3,6	;RP1=0, select bank1
  7963  0427' 0780'              	addwf	___flmul@temp^(0+128),f
  7964  0428' 1803               	skipnc
  7965  0429' 0A80'              	incf	(___flmul@temp+1)^(0+128),f
  7966  042A' 30FF               	movlw	255
  7967  042B' 0780'              	addwf	(___flmul@temp+1)^(0+128),f
  7968  042C'                    l2682:	
  7969  042C' 1F80'              	btfss	(___flmul@prod+2)^(0+128),7
  7970  042D' 2800'              	goto	u3991
  7971  042E' 2800'              	goto	u3990
  7972  042F'                    u3991:	
  7973  042F' 2800'              	goto	l2672
  7974  0430'                    u3990:	
  7975  0430'                    l2684:	
  7976  0430' 0180'              	clrf	___flmul@aexp^(0+128)
  7977  0431'                    l2686:	
  7978  0431' 1F80'              	btfss	(___flmul@grs+3)^(0+128),7
  7979  0432' 2800'              	goto	u4001
  7980  0433' 2800'              	goto	u4000
  7981  0434'                    u4001:	
  7982  0434' 2800'              	goto	l2694
  7983  0435'                    u4000:	
  7984  0435'                    l2688:	
  7985  0435' 30FF               	movlw	255
  7986  0436' 0500'              	andwf	___flmul@grs^(0+128),w
  7987  0437' 1283               	bcf	3,5	;RP0=0, select bank0
  7988  0438' 1303               	bcf	3,6	;RP1=0, select bank0
  7989  0439' 00C8'              	movwf	??___flmul
  7990  043A' 30FF               	movlw	255
  7991  043B' 1683               	bsf	3,5	;RP0=1, select bank1
  7992  043C' 1303               	bcf	3,6	;RP1=0, select bank1
  7993  043D' 0500'              	andwf	(___flmul@grs+1)^(0+128),w
  7994  043E' 1283               	bcf	3,5	;RP0=0, select bank0
  7995  043F' 1303               	bcf	3,6	;RP1=0, select bank0
  7996  0440' 00C9'              	movwf	??___flmul+1
  7997  0441' 30FF               	movlw	255
  7998  0442' 1683               	bsf	3,5	;RP0=1, select bank1
  7999  0443' 1303               	bcf	3,6	;RP1=0, select bank1
  8000  0444' 0500'              	andwf	(___flmul@grs+2)^(0+128),w
  8001  0445' 1283               	bcf	3,5	;RP0=0, select bank0
  8002  0446' 1303               	bcf	3,6	;RP1=0, select bank0
  8003  0447' 00CA'              	movwf	??___flmul+2
  8004  0448' 307F               	movlw	127
  8005  0449' 1683               	bsf	3,5	;RP0=1, select bank1
  8006  044A' 1303               	bcf	3,6	;RP1=0, select bank1
  8007  044B' 0500'              	andwf	(___flmul@grs+3)^(0+128),w
  8008  044C' 1283               	bcf	3,5	;RP0=0, select bank0
  8009  044D' 1303               	bcf	3,6	;RP1=0, select bank0
  8010  044E' 00CB'              	movwf	??___flmul+3
  8011  044F' 084B'              	movf	??___flmul+3,w
  8012  0450' 044A'              	iorwf	??___flmul+2,w
  8013  0451' 0449'              	iorwf	??___flmul+1,w
  8014  0452' 0448'              	iorwf	??___flmul,w
  8015  0453' 1903               	skipnz
  8016  0454' 2800'              	goto	u4011
  8017  0455' 2800'              	goto	u4010
  8018  0456'                    u4011:	
  8019  0456' 2800'              	goto	l669
  8020  0457'                    u4010:	
  8021  0457'                    l2690:	
  8022  0457' 1683               	bsf	3,5	;RP0=1, select bank1
  8023  0458' 1303               	bcf	3,6	;RP1=0, select bank1
  8024  0459' 0180'              	clrf	___flmul@aexp^(0+128)
  8025  045A' 0A80'              	incf	___flmul@aexp^(0+128),f
  8026  045B' 2800'              	goto	l2694
  8027  045C'                    l669:	
  8028  045C' 1683               	bsf	3,5	;RP0=1, select bank1
  8029  045D' 1303               	bcf	3,6	;RP1=0, select bank1
  8030  045E' 1C00'              	btfss	___flmul@prod^(0+128),0
  8031  045F' 2800'              	goto	u4021
  8032  0460' 2800'              	goto	u4020
  8033  0461'                    u4021:	
  8034  0461' 2800'              	goto	l2694
  8035  0462'                    u4020:	
  8036  0462' 2800'              	goto	l2690
  8037  0463'                    l2694:	
  8038  0463' 0800'              	movf	___flmul@aexp^(0+128),w
  8039  0464' 1903               	btfsc	3,2
  8040  0465' 2800'              	goto	u4031
  8041  0466' 2800'              	goto	u4030
  8042  0467'                    u4031:	
  8043  0467' 2800'              	goto	l2704
  8044  0468'                    u4030:	
  8045  0468'                    l2696:	
  8046  0468' 3001               	movlw	1
  8047  0469' 0780'              	addwf	___flmul@prod^(0+128),f
  8048  046A' 3000               	movlw	0
  8049  046B' 1803               	skipnc
  8050  046C' 3001               	movlw	1
  8051  046D' 0780'              	addwf	(___flmul@prod+1)^(0+128),f
  8052  046E' 3000               	movlw	0
  8053  046F' 1803               	skipnc
  8054  0470' 3001               	movlw	1
  8055  0471' 0780'              	addwf	(___flmul@prod+2)^(0+128),f
  8056  0472' 3000               	movlw	0
  8057  0473' 1803               	skipnc
  8058  0474' 3001               	movlw	1
  8059  0475' 0780'              	addwf	(___flmul@prod+3)^(0+128),f
  8060  0476'                    l2698:	
  8061  0476' 1C00'              	btfss	(___flmul@prod+3)^(0+128),0
  8062  0477' 2800'              	goto	u4041
  8063  0478' 2800'              	goto	u4040
  8064  0479'                    u4041:	
  8065  0479' 2800'              	goto	l2704
  8066  047A'                    u4040:	
  8067  047A'                    l2700:	
  8068  047A' 0800'              	movf	___flmul@prod^(0+128),w
  8069  047B' 1283               	bcf	3,5	;RP0=0, select bank0
  8070  047C' 1303               	bcf	3,6	;RP1=0, select bank0
  8071  047D' 00C8'              	movwf	??___flmul
  8072  047E' 1683               	bsf	3,5	;RP0=1, select bank1
  8073  047F' 1303               	bcf	3,6	;RP1=0, select bank1
  8074  0480' 0800'              	movf	(___flmul@prod+1)^(0+128),w
  8075  0481' 1283               	bcf	3,5	;RP0=0, select bank0
  8076  0482' 1303               	bcf	3,6	;RP1=0, select bank0
  8077  0483' 00C9'              	movwf	??___flmul+1
  8078  0484' 1683               	bsf	3,5	;RP0=1, select bank1
  8079  0485' 1303               	bcf	3,6	;RP1=0, select bank1
  8080  0486' 0800'              	movf	(___flmul@prod+2)^(0+128),w
  8081  0487' 1283               	bcf	3,5	;RP0=0, select bank0
  8082  0488' 1303               	bcf	3,6	;RP1=0, select bank0
  8083  0489' 00CA'              	movwf	??___flmul+2
  8084  048A' 1683               	bsf	3,5	;RP0=1, select bank1
  8085  048B' 1303               	bcf	3,6	;RP1=0, select bank1
  8086  048C' 0800'              	movf	(___flmul@prod+3)^(0+128),w
  8087  048D' 1283               	bcf	3,5	;RP0=0, select bank0
  8088  048E' 1303               	bcf	3,6	;RP1=0, select bank0
  8089  048F' 00CB'              	movwf	??___flmul+3
  8090  0490' 3001               	movlw	1
  8091  0491' 00CC'              	movwf	??___flmul+4
  8092  0492'                    u4055:	
  8093  0492' 0D4B'              	rlf	??___flmul+3,w
  8094  0493' 0CCB'              	rrf	??___flmul+3,f
  8095  0494' 0CCA'              	rrf	??___flmul+2,f
  8096  0495' 0CC9'              	rrf	??___flmul+1,f
  8097  0496' 0CC8'              	rrf	??___flmul,f
  8098  0497'                    u4050:	
  8099  0497' 0BCC'              	decfsz	??___flmul+4,f
  8100  0498' 2800'              	goto	u4055
  8101  0499' 084B'              	movf	??___flmul+3,w
  8102  049A' 1683               	bsf	3,5	;RP0=1, select bank1
  8103  049B' 1303               	bcf	3,6	;RP1=0, select bank1
  8104  049C' 0080'              	movwf	(___flmul@prod+3)^(0+128)
  8105  049D' 1283               	bcf	3,5	;RP0=0, select bank0
  8106  049E' 1303               	bcf	3,6	;RP1=0, select bank0
  8107  049F' 084A'              	movf	??___flmul+2,w
  8108  04A0' 1683               	bsf	3,5	;RP0=1, select bank1
  8109  04A1' 1303               	bcf	3,6	;RP1=0, select bank1
  8110  04A2' 0080'              	movwf	(___flmul@prod+2)^(0+128)
  8111  04A3' 1283               	bcf	3,5	;RP0=0, select bank0
  8112  04A4' 1303               	bcf	3,6	;RP1=0, select bank0
  8113  04A5' 0849'              	movf	??___flmul+1,w
  8114  04A6' 1683               	bsf	3,5	;RP0=1, select bank1
  8115  04A7' 1303               	bcf	3,6	;RP1=0, select bank1
  8116  04A8' 0080'              	movwf	(___flmul@prod+1)^(0+128)
  8117  04A9' 1283               	bcf	3,5	;RP0=0, select bank0
  8118  04AA' 1303               	bcf	3,6	;RP1=0, select bank0
  8119  04AB' 0848'              	movf	??___flmul,w
  8120  04AC' 1683               	bsf	3,5	;RP0=1, select bank1
  8121  04AD' 1303               	bcf	3,6	;RP1=0, select bank1
  8122  04AE' 0080'              	movwf	___flmul@prod^(0+128)
  8123  04AF'                    l2702:	
  8124  04AF' 3001               	movlw	1
  8125  04B0' 0780'              	addwf	___flmul@temp^(0+128),f
  8126  04B1' 1803               	skipnc
  8127  04B2' 0A80'              	incf	(___flmul@temp+1)^(0+128),f
  8128  04B3' 3000               	movlw	0
  8129  04B4' 0780'              	addwf	(___flmul@temp+1)^(0+128),f
  8130  04B5'                    l2704:	
  8131  04B5' 0800'              	movf	(___flmul@temp+1)^(0+128),w
  8132  04B6' 3A80               	xorlw	128
  8133  04B7' 00FF               	movwf	btemp+1
  8134  04B8' 3080               	movlw	128
  8135  04B9' 027F               	subwf	btemp+1,w
  8136  04BA' 1D03               	skipz
  8137  04BB' 2800'              	goto	u4065
  8138  04BC' 30FF               	movlw	255
  8139  04BD' 0200'              	subwf	___flmul@temp^(0+128),w
  8140  04BE'                    u4065:	
  8141  04BE' 1C03               	skipc
  8142  04BF' 2800'              	goto	u4061
  8143  04C0' 2800'              	goto	u4060
  8144  04C1'                    u4061:	
  8145  04C1' 2800'              	goto	l2708
  8146  04C2'                    u4060:	
  8147  04C2'                    l2706:	
  8148  04C2' 307F               	movlw	127
  8149  04C3' 1683               	bsf	3,5	;RP0=1, select bank1
  8150  04C4' 1303               	bcf	3,6	;RP1=0, select bank1
  8151  04C5' 0080'              	movwf	(___flmul@prod+3)^(0+128)
  8152  04C6' 3080               	movlw	128
  8153  04C7' 0080'              	movwf	(___flmul@prod+2)^(0+128)
  8154  04C8' 3000               	movlw	0
  8155  04C9' 0080'              	movwf	(___flmul@prod+1)^(0+128)
  8156  04CA' 3000               	movlw	0
  8157  04CB' 0080'              	movwf	___flmul@prod^(0+128)
  8158  04CC' 2800'              	goto	l675
  8159  04CD'                    l2708:	
  8160  04CD' 1683               	bsf	3,5	;RP0=1, select bank1
  8161  04CE' 1303               	bcf	3,6	;RP1=0, select bank1
  8162  04CF' 0800'              	movf	(___flmul@temp+1)^(0+128),w
  8163  04D0' 3A80               	xorlw	128
  8164  04D1' 00FF               	movwf	btemp+1
  8165  04D2' 3080               	movlw	128
  8166  04D3' 027F               	subwf	btemp+1,w
  8167  04D4' 1D03               	skipz
  8168  04D5' 2800'              	goto	u4075
  8169  04D6' 3001               	movlw	1
  8170  04D7' 0200'              	subwf	___flmul@temp^(0+128),w
  8171  04D8'                    u4075:	
  8172  04D8' 1803               	skipnc
  8173  04D9' 2800'              	goto	u4071
  8174  04DA' 2800'              	goto	u4070
  8175  04DB'                    u4071:	
  8176  04DB' 2800'              	goto	l2714
  8177  04DC'                    u4070:	
  8178  04DC'                    l2710:	
  8179  04DC' 3000               	movlw	0
  8180  04DD' 1683               	bsf	3,5	;RP0=1, select bank1
  8181  04DE' 1303               	bcf	3,6	;RP1=0, select bank1
  8182  04DF' 0080'              	movwf	(___flmul@prod+3)^(0+128)
  8183  04E0' 3000               	movlw	0
  8184  04E1' 0080'              	movwf	(___flmul@prod+2)^(0+128)
  8185  04E2' 3000               	movlw	0
  8186  04E3' 0080'              	movwf	(___flmul@prod+1)^(0+128)
  8187  04E4' 3000               	movlw	0
  8188  04E5' 0080'              	movwf	___flmul@prod^(0+128)
  8189  04E6'                    l2712:	
  8190  04E6' 0180'              	clrf	___flmul@sign^(0+128)
  8191  04E7' 2800'              	goto	l675
  8192  04E8'                    l2714:	
  8193  04E8' 1683               	bsf	3,5	;RP0=1, select bank1
  8194  04E9' 1303               	bcf	3,6	;RP1=0, select bank1
  8195  04EA' 0800'              	movf	___flmul@temp^(0+128),w
  8196  04EB' 1283               	bcf	3,5	;RP0=0, select bank0
  8197  04EC' 1303               	bcf	3,6	;RP1=0, select bank0
  8198  04ED' 00C8'              	movwf	??___flmul
  8199  04EE' 0848'              	movf	??___flmul,w
  8200  04EF' 1683               	bsf	3,5	;RP0=1, select bank1
  8201  04F0' 1303               	bcf	3,6	;RP1=0, select bank1
  8202  04F1' 0080'              	movwf	___flmul@bexp^(0+128)
  8203  04F2' 30FF               	movlw	255
  8204  04F3' 0580'              	andwf	___flmul@prod^(0+128),f
  8205  04F4' 30FF               	movlw	255
  8206  04F5' 0580'              	andwf	(___flmul@prod+1)^(0+128),f
  8207  04F6' 307F               	movlw	127
  8208  04F7' 0580'              	andwf	(___flmul@prod+2)^(0+128),f
  8209  04F8' 3000               	movlw	0
  8210  04F9' 0580'              	andwf	(___flmul@prod+3)^(0+128),f
  8211  04FA'                    l2716:	
  8212  04FA' 1C00'              	btfss	___flmul@bexp^(0+128),0
  8213  04FB' 2800'              	goto	u4081
  8214  04FC' 2800'              	goto	u4080
  8215  04FD'                    u4081:	
  8216  04FD' 2800'              	goto	l2720
  8217  04FE'                    u4080:	
  8218  04FE'                    l2718:	
  8219  04FE' 1782'              	bsf	(___flmul@prod^(0+128)+2),7
  8220  04FF'                    l2720:	
  8221  04FF' 0800'              	movf	___flmul@bexp^(0+128),w
  8222  0500' 1283               	bcf	3,5	;RP0=0, select bank0
  8223  0501' 1303               	bcf	3,6	;RP1=0, select bank0
  8224  0502' 00C8'              	movwf	??___flmul
  8225  0503' 1003               	clrc
  8226  0504' 0C48'              	rrf	??___flmul,w
  8227  0505' 00C9'              	movwf	??___flmul+1
  8228  0506' 0849'              	movf	??___flmul+1,w
  8229  0507' 1683               	bsf	3,5	;RP0=1, select bank1
  8230  0508' 1303               	bcf	3,6	;RP1=0, select bank1
  8231  0509' 0083'              	movwf	(___flmul@prod^(0+128)+3)
  8232  050A'                    l675:	
  8233  050A' 0800'              	movf	___flmul@sign^(0+128),w
  8234  050B' 1283               	bcf	3,5	;RP0=0, select bank0
  8235  050C' 1303               	bcf	3,6	;RP1=0, select bank0
  8236  050D' 00C8'              	movwf	??___flmul
  8237  050E' 0848'              	movf	??___flmul,w
  8238  050F' 1683               	bsf	3,5	;RP0=1, select bank1
  8239  0510' 1303               	bcf	3,6	;RP1=0, select bank1
  8240  0511' 0483'              	iorwf	(___flmul@prod^(0+128)+3),f
  8241  0512'                    l2722:	
  8242  0512' 0800'              	movf	(___flmul@prod+3)^(0+128),w
  8243  0513' 1283               	bcf	3,5	;RP0=0, select bank0
  8244  0514' 1303               	bcf	3,6	;RP1=0, select bank0
  8245  0515' 00C3'              	movwf	?___flmul+3
  8246  0516' 1683               	bsf	3,5	;RP0=1, select bank1
  8247  0517' 1303               	bcf	3,6	;RP1=0, select bank1
  8248  0518' 0800'              	movf	(___flmul@prod+2)^(0+128),w
  8249  0519' 1283               	bcf	3,5	;RP0=0, select bank0
  8250  051A' 1303               	bcf	3,6	;RP1=0, select bank0
  8251  051B' 00C2'              	movwf	?___flmul+2
  8252  051C' 1683               	bsf	3,5	;RP0=1, select bank1
  8253  051D' 1303               	bcf	3,6	;RP1=0, select bank1
  8254  051E' 0800'              	movf	(___flmul@prod+1)^(0+128),w
  8255  051F' 1283               	bcf	3,5	;RP0=0, select bank0
  8256  0520' 1303               	bcf	3,6	;RP1=0, select bank0
  8257  0521' 00C1'              	movwf	?___flmul+1
  8258  0522' 1683               	bsf	3,5	;RP0=1, select bank1
  8259  0523' 1303               	bcf	3,6	;RP1=0, select bank1
  8260  0524' 0800'              	movf	___flmul@prod^(0+128),w
  8261  0525' 1283               	bcf	3,5	;RP0=0, select bank0
  8262  0526' 1303               	bcf	3,6	;RP1=0, select bank0
  8263  0527' 00C0'              	movwf	?___flmul
  8264  0528'                    l663:	
  8265  0528' 0008               	return
  8266  0529'                    __end_of___flmul:	
  8267                           
  8268                           	psect	text24
  8269  0000'                    __ptext24:	
  8270 ;; *************** function __Umul8_16 *****************
  8271 ;; Defined at:
  8272 ;;		line 4 in file "C:\Program Files (x86)\Microchip\xc8\v2.10\pic\sources\c90\common\Umul8_16.c"
  8273 ;; Parameters:    Size  Location     Type
  8274 ;;  multiplier      1    wreg     unsigned char 
  8275 ;;  multiplicand    1    0[COMMON] unsigned char 
  8276 ;; Auto vars:     Size  Location     Type
  8277 ;;  multiplier      1    8[COMMON] unsigned char 
  8278 ;;  word_mpld       2    6[COMMON] unsigned int 
  8279 ;;  product         2    4[COMMON] unsigned int 
  8280 ;; Return value:  Size  Location     Type
  8281 ;;                  2    0[COMMON] unsigned int 
  8282 ;; Registers used:
  8283 ;;		wreg, status,2, status,0
  8284 ;; Tracked objects:
  8285 ;;		On entry : 0/0
  8286 ;;		On exit  : 0/0
  8287 ;;		Unchanged: 0/0
  8288 ;; Data sizes:     COMMON   BANK0   BANK1   BANK3   BANK2
  8289 ;;      Params:         2       0       0       0       0
  8290 ;;      Locals:         5       0       0       0       0
  8291 ;;      Temps:          2       0       0       0       0
  8292 ;;      Totals:         9       0       0       0       0
  8293 ;;Total ram usage:        9 bytes
  8294 ;; Hardware stack levels used:    1
  8295 ;; This function calls:
  8296 ;;		Nothing
  8297 ;; This function is called by:
  8298 ;;		___flmul
  8299 ;; This function uses a non-reentrant model
  8300 ;;
  8301                           
  8302                           
  8303                           ;psect for function __Umul8_16
  8304  0000'                    __Umul8_16:	
  8305                           
  8306                           ;incstack = 0
  8307                           ; Regs used in __Umul8_16: [wreg+status,2+status,0]
  8308                           ;__Umul8_16@multiplier stored from wreg
  8309  0000' 0088'              	movwf	__Umul8_16@multiplier
  8310  0001'                    l2320:	
  8311  0001' 0184'              	clrf	__Umul8_16@product
  8312  0002' 0185'              	clrf	__Umul8_16@product+1
  8313  0003'                    l2322:	
  8314  0003' 0800'              	movf	__Umul8_16@multiplicand,w
  8315  0004' 0082'              	movwf	??__Umul8_16
  8316  0005' 0183'              	clrf	??__Umul8_16+1
  8317  0006' 0802'              	movf	??__Umul8_16,w
  8318  0007' 0086'              	movwf	__Umul8_16@word_mpld
  8319  0008' 0803'              	movf	??__Umul8_16+1,w
  8320  0009' 0087'              	movwf	__Umul8_16@word_mpld+1
  8321  000A'                    l2324:	
  8322  000A' 1C08'              	btfss	__Umul8_16@multiplier,0
  8323  000B' 2800'              	goto	u3101
  8324  000C' 2800'              	goto	u3100
  8325  000D'                    u3101:	
  8326  000D' 2800'              	goto	l750
  8327  000E'                    u3100:	
  8328  000E'                    l2326:	
  8329  000E' 0806'              	movf	__Umul8_16@word_mpld,w
  8330  000F' 0784'              	addwf	__Umul8_16@product,f
  8331  0010' 1803               	skipnc
  8332  0011' 0A85'              	incf	__Umul8_16@product+1,f
  8333  0012' 0807'              	movf	__Umul8_16@word_mpld+1,w
  8334  0013' 0785'              	addwf	__Umul8_16@product+1,f
  8335  0014'                    l750:	
  8336  0014' 3001               	movlw	1
  8337  0015'                    u3115:	
  8338  0015' 1003               	clrc
  8339  0016' 0D86'              	rlf	__Umul8_16@word_mpld,f
  8340  0017' 0D87'              	rlf	__Umul8_16@word_mpld+1,f
  8341  0018' 3EFF               	addlw	-1
  8342  0019' 1D03               	skipz
  8343  001A' 2800'              	goto	u3115
  8344  001B' 1003               	clrc
  8345  001C' 0C88'              	rrf	__Umul8_16@multiplier,f
  8346  001D'                    l2328:	
  8347  001D' 0808'              	movf	__Umul8_16@multiplier,w
  8348  001E' 1D03               	btfss	3,2
  8349  001F' 2800'              	goto	u3121
  8350  0020' 2800'              	goto	u3120
  8351  0021'                    u3121:	
  8352  0021' 2800'              	goto	l2324
  8353  0022'                    u3120:	
  8354  0022'                    l2330:	
  8355  0022' 0805'              	movf	__Umul8_16@product+1,w
  8356  0023' 0081'              	movwf	?__Umul8_16+1
  8357  0024' 0804'              	movf	__Umul8_16@product,w
  8358  0025' 0080'              	movwf	?__Umul8_16
  8359  0026'                    l752:	
  8360  0026' 0008               	return
  8361  0027'                    __end_of__Umul8_16:	
  8362                           
  8363                           	psect	text25
  8364  0000'                    __ptext25:	
  8365 ;; *************** function ___flge *****************
  8366 ;; Defined at:
  8367 ;;		line 4 in file "C:\Program Files (x86)\Microchip\xc8\v2.10\pic\sources\c90\common\flge.c"
  8368 ;; Parameters:    Size  Location     Type
  8369 ;;  ff1             4   56[BANK0 ] unsigned int 
  8370 ;;  ff2             4   60[BANK0 ] unsigned int 
  8371 ;; Auto vars:     Size  Location     Type
  8372 ;;		None
  8373 ;; Return value:  Size  Location     Type
  8374 ;;		None               void
  8375 ;; Registers used:
  8376 ;;		wreg, status,2, status,0
  8377 ;; Tracked objects:
  8378 ;;		On entry : 0/0
  8379 ;;		On exit  : 0/0
  8380 ;;		Unchanged: 0/0
  8381 ;; Data sizes:     COMMON   BANK0   BANK1   BANK3   BANK2
  8382 ;;      Params:         0       8       0       0       0
  8383 ;;      Locals:         0       0       0       0       0
  8384 ;;      Temps:          0       4       0       0       0
  8385 ;;      Totals:         0      12       0       0       0
  8386 ;;Total ram usage:       12 bytes
  8387 ;; Hardware stack levels used:    1
  8388 ;; This function calls:
  8389 ;;		Nothing
  8390 ;; This function is called by:
  8391 ;;		_pimf
  8392 ;; This function uses a non-reentrant model
  8393 ;;
  8394                           
  8395                           
  8396                           ;psect for function ___flge
  8397  0000'                    ___flge:	
  8398  0000'                    l2334:	
  8399                           ;incstack = 0
  8400                           ; Regs used in ___flge: [wreg+status,2+status,0]
  8401                           
  8402  0000' 3000               	movlw	0
  8403  0001' 1283               	bcf	3,5	;RP0=0, select bank0
  8404  0002' 1303               	bcf	3,6	;RP1=0, select bank0
  8405  0003' 0538'              	andwf	___flge@ff1,w
  8406  0004' 00C0'              	movwf	??___flge
  8407  0005' 3000               	movlw	0
  8408  0006' 0539'              	andwf	___flge@ff1+1,w
  8409  0007' 00C1'              	movwf	??___flge+1
  8410  0008' 3080               	movlw	128
  8411  0009' 053A'              	andwf	___flge@ff1+2,w
  8412  000A' 00C2'              	movwf	??___flge+2
  8413  000B' 307F               	movlw	127
  8414  000C' 053B'              	andwf	___flge@ff1+3,w
  8415  000D' 00C3'              	movwf	??___flge+3
  8416  000E' 0843'              	movf	??___flge+3,w
  8417  000F' 0442'              	iorwf	??___flge+2,w
  8418  0010' 0441'              	iorwf	??___flge+1,w
  8419  0011' 0440'              	iorwf	??___flge,w
  8420  0012' 1D03               	skipz
  8421  0013' 2800'              	goto	u3131
  8422  0014' 2800'              	goto	u3130
  8423  0015'                    u3131:	
  8424  0015' 2800'              	goto	l448
  8425  0016'                    u3130:	
  8426  0016'                    l2336:	
  8427  0016' 3000               	movlw	0
  8428  0017' 00BB'              	movwf	___flge@ff1+3
  8429  0018' 3000               	movlw	0
  8430  0019' 00BA'              	movwf	___flge@ff1+2
  8431  001A' 3000               	movlw	0
  8432  001B' 00B9'              	movwf	___flge@ff1+1
  8433  001C' 3000               	movlw	0
  8434  001D' 00B8'              	movwf	___flge@ff1
  8435  001E'                    l448:	
  8436  001E' 3000               	movlw	0
  8437  001F' 053C'              	andwf	___flge@ff2,w
  8438  0020' 00C0'              	movwf	??___flge
  8439  0021' 3000               	movlw	0
  8440  0022' 053D'              	andwf	___flge@ff2+1,w
  8441  0023' 00C1'              	movwf	??___flge+1
  8442  0024' 3080               	movlw	128
  8443  0025' 053E'              	andwf	___flge@ff2+2,w
  8444  0026' 00C2'              	movwf	??___flge+2
  8445  0027' 307F               	movlw	127
  8446  0028' 053F'              	andwf	___flge@ff2+3,w
  8447  0029' 00C3'              	movwf	??___flge+3
  8448  002A' 0843'              	movf	??___flge+3,w
  8449  002B' 0442'              	iorwf	??___flge+2,w
  8450  002C' 0441'              	iorwf	??___flge+1,w
  8451  002D' 0440'              	iorwf	??___flge,w
  8452  002E' 1D03               	skipz
  8453  002F' 2800'              	goto	u3141
  8454  0030' 2800'              	goto	u3140
  8455  0031'                    u3141:	
  8456  0031' 2800'              	goto	l2340
  8457  0032'                    u3140:	
  8458  0032'                    l2338:	
  8459  0032' 3000               	movlw	0
  8460  0033' 00BF'              	movwf	___flge@ff2+3
  8461  0034' 3000               	movlw	0
  8462  0035' 00BE'              	movwf	___flge@ff2+2
  8463  0036' 3000               	movlw	0
  8464  0037' 00BD'              	movwf	___flge@ff2+1
  8465  0038' 3000               	movlw	0
  8466  0039' 00BC'              	movwf	___flge@ff2
  8467  003A'                    l2340:	
  8468  003A' 1FBB'              	btfss	___flge@ff1+3,7
  8469  003B' 2800'              	goto	u3151
  8470  003C' 2800'              	goto	u3150
  8471  003D'                    u3151:	
  8472  003D' 2800'              	goto	l2344
  8473  003E'                    u3150:	
  8474  003E'                    l2342:	
  8475  003E' 3000               	movlw	0
  8476  003F' 00C0'              	movwf	??___flge
  8477  0040' 3000               	movlw	0
  8478  0041' 00C1'              	movwf	??___flge+1
  8479  0042' 3000               	movlw	0
  8480  0043' 00C2'              	movwf	??___flge+2
  8481  0044' 3080               	movlw	128
  8482  0045' 00C3'              	movwf	??___flge+3
  8483  0046' 0838'              	movf	___flge@ff1,w
  8484  0047' 02C0'              	subwf	??___flge,f
  8485  0048' 0839'              	movf	___flge@ff1+1,w
  8486  0049' 1C03               	skipc
  8487  004A' 0F39'              	incfsz	___flge@ff1+1,w
  8488  004B' 2800'              	goto	u3161
  8489  004C' 2800'              	goto	u3162
  8490  004D'                    u3161:	
  8491  004D' 02C1'              	subwf	??___flge+1,f
  8492  004E'                    u3162:	
  8493  004E' 083A'              	movf	___flge@ff1+2,w
  8494  004F' 1C03               	skipc
  8495  0050' 0F3A'              	incfsz	___flge@ff1+2,w
  8496  0051' 2800'              	goto	u3163
  8497  0052' 2800'              	goto	u3164
  8498  0053'                    u3163:	
  8499  0053' 02C2'              	subwf	??___flge+2,f
  8500  0054'                    u3164:	
  8501  0054' 083B'              	movf	___flge@ff1+3,w
  8502  0055' 1C03               	skipc
  8503  0056' 0F3B'              	incfsz	___flge@ff1+3,w
  8504  0057' 2800'              	goto	u3165
  8505  0058' 2800'              	goto	u3166
  8506  0059'                    u3165:	
  8507  0059' 02C3'              	subwf	??___flge+3,f
  8508  005A'                    u3166:	
  8509  005A' 0843'              	movf	??___flge+3,w
  8510  005B' 00BB'              	movwf	___flge@ff1+3
  8511  005C' 0842'              	movf	??___flge+2,w
  8512  005D' 00BA'              	movwf	___flge@ff1+2
  8513  005E' 0841'              	movf	??___flge+1,w
  8514  005F' 00B9'              	movwf	___flge@ff1+1
  8515  0060' 0840'              	movf	??___flge,w
  8516  0061' 00B8'              	movwf	___flge@ff1
  8517  0062'                    l2344:	
  8518  0062' 1FBF'              	btfss	___flge@ff2+3,7
  8519  0063' 2800'              	goto	u3171
  8520  0064' 2800'              	goto	u3170
  8521  0065'                    u3171:	
  8522  0065' 2800'              	goto	l451
  8523  0066'                    u3170:	
  8524  0066'                    l2346:	
  8525  0066' 3000               	movlw	0
  8526  0067' 00C0'              	movwf	??___flge
  8527  0068' 3000               	movlw	0
  8528  0069' 00C1'              	movwf	??___flge+1
  8529  006A' 3000               	movlw	0
  8530  006B' 00C2'              	movwf	??___flge+2
  8531  006C' 3080               	movlw	128
  8532  006D' 00C3'              	movwf	??___flge+3
  8533  006E' 083C'              	movf	___flge@ff2,w
  8534  006F' 02C0'              	subwf	??___flge,f
  8535  0070' 083D'              	movf	___flge@ff2+1,w
  8536  0071' 1C03               	skipc
  8537  0072' 0F3D'              	incfsz	___flge@ff2+1,w
  8538  0073' 2800'              	goto	u3181
  8539  0074' 2800'              	goto	u3182
  8540  0075'                    u3181:	
  8541  0075' 02C1'              	subwf	??___flge+1,f
  8542  0076'                    u3182:	
  8543  0076' 083E'              	movf	___flge@ff2+2,w
  8544  0077' 1C03               	skipc
  8545  0078' 0F3E'              	incfsz	___flge@ff2+2,w
  8546  0079' 2800'              	goto	u3183
  8547  007A' 2800'              	goto	u3184
  8548  007B'                    u3183:	
  8549  007B' 02C2'              	subwf	??___flge+2,f
  8550  007C'                    u3184:	
  8551  007C' 083F'              	movf	___flge@ff2+3,w
  8552  007D' 1C03               	skipc
  8553  007E' 0F3F'              	incfsz	___flge@ff2+3,w
  8554  007F' 2800'              	goto	u3185
  8555  0080' 2800'              	goto	u3186
  8556  0081'                    u3185:	
  8557  0081' 02C3'              	subwf	??___flge+3,f
  8558  0082'                    u3186:	
  8559  0082' 0843'              	movf	??___flge+3,w
  8560  0083' 00BF'              	movwf	___flge@ff2+3
  8561  0084' 0842'              	movf	??___flge+2,w
  8562  0085' 00BE'              	movwf	___flge@ff2+2
  8563  0086' 0841'              	movf	??___flge+1,w
  8564  0087' 00BD'              	movwf	___flge@ff2+1
  8565  0088' 0840'              	movf	??___flge,w
  8566  0089' 00BC'              	movwf	___flge@ff2
  8567  008A'                    l451:	
  8568  008A' 3080               	movlw	128
  8569  008B' 06BB'              	xorwf	___flge@ff1+3,f
  8570  008C' 3080               	movlw	128
  8571  008D' 06BF'              	xorwf	___flge@ff2+3,f
  8572  008E' 083F'              	movf	___flge@ff2+3,w
  8573  008F' 023B'              	subwf	___flge@ff1+3,w
  8574  0090' 1D03               	skipz
  8575  0091' 2800'              	goto	u3195
  8576  0092' 083E'              	movf	___flge@ff2+2,w
  8577  0093' 023A'              	subwf	___flge@ff1+2,w
  8578  0094' 1D03               	skipz
  8579  0095' 2800'              	goto	u3195
  8580  0096' 083D'              	movf	___flge@ff2+1,w
  8581  0097' 0239'              	subwf	___flge@ff1+1,w
  8582  0098' 1D03               	skipz
  8583  0099' 2800'              	goto	u3195
  8584  009A' 083C'              	movf	___flge@ff2,w
  8585  009B' 0238'              	subwf	___flge@ff1,w
  8586  009C'                    u3195:	
  8587  009C' 1803               	skipnc
  8588  009D' 2800'              	goto	u3191
  8589  009E' 2800'              	goto	u3190
  8590  009F'                    u3191:	
  8591  009F' 2800'              	goto	l2350
  8592  00A0'                    u3190:	
  8593  00A0'                    l2348:	
  8594  00A0' 1003               	clrc
  8595  00A1' 2800'              	goto	l452
  8596  00A2'                    l2350:	
  8597  00A2' 1403               	setc
  8598  00A3'                    l452:	
  8599  00A3' 0008               	return
  8600  00A4'                    __end_of___flge:	
  8601                           
  8602                           	psect	text26
  8603  0000'                    __ptext26:	
  8604 ;; *************** function ___fldiv *****************
  8605 ;; Defined at:
  8606 ;;		line 8 in file "C:\Program Files (x86)\Microchip\xc8\v2.10\pic\sources\c90\common\sprcdiv.c"
  8607 ;; Parameters:    Size  Location     Type
  8608 ;;  a               4   10[BANK0 ] unsigned int 
  8609 ;;  b               4   14[BANK0 ] unsigned int 
  8610 ;; Auto vars:     Size  Location     Type
  8611 ;;  grs             4   30[BANK0 ] unsigned long 
  8612 ;;  rem             4   23[BANK0 ] unsigned long 
  8613 ;;  new_exp         2   28[BANK0 ] int 
  8614 ;;  aexp            1   35[BANK0 ] unsigned char 
  8615 ;;  bexp            1   34[BANK0 ] unsigned char 
  8616 ;;  sign            1   27[BANK0 ] unsigned char 
  8617 ;; Return value:  Size  Location     Type
  8618 ;;                  4   10[BANK0 ] unsigned char 
  8619 ;; Registers used:
  8620 ;;		wreg, status,2, status,0, btemp+1
  8621 ;; Tracked objects:
  8622 ;;		On entry : 0/0
  8623 ;;		On exit  : 0/0
  8624 ;;		Unchanged: 0/0
  8625 ;; Data sizes:     COMMON   BANK0   BANK1   BANK3   BANK2
  8626 ;;      Params:         0       8       0       0       0
  8627 ;;      Locals:         0      13       0       0       0
  8628 ;;      Temps:          0       5       0       0       0
  8629 ;;      Totals:         0      26       0       0       0
  8630 ;;Total ram usage:       26 bytes
  8631 ;; Hardware stack levels used:    1
  8632 ;; This function calls:
  8633 ;;		Nothing
  8634 ;; This function is called by:
  8635 ;;		_pimf
  8636 ;;		_main
  8637 ;; This function uses a non-reentrant model
  8638 ;;
  8639                           
  8640                           
  8641                           ;psect for function ___fldiv
  8642  0000'                    ___fldiv:	
  8643  0000'                    l2444:	
  8644                           ;incstack = 0
  8645                           ; Regs used in ___fldiv: [wreg+status,2+status,0+btemp+1]
  8646                           
  8647  0000' 1283               	bcf	3,5	;RP0=0, select bank0
  8648  0001' 1303               	bcf	3,6	;RP1=0, select bank0
  8649  0002' 0811'              	movf	___fldiv@b+3,w
  8650  0003' 3980               	andlw	128
  8651  0004' 0092'              	movwf	??___fldiv
  8652  0005' 0812'              	movf	??___fldiv,w
  8653  0006' 009B'              	movwf	___fldiv@sign
  8654  0007'                    l2446:	
  8655  0007' 0811'              	movf	___fldiv@b+3,w
  8656  0008' 0092'              	movwf	??___fldiv
  8657  0009' 0712'              	addwf	??___fldiv,w
  8658  000A' 0093'              	movwf	??___fldiv+1
  8659  000B' 0813'              	movf	??___fldiv+1,w
  8660  000C' 00A2'              	movwf	___fldiv@bexp
  8661  000D'                    l2448:	
  8662  000D' 1F90'              	btfss	___fldiv@b+2,7
  8663  000E' 2800'              	goto	u3431
  8664  000F' 2800'              	goto	u3430
  8665  0010'                    u3431:	
  8666  0010' 2800'              	goto	l2452
  8667  0011'                    u3430:	
  8668  0011'                    l2450:	
  8669  0011' 1422'              	bsf	___fldiv@bexp,0
  8670  0012'                    l2452:	
  8671  0012' 0822'              	movf	___fldiv@bexp,w
  8672  0013' 1903               	btfsc	3,2
  8673  0014' 2800'              	goto	u3441
  8674  0015' 2800'              	goto	u3440
  8675  0016'                    u3441:	
  8676  0016' 2800'              	goto	l2462
  8677  0017'                    u3440:	
  8678  0017'                    l2454:	
  8679  0017' 0A22'              	incf	___fldiv@bexp,w
  8680  0018' 1D03               	btfss	3,2
  8681  0019' 2800'              	goto	u3451
  8682  001A' 2800'              	goto	u3450
  8683  001B'                    u3451:	
  8684  001B' 2800'              	goto	l2458
  8685  001C'                    u3450:	
  8686  001C'                    l2456:	
  8687  001C' 3000               	movlw	0
  8688  001D' 0091'              	movwf	___fldiv@b+3
  8689  001E' 3000               	movlw	0
  8690  001F' 0090'              	movwf	___fldiv@b+2
  8691  0020' 3000               	movlw	0
  8692  0021' 008F'              	movwf	___fldiv@b+1
  8693  0022' 3000               	movlw	0
  8694  0023' 008E'              	movwf	___fldiv@b
  8695  0024'                    l2458:	
  8696  0024' 1790'              	bsf	___fldiv@b+2,7
  8697  0025'                    l2460:	
  8698  0025' 0191'              	clrf	___fldiv@b+3
  8699  0026' 2800'              	goto	l2464
  8700  0027'                    l2462:	
  8701  0027' 3000               	movlw	0
  8702  0028' 0091'              	movwf	___fldiv@b+3
  8703  0029' 3000               	movlw	0
  8704  002A' 0090'              	movwf	___fldiv@b+2
  8705  002B' 3000               	movlw	0
  8706  002C' 008F'              	movwf	___fldiv@b+1
  8707  002D' 3000               	movlw	0
  8708  002E' 008E'              	movwf	___fldiv@b
  8709  002F'                    l2464:	
  8710  002F' 080D'              	movf	___fldiv@a+3,w
  8711  0030' 3980               	andlw	128
  8712  0031' 0092'              	movwf	??___fldiv
  8713  0032' 0812'              	movf	??___fldiv,w
  8714  0033' 069B'              	xorwf	___fldiv@sign,f
  8715  0034'                    l2466:	
  8716  0034' 080D'              	movf	___fldiv@a+3,w
  8717  0035' 0092'              	movwf	??___fldiv
  8718  0036' 0712'              	addwf	??___fldiv,w
  8719  0037' 0093'              	movwf	??___fldiv+1
  8720  0038' 0813'              	movf	??___fldiv+1,w
  8721  0039' 00A3'              	movwf	___fldiv@aexp
  8722  003A'                    l2468:	
  8723  003A' 1F8C'              	btfss	___fldiv@a+2,7
  8724  003B' 2800'              	goto	u3461
  8725  003C' 2800'              	goto	u3460
  8726  003D'                    u3461:	
  8727  003D' 2800'              	goto	l2472
  8728  003E'                    u3460:	
  8729  003E'                    l2470:	
  8730  003E' 1423'              	bsf	___fldiv@aexp,0
  8731  003F'                    l2472:	
  8732  003F' 0823'              	movf	___fldiv@aexp,w
  8733  0040' 1903               	btfsc	3,2
  8734  0041' 2800'              	goto	u3471
  8735  0042' 2800'              	goto	u3470
  8736  0043'                    u3471:	
  8737  0043' 2800'              	goto	l2482
  8738  0044'                    u3470:	
  8739  0044'                    l2474:	
  8740  0044' 0A23'              	incf	___fldiv@aexp,w
  8741  0045' 1D03               	btfss	3,2
  8742  0046' 2800'              	goto	u3481
  8743  0047' 2800'              	goto	u3480
  8744  0048'                    u3481:	
  8745  0048' 2800'              	goto	l2478
  8746  0049'                    u3480:	
  8747  0049'                    l2476:	
  8748  0049' 3000               	movlw	0
  8749  004A' 008D'              	movwf	___fldiv@a+3
  8750  004B' 3000               	movlw	0
  8751  004C' 008C'              	movwf	___fldiv@a+2
  8752  004D' 3000               	movlw	0
  8753  004E' 008B'              	movwf	___fldiv@a+1
  8754  004F' 3000               	movlw	0
  8755  0050' 008A'              	movwf	___fldiv@a
  8756  0051'                    l2478:	
  8757  0051' 178C'              	bsf	___fldiv@a+2,7
  8758  0052'                    l2480:	
  8759  0052' 018D'              	clrf	___fldiv@a+3
  8760  0053' 2800'              	goto	l623
  8761  0054'                    l2482:	
  8762  0054' 3000               	movlw	0
  8763  0055' 008D'              	movwf	___fldiv@a+3
  8764  0056' 3000               	movlw	0
  8765  0057' 008C'              	movwf	___fldiv@a+2
  8766  0058' 3000               	movlw	0
  8767  0059' 008B'              	movwf	___fldiv@a+1
  8768  005A' 3000               	movlw	0
  8769  005B' 008A'              	movwf	___fldiv@a
  8770  005C'                    l623:	
  8771  005C' 080D'              	movf	___fldiv@a+3,w
  8772  005D' 040C'              	iorwf	___fldiv@a+2,w
  8773  005E' 040B'              	iorwf	___fldiv@a+1,w
  8774  005F' 040A'              	iorwf	___fldiv@a,w
  8775  0060' 1D03               	skipz
  8776  0061' 2800'              	goto	u3491
  8777  0062' 2800'              	goto	u3490
  8778  0063'                    u3491:	
  8779  0063' 2800'              	goto	l2492
  8780  0064'                    u3490:	
  8781  0064'                    l2484:	
  8782  0064' 3000               	movlw	0
  8783  0065' 0091'              	movwf	___fldiv@b+3
  8784  0066' 3000               	movlw	0
  8785  0067' 0090'              	movwf	___fldiv@b+2
  8786  0068' 3000               	movlw	0
  8787  0069' 008F'              	movwf	___fldiv@b+1
  8788  006A' 3000               	movlw	0
  8789  006B' 008E'              	movwf	___fldiv@b
  8790  006C' 3080               	movlw	128
  8791  006D' 0490'              	iorwf	___fldiv@b+2,f
  8792  006E' 307F               	movlw	127
  8793  006F' 0491'              	iorwf	___fldiv@b+3,f
  8794  0070'                    l2486:	
  8795  0070' 081B'              	movf	___fldiv@sign,w
  8796  0071' 0092'              	movwf	??___fldiv
  8797  0072' 0812'              	movf	??___fldiv,w
  8798  0073' 0491'              	iorwf	___fldiv@b+3,f
  8799  0074'                    l2488:	
  8800  0074' 0811'              	movf	___fldiv@b+3,w
  8801  0075' 008D'              	movwf	?___fldiv+3
  8802  0076' 0810'              	movf	___fldiv@b+2,w
  8803  0077' 008C'              	movwf	?___fldiv+2
  8804  0078' 080F'              	movf	___fldiv@b+1,w
  8805  0079' 008B'              	movwf	?___fldiv+1
  8806  007A' 080E'              	movf	___fldiv@b,w
  8807  007B' 008A'              	movwf	?___fldiv
  8808  007C' 2800'              	goto	l625
  8809  007D'                    l2492:	
  8810  007D' 0822'              	movf	___fldiv@bexp,w
  8811  007E' 1D03               	btfss	3,2
  8812  007F' 2800'              	goto	u3501
  8813  0080' 2800'              	goto	u3500
  8814  0081'                    u3501:	
  8815  0081' 2800'              	goto	l2498
  8816  0082'                    u3500:	
  8817  0082'                    l2494:	
  8818  0082' 3000               	movlw	0
  8819  0083' 008D'              	movwf	?___fldiv+3
  8820  0084' 3000               	movlw	0
  8821  0085' 008C'              	movwf	?___fldiv+2
  8822  0086' 3000               	movlw	0
  8823  0087' 008B'              	movwf	?___fldiv+1
  8824  0088' 3000               	movlw	0
  8825  0089' 008A'              	movwf	?___fldiv
  8826  008A' 2800'              	goto	l625
  8827  008B'                    l2498:	
  8828  008B' 0822'              	movf	___fldiv@bexp,w
  8829  008C' 0092'              	movwf	??___fldiv
  8830  008D' 0193'              	clrf	??___fldiv+1
  8831  008E' 0813'              	movf	??___fldiv+1,w
  8832  008F' 0095'              	movwf	??___fldiv+3
  8833  0090' 0823'              	movf	___fldiv@aexp,w
  8834  0091' 0212'              	subwf	??___fldiv,w
  8835  0092' 0094'              	movwf	??___fldiv+2
  8836  0093' 1C03               	skipc
  8837  0094' 0395'              	decf	??___fldiv+3,f
  8838  0095' 0814'              	movf	??___fldiv+2,w
  8839  0096' 3E7F               	addlw	127
  8840  0097' 009C'              	movwf	___fldiv@new_exp
  8841  0098' 0815'              	movf	??___fldiv+3,w
  8842  0099' 1803               	skipnc
  8843  009A' 3E01               	addlw	1
  8844  009B' 3E00               	addlw	0
  8845  009C' 009D'              	movwf	___fldiv@new_exp+1
  8846  009D'                    l2500:	
  8847  009D' 0811'              	movf	___fldiv@b+3,w
  8848  009E' 009A'              	movwf	___fldiv@rem+3
  8849  009F' 0810'              	movf	___fldiv@b+2,w
  8850  00A0' 0099'              	movwf	___fldiv@rem+2
  8851  00A1' 080F'              	movf	___fldiv@b+1,w
  8852  00A2' 0098'              	movwf	___fldiv@rem+1
  8853  00A3' 080E'              	movf	___fldiv@b,w
  8854  00A4' 0097'              	movwf	___fldiv@rem
  8855  00A5'                    l2502:	
  8856  00A5' 3000               	movlw	0
  8857  00A6' 0091'              	movwf	___fldiv@b+3
  8858  00A7' 3000               	movlw	0
  8859  00A8' 0090'              	movwf	___fldiv@b+2
  8860  00A9' 3000               	movlw	0
  8861  00AA' 008F'              	movwf	___fldiv@b+1
  8862  00AB' 3000               	movlw	0
  8863  00AC' 008E'              	movwf	___fldiv@b
  8864  00AD'                    l2504:	
  8865  00AD' 3000               	movlw	0
  8866  00AE' 00A1'              	movwf	___fldiv@grs+3
  8867  00AF' 3000               	movlw	0
  8868  00B0' 00A0'              	movwf	___fldiv@grs+2
  8869  00B1' 3000               	movlw	0
  8870  00B2' 009F'              	movwf	___fldiv@grs+1
  8871  00B3' 3000               	movlw	0
  8872  00B4' 009E'              	movwf	___fldiv@grs
  8873  00B5'                    l2506:	
  8874  00B5' 01A3'              	clrf	___fldiv@aexp
  8875  00B6' 2800'              	goto	l2526
  8876  00B7'                    l2508:	
  8877  00B7' 0823'              	movf	___fldiv@aexp,w
  8878  00B8' 1903               	btfsc	3,2
  8879  00B9' 2800'              	goto	u3511
  8880  00BA' 2800'              	goto	u3510
  8881  00BB'                    u3511:	
  8882  00BB' 2800'              	goto	l2518
  8883  00BC'                    u3510:	
  8884  00BC'                    l2510:	
  8885  00BC' 3001               	movlw	1
  8886  00BD' 0092'              	movwf	??___fldiv
  8887  00BE'                    u3525:	
  8888  00BE' 1003               	clrc
  8889  00BF' 0D97'              	rlf	___fldiv@rem,f
  8890  00C0' 0D98'              	rlf	___fldiv@rem+1,f
  8891  00C1' 0D99'              	rlf	___fldiv@rem+2,f
  8892  00C2' 0D9A'              	rlf	___fldiv@rem+3,f
  8893  00C3' 0B92'              	decfsz	??___fldiv,f
  8894  00C4' 2800'              	goto	u3525
  8895  00C5' 3001               	movlw	1
  8896  00C6' 0092'              	movwf	??___fldiv
  8897  00C7'                    u3535:	
  8898  00C7' 1003               	clrc
  8899  00C8' 0D8E'              	rlf	___fldiv@b,f
  8900  00C9' 0D8F'              	rlf	___fldiv@b+1,f
  8901  00CA' 0D90'              	rlf	___fldiv@b+2,f
  8902  00CB' 0D91'              	rlf	___fldiv@b+3,f
  8903  00CC' 0B92'              	decfsz	??___fldiv,f
  8904  00CD' 2800'              	goto	u3535
  8905  00CE'                    l2512:	
  8906  00CE' 1FA1'              	btfss	___fldiv@grs+3,7
  8907  00CF' 2800'              	goto	u3541
  8908  00D0' 2800'              	goto	u3540
  8909  00D1'                    u3541:	
  8910  00D1' 2800'              	goto	l2516
  8911  00D2'                    u3540:	
  8912  00D2'                    l2514:	
  8913  00D2' 140E'              	bsf	___fldiv@b,0
  8914  00D3'                    l2516:	
  8915  00D3' 3001               	movlw	1
  8916  00D4' 0092'              	movwf	??___fldiv
  8917  00D5'                    u3555:	
  8918  00D5' 1003               	clrc
  8919  00D6' 0D9E'              	rlf	___fldiv@grs,f
  8920  00D7' 0D9F'              	rlf	___fldiv@grs+1,f
  8921  00D8' 0DA0'              	rlf	___fldiv@grs+2,f
  8922  00D9' 0DA1'              	rlf	___fldiv@grs+3,f
  8923  00DA' 0B92'              	decfsz	??___fldiv,f
  8924  00DB' 2800'              	goto	u3555
  8925  00DC'                    l2518:	
  8926  00DC' 080D'              	movf	___fldiv@a+3,w
  8927  00DD' 021A'              	subwf	___fldiv@rem+3,w
  8928  00DE' 1D03               	skipz
  8929  00DF' 2800'              	goto	u3565
  8930  00E0' 080C'              	movf	___fldiv@a+2,w
  8931  00E1' 0219'              	subwf	___fldiv@rem+2,w
  8932  00E2' 1D03               	skipz
  8933  00E3' 2800'              	goto	u3565
  8934  00E4' 080B'              	movf	___fldiv@a+1,w
  8935  00E5' 0218'              	subwf	___fldiv@rem+1,w
  8936  00E6' 1D03               	skipz
  8937  00E7' 2800'              	goto	u3565
  8938  00E8' 080A'              	movf	___fldiv@a,w
  8939  00E9' 0217'              	subwf	___fldiv@rem,w
  8940  00EA'                    u3565:	
  8941  00EA' 1C03               	skipc
  8942  00EB' 2800'              	goto	u3561
  8943  00EC' 2800'              	goto	u3560
  8944  00ED'                    u3561:	
  8945  00ED' 2800'              	goto	l2524
  8946  00EE'                    u3560:	
  8947  00EE'                    l2520:	
  8948  00EE' 1721'              	bsf	___fldiv@grs+3,6
  8949  00EF'                    l2522:	
  8950  00EF' 080A'              	movf	___fldiv@a,w
  8951  00F0' 0297'              	subwf	___fldiv@rem,f
  8952  00F1' 080B'              	movf	___fldiv@a+1,w
  8953  00F2' 1C03               	skipc
  8954  00F3' 0F0B'              	incfsz	___fldiv@a+1,w
  8955  00F4' 0298'              	subwf	___fldiv@rem+1,f
  8956  00F5' 080C'              	movf	___fldiv@a+2,w
  8957  00F6' 1C03               	skipc
  8958  00F7' 0F0C'              	incfsz	___fldiv@a+2,w
  8959  00F8' 0299'              	subwf	___fldiv@rem+2,f
  8960  00F9' 080D'              	movf	___fldiv@a+3,w
  8961  00FA' 1C03               	skipc
  8962  00FB' 0F0D'              	incfsz	___fldiv@a+3,w
  8963  00FC' 029A'              	subwf	___fldiv@rem+3,f
  8964  00FD'                    l2524:	
  8965  00FD' 3001               	movlw	1
  8966  00FE' 0092'              	movwf	??___fldiv
  8967  00FF' 0812'              	movf	??___fldiv,w
  8968  0100' 07A3'              	addwf	___fldiv@aexp,f
  8969  0101'                    l2526:	
  8970  0101' 301A               	movlw	26
  8971  0102' 0223'              	subwf	___fldiv@aexp,w
  8972  0103' 1C03               	skipc
  8973  0104' 2800'              	goto	u3571
  8974  0105' 2800'              	goto	u3570
  8975  0106'                    u3571:	
  8976  0106' 2800'              	goto	l2508
  8977  0107'                    u3570:	
  8978  0107'                    l2528:	
  8979  0107' 081A'              	movf	___fldiv@rem+3,w
  8980  0108' 0419'              	iorwf	___fldiv@rem+2,w
  8981  0109' 0418'              	iorwf	___fldiv@rem+1,w
  8982  010A' 0417'              	iorwf	___fldiv@rem,w
  8983  010B' 1903               	skipnz
  8984  010C' 2800'              	goto	u3581
  8985  010D' 2800'              	goto	u3580
  8986  010E'                    u3581:	
  8987  010E' 2800'              	goto	l2542
  8988  010F'                    u3580:	
  8989  010F'                    l2530:	
  8990  010F' 141E'              	bsf	___fldiv@grs,0
  8991  0110' 2800'              	goto	l2542
  8992  0111'                    l2532:	
  8993  0111' 3001               	movlw	1
  8994  0112' 0092'              	movwf	??___fldiv
  8995  0113'                    u3595:	
  8996  0113' 1003               	clrc
  8997  0114' 0D8E'              	rlf	___fldiv@b,f
  8998  0115' 0D8F'              	rlf	___fldiv@b+1,f
  8999  0116' 0D90'              	rlf	___fldiv@b+2,f
  9000  0117' 0D91'              	rlf	___fldiv@b+3,f
  9001  0118' 0B92'              	decfsz	??___fldiv,f
  9002  0119' 2800'              	goto	u3595
  9003  011A'                    l2534:	
  9004  011A' 1FA1'              	btfss	___fldiv@grs+3,7
  9005  011B' 2800'              	goto	u3601
  9006  011C' 2800'              	goto	u3600
  9007  011D'                    u3601:	
  9008  011D' 2800'              	goto	l2538
  9009  011E'                    u3600:	
  9010  011E'                    l2536:	
  9011  011E' 140E'              	bsf	___fldiv@b,0
  9012  011F'                    l2538:	
  9013  011F' 3001               	movlw	1
  9014  0120' 0092'              	movwf	??___fldiv
  9015  0121'                    u3615:	
  9016  0121' 1003               	clrc
  9017  0122' 0D9E'              	rlf	___fldiv@grs,f
  9018  0123' 0D9F'              	rlf	___fldiv@grs+1,f
  9019  0124' 0DA0'              	rlf	___fldiv@grs+2,f
  9020  0125' 0DA1'              	rlf	___fldiv@grs+3,f
  9021  0126' 0B92'              	decfsz	??___fldiv,f
  9022  0127' 2800'              	goto	u3615
  9023  0128'                    l2540:	
  9024  0128' 30FF               	movlw	255
  9025  0129' 079C'              	addwf	___fldiv@new_exp,f
  9026  012A' 1803               	skipnc
  9027  012B' 0A9D'              	incf	___fldiv@new_exp+1,f
  9028  012C' 30FF               	movlw	255
  9029  012D' 079D'              	addwf	___fldiv@new_exp+1,f
  9030  012E'                    l2542:	
  9031  012E' 1F90'              	btfss	___fldiv@b+2,7
  9032  012F' 2800'              	goto	u3621
  9033  0130' 2800'              	goto	u3620
  9034  0131'                    u3621:	
  9035  0131' 2800'              	goto	l2532
  9036  0132'                    u3620:	
  9037  0132'                    l2544:	
  9038  0132' 01A3'              	clrf	___fldiv@aexp
  9039  0133'                    l2546:	
  9040  0133' 1FA1'              	btfss	___fldiv@grs+3,7
  9041  0134' 2800'              	goto	u3631
  9042  0135' 2800'              	goto	u3630
  9043  0136'                    u3631:	
  9044  0136' 2800'              	goto	l2554
  9045  0137'                    u3630:	
  9046  0137'                    l2548:	
  9047  0137' 30FF               	movlw	255
  9048  0138' 051E'              	andwf	___fldiv@grs,w
  9049  0139' 0092'              	movwf	??___fldiv
  9050  013A' 30FF               	movlw	255
  9051  013B' 051F'              	andwf	___fldiv@grs+1,w
  9052  013C' 0093'              	movwf	??___fldiv+1
  9053  013D' 30FF               	movlw	255
  9054  013E' 0520'              	andwf	___fldiv@grs+2,w
  9055  013F' 0094'              	movwf	??___fldiv+2
  9056  0140' 307F               	movlw	127
  9057  0141' 0521'              	andwf	___fldiv@grs+3,w
  9058  0142' 0095'              	movwf	??___fldiv+3
  9059  0143' 0815'              	movf	??___fldiv+3,w
  9060  0144' 0414'              	iorwf	??___fldiv+2,w
  9061  0145' 0413'              	iorwf	??___fldiv+1,w
  9062  0146' 0412'              	iorwf	??___fldiv,w
  9063  0147' 1903               	skipnz
  9064  0148' 2800'              	goto	u3641
  9065  0149' 2800'              	goto	u3640
  9066  014A'                    u3641:	
  9067  014A' 2800'              	goto	l639
  9068  014B'                    u3640:	
  9069  014B'                    l2550:	
  9070  014B' 01A3'              	clrf	___fldiv@aexp
  9071  014C' 0AA3'              	incf	___fldiv@aexp,f
  9072  014D' 2800'              	goto	l2554
  9073  014E'                    l639:	
  9074  014E' 1C0E'              	btfss	___fldiv@b,0
  9075  014F' 2800'              	goto	u3651
  9076  0150' 2800'              	goto	u3650
  9077  0151'                    u3651:	
  9078  0151' 2800'              	goto	l2554
  9079  0152'                    u3650:	
  9080  0152' 2800'              	goto	l2550
  9081  0153'                    l2554:	
  9082  0153' 0823'              	movf	___fldiv@aexp,w
  9083  0154' 1903               	btfsc	3,2
  9084  0155' 2800'              	goto	u3661
  9085  0156' 2800'              	goto	u3660
  9086  0157'                    u3661:	
  9087  0157' 2800'              	goto	l2564
  9088  0158'                    u3660:	
  9089  0158'                    l2556:	
  9090  0158' 3001               	movlw	1
  9091  0159' 078E'              	addwf	___fldiv@b,f
  9092  015A' 3000               	movlw	0
  9093  015B' 1803               	skipnc
  9094  015C' 3001               	movlw	1
  9095  015D' 078F'              	addwf	___fldiv@b+1,f
  9096  015E' 3000               	movlw	0
  9097  015F' 1803               	skipnc
  9098  0160' 3001               	movlw	1
  9099  0161' 0790'              	addwf	___fldiv@b+2,f
  9100  0162' 3000               	movlw	0
  9101  0163' 1803               	skipnc
  9102  0164' 3001               	movlw	1
  9103  0165' 0791'              	addwf	___fldiv@b+3,f
  9104  0166'                    l2558:	
  9105  0166' 1C11'              	btfss	___fldiv@b+3,0
  9106  0167' 2800'              	goto	u3671
  9107  0168' 2800'              	goto	u3670
  9108  0169'                    u3671:	
  9109  0169' 2800'              	goto	l2564
  9110  016A'                    u3670:	
  9111  016A'                    l2560:	
  9112  016A' 080E'              	movf	___fldiv@b,w
  9113  016B' 0092'              	movwf	??___fldiv
  9114  016C' 080F'              	movf	___fldiv@b+1,w
  9115  016D' 0093'              	movwf	??___fldiv+1
  9116  016E' 0810'              	movf	___fldiv@b+2,w
  9117  016F' 0094'              	movwf	??___fldiv+2
  9118  0170' 0811'              	movf	___fldiv@b+3,w
  9119  0171' 0095'              	movwf	??___fldiv+3
  9120  0172' 3001               	movlw	1
  9121  0173' 0096'              	movwf	??___fldiv+4
  9122  0174'                    u3685:	
  9123  0174' 0D15'              	rlf	??___fldiv+3,w
  9124  0175' 0C95'              	rrf	??___fldiv+3,f
  9125  0176' 0C94'              	rrf	??___fldiv+2,f
  9126  0177' 0C93'              	rrf	??___fldiv+1,f
  9127  0178' 0C92'              	rrf	??___fldiv,f
  9128  0179'                    u3680:	
  9129  0179' 0B96'              	decfsz	??___fldiv+4,f
  9130  017A' 2800'              	goto	u3685
  9131  017B' 0815'              	movf	??___fldiv+3,w
  9132  017C' 0091'              	movwf	___fldiv@b+3
  9133  017D' 0814'              	movf	??___fldiv+2,w
  9134  017E' 0090'              	movwf	___fldiv@b+2
  9135  017F' 0813'              	movf	??___fldiv+1,w
  9136  0180' 008F'              	movwf	___fldiv@b+1
  9137  0181' 0812'              	movf	??___fldiv,w
  9138  0182' 008E'              	movwf	___fldiv@b
  9139  0183'                    l2562:	
  9140  0183' 3001               	movlw	1
  9141  0184' 079C'              	addwf	___fldiv@new_exp,f
  9142  0185' 1803               	skipnc
  9143  0186' 0A9D'              	incf	___fldiv@new_exp+1,f
  9144  0187' 3000               	movlw	0
  9145  0188' 079D'              	addwf	___fldiv@new_exp+1,f
  9146  0189'                    l2564:	
  9147  0189' 081D'              	movf	___fldiv@new_exp+1,w
  9148  018A' 3A80               	xorlw	128
  9149  018B' 00FF               	movwf	btemp+1
  9150  018C' 3080               	movlw	128
  9151  018D' 027F               	subwf	btemp+1,w
  9152  018E' 1D03               	skipz
  9153  018F' 2800'              	goto	u3695
  9154  0190' 30FF               	movlw	255
  9155  0191' 021C'              	subwf	___fldiv@new_exp,w
  9156  0192'                    u3695:	
  9157  0192' 1C03               	skipc
  9158  0193' 2800'              	goto	u3691
  9159  0194' 2800'              	goto	u3690
  9160  0195'                    u3691:	
  9161  0195' 2800'              	goto	l2568
  9162  0196'                    u3690:	
  9163  0196'                    l2566:	
  9164  0196' 30FF               	movlw	255
  9165  0197' 1283               	bcf	3,5	;RP0=0, select bank0
  9166  0198' 1303               	bcf	3,6	;RP1=0, select bank0
  9167  0199' 009C'              	movwf	___fldiv@new_exp
  9168  019A' 3000               	movlw	0
  9169  019B' 009D'              	movwf	___fldiv@new_exp+1
  9170  019C' 3000               	movlw	0
  9171  019D' 0091'              	movwf	___fldiv@b+3
  9172  019E' 3000               	movlw	0
  9173  019F' 0090'              	movwf	___fldiv@b+2
  9174  01A0' 3000               	movlw	0
  9175  01A1' 008F'              	movwf	___fldiv@b+1
  9176  01A2' 3000               	movlw	0
  9177  01A3' 008E'              	movwf	___fldiv@b
  9178  01A4'                    l2568:	
  9179  01A4' 1283               	bcf	3,5	;RP0=0, select bank0
  9180  01A5' 1303               	bcf	3,6	;RP1=0, select bank0
  9181  01A6' 081D'              	movf	___fldiv@new_exp+1,w
  9182  01A7' 3A80               	xorlw	128
  9183  01A8' 00FF               	movwf	btemp+1
  9184  01A9' 3080               	movlw	128
  9185  01AA' 027F               	subwf	btemp+1,w
  9186  01AB' 1D03               	skipz
  9187  01AC' 2800'              	goto	u3705
  9188  01AD' 3001               	movlw	1
  9189  01AE' 021C'              	subwf	___fldiv@new_exp,w
  9190  01AF'                    u3705:	
  9191  01AF' 1803               	skipnc
  9192  01B0' 2800'              	goto	u3701
  9193  01B1' 2800'              	goto	u3700
  9194  01B2'                    u3701:	
  9195  01B2' 2800'              	goto	l645
  9196  01B3'                    u3700:	
  9197  01B3'                    l2570:	
  9198  01B3' 1283               	bcf	3,5	;RP0=0, select bank0
  9199  01B4' 1303               	bcf	3,6	;RP1=0, select bank0
  9200  01B5' 019C'              	clrf	___fldiv@new_exp
  9201  01B6' 019D'              	clrf	___fldiv@new_exp+1
  9202  01B7'                    l2572:	
  9203  01B7' 3000               	movlw	0
  9204  01B8' 0091'              	movwf	___fldiv@b+3
  9205  01B9' 3000               	movlw	0
  9206  01BA' 0090'              	movwf	___fldiv@b+2
  9207  01BB' 3000               	movlw	0
  9208  01BC' 008F'              	movwf	___fldiv@b+1
  9209  01BD' 3000               	movlw	0
  9210  01BE' 008E'              	movwf	___fldiv@b
  9211  01BF'                    l2574:	
  9212  01BF' 019B'              	clrf	___fldiv@sign
  9213  01C0'                    l645:	
  9214  01C0' 1283               	bcf	3,5	;RP0=0, select bank0
  9215  01C1' 1303               	bcf	3,6	;RP1=0, select bank0
  9216  01C2' 081C'              	movf	___fldiv@new_exp,w
  9217  01C3' 0092'              	movwf	??___fldiv
  9218  01C4' 0812'              	movf	??___fldiv,w
  9219  01C5' 00A2'              	movwf	___fldiv@bexp
  9220  01C6'                    l2576:	
  9221  01C6' 1C22'              	btfss	___fldiv@bexp,0
  9222  01C7' 2800'              	goto	u3711
  9223  01C8' 2800'              	goto	u3710
  9224  01C9'                    u3711:	
  9225  01C9' 2800'              	goto	l2580
  9226  01CA'                    u3710:	
  9227  01CA'                    l2578:	
  9228  01CA' 1790'              	bsf	___fldiv@b+2,7
  9229  01CB' 2800'              	goto	l647
  9230  01CC'                    l2580:	
  9231  01CC' 307F               	movlw	127
  9232  01CD' 0092'              	movwf	??___fldiv
  9233  01CE' 0812'              	movf	??___fldiv,w
  9234  01CF' 0590'              	andwf	___fldiv@b+2,f
  9235  01D0'                    l647:	
  9236  01D0' 0822'              	movf	___fldiv@bexp,w
  9237  01D1' 0092'              	movwf	??___fldiv
  9238  01D2' 1003               	clrc
  9239  01D3' 0C12'              	rrf	??___fldiv,w
  9240  01D4' 0093'              	movwf	??___fldiv+1
  9241  01D5' 0813'              	movf	??___fldiv+1,w
  9242  01D6' 0091'              	movwf	___fldiv@b+3
  9243  01D7' 081B'              	movf	___fldiv@sign,w
  9244  01D8' 0092'              	movwf	??___fldiv
  9245  01D9' 0812'              	movf	??___fldiv,w
  9246  01DA' 0491'              	iorwf	___fldiv@b+3,f
  9247  01DB' 2800'              	goto	l2488
  9248  01DC'                    l625:	
  9249  01DC' 0008               	return
  9250  01DD'                    __end_of___fldiv:	
  9251                           
  9252                           	psect	text27
  9253  0000'                    __ptext27:	
  9254 ;; *************** function ___wmul *****************
  9255 ;; Defined at:
  9256 ;;		line 15 in file "C:\Program Files (x86)\Microchip\xc8\v2.10\pic\sources\c90\common\Umul16.c"
  9257 ;; Parameters:    Size  Location     Type
  9258 ;;  multiplier      2    0[COMMON] unsigned int 
  9259 ;;  multiplicand    2    2[COMMON] unsigned int 
  9260 ;; Auto vars:     Size  Location     Type
  9261 ;;  product         2    4[COMMON] unsigned int 
  9262 ;; Return value:  Size  Location     Type
  9263 ;;                  2    0[COMMON] unsigned int 
  9264 ;; Registers used:
  9265 ;;		wreg, status,2, status,0
  9266 ;; Tracked objects:
  9267 ;;		On entry : 0/0
  9268 ;;		On exit  : 0/0
  9269 ;;		Unchanged: 0/0
  9270 ;; Data sizes:     COMMON   BANK0   BANK1   BANK3   BANK2
  9271 ;;      Params:         4       0       0       0       0
  9272 ;;      Locals:         2       0       0       0       0
  9273 ;;      Temps:          0       0       0       0       0
  9274 ;;      Totals:         6       0       0       0       0
  9275 ;;Total ram usage:        6 bytes
  9276 ;; Hardware stack levels used:    1
  9277 ;; This function calls:
  9278 ;;		Nothing
  9279 ;; This function is called by:
  9280 ;;		_Fuz
  9281 ;;		_main
  9282 ;; This function uses a non-reentrant model
  9283 ;;
  9284                           
  9285                           
  9286                           ;psect for function ___wmul
  9287  0000'                    ___wmul:	
  9288  0000'                    l2862:	
  9289                           ;incstack = 0
  9290                           ; Regs used in ___wmul: [wreg+status,2+status,0]
  9291                           
  9292  0000' 0184'              	clrf	___wmul@product
  9293  0001' 0185'              	clrf	___wmul@product+1
  9294  0002'                    l2864:	
  9295  0002' 1C00'              	btfss	___wmul@multiplier,0
  9296  0003' 2800'              	goto	u4381
  9297  0004' 2800'              	goto	u4380
  9298  0005'                    u4381:	
  9299  0005' 2800'              	goto	l274
  9300  0006'                    u4380:	
  9301  0006'                    l2866:	
  9302  0006' 0802'              	movf	___wmul@multiplicand,w
  9303  0007' 0784'              	addwf	___wmul@product,f
  9304  0008' 1803               	skipnc
  9305  0009' 0A85'              	incf	___wmul@product+1,f
  9306  000A' 0803'              	movf	___wmul@multiplicand+1,w
  9307  000B' 0785'              	addwf	___wmul@product+1,f
  9308  000C'                    l274:	
  9309  000C' 3001               	movlw	1
  9310  000D'                    u4395:	
  9311  000D' 1003               	clrc
  9312  000E' 0D82'              	rlf	___wmul@multiplicand,f
  9313  000F' 0D83'              	rlf	___wmul@multiplicand+1,f
  9314  0010' 3EFF               	addlw	-1
  9315  0011' 1D03               	skipz
  9316  0012' 2800'              	goto	u4395
  9317  0013'                    l2868:	
  9318  0013' 3001               	movlw	1
  9319  0014'                    u4405:	
  9320  0014' 1003               	clrc
  9321  0015' 0C81'              	rrf	___wmul@multiplier+1,f
  9322  0016' 0C80'              	rrf	___wmul@multiplier,f
  9323  0017' 3EFF               	addlw	-1
  9324  0018' 1D03               	skipz
  9325  0019' 2800'              	goto	u4405
  9326  001A'                    l2870:	
  9327  001A' 0800'              	movf	___wmul@multiplier,w
  9328  001B' 0401'              	iorwf	___wmul@multiplier+1,w
  9329  001C' 1D03               	btfss	3,2
  9330  001D' 2800'              	goto	u4411
  9331  001E' 2800'              	goto	u4410
  9332  001F'                    u4411:	
  9333  001F' 2800'              	goto	l2864
  9334  0020'                    u4410:	
  9335  0020'                    l2872:	
  9336  0020' 0805'              	movf	___wmul@product+1,w
  9337  0021' 0081'              	movwf	?___wmul+1
  9338  0022' 0804'              	movf	___wmul@product,w
  9339  0023' 0080'              	movwf	?___wmul
  9340  0024'                    l276:	
  9341  0024' 0008               	return
  9342  0025'                    __end_of___wmul:	
  9343                           
  9344                           	psect	text28
  9345  0000'                    __ptext28:	
  9346 ;; *************** function ___awdiv *****************
  9347 ;; Defined at:
  9348 ;;		line 5 in file "C:\Program Files (x86)\Microchip\xc8\v2.10\pic\sources\c90\common\awdiv.c"
  9349 ;; Parameters:    Size  Location     Type
  9350 ;;  divisor         2    0[COMMON] int 
  9351 ;;  dividend        2    2[COMMON] int 
  9352 ;; Auto vars:     Size  Location     Type
  9353 ;;  quotient        2    7[COMMON] int 
  9354 ;;  sign            1    6[COMMON] unsigned char 
  9355 ;;  counter         1    5[COMMON] unsigned char 
  9356 ;; Return value:  Size  Location     Type
  9357 ;;                  2    0[COMMON] int 
  9358 ;; Registers used:
  9359 ;;		wreg, status,2, status,0
  9360 ;; Tracked objects:
  9361 ;;		On entry : 0/0
  9362 ;;		On exit  : 0/0
  9363 ;;		Unchanged: 0/0
  9364 ;; Data sizes:     COMMON   BANK0   BANK1   BANK3   BANK2
  9365 ;;      Params:         4       0       0       0       0
  9366 ;;      Locals:         4       0       0       0       0
  9367 ;;      Temps:          1       0       0       0       0
  9368 ;;      Totals:         9       0       0       0       0
  9369 ;;Total ram usage:        9 bytes
  9370 ;; Hardware stack levels used:    1
  9371 ;; This function calls:
  9372 ;;		Nothing
  9373 ;; This function is called by:
  9374 ;;		_Fuz
  9375 ;;		_main
  9376 ;;		_distancia
  9377 ;; This function uses a non-reentrant model
  9378 ;;
  9379                           
  9380                           
  9381                           ;psect for function ___awdiv
  9382  0000'                    ___awdiv:	
  9383  0000'                    l2876:	
  9384                           ;incstack = 0
  9385                           ; Regs used in ___awdiv: [wreg+status,2+status,0]
  9386                           
  9387  0000' 0186'              	clrf	___awdiv@sign
  9388  0001'                    l2878:	
  9389  0001' 1F81'              	btfss	___awdiv@divisor+1,7
  9390  0002' 2800'              	goto	u4421
  9391  0003' 2800'              	goto	u4420
  9392  0004'                    u4421:	
  9393  0004' 2800'              	goto	l2884
  9394  0005'                    u4420:	
  9395  0005'                    l2880:	
  9396  0005' 0980'              	comf	___awdiv@divisor,f
  9397  0006' 0981'              	comf	___awdiv@divisor+1,f
  9398  0007' 0A80'              	incf	___awdiv@divisor,f
  9399  0008' 1903               	skipnz
  9400  0009' 0A81'              	incf	___awdiv@divisor+1,f
  9401  000A'                    l2882:	
  9402  000A' 0186'              	clrf	___awdiv@sign
  9403  000B' 0A86'              	incf	___awdiv@sign,f
  9404  000C'                    l2884:	
  9405  000C' 1F83'              	btfss	___awdiv@dividend+1,7
  9406  000D' 2800'              	goto	u4431
  9407  000E' 2800'              	goto	u4430
  9408  000F'                    u4431:	
  9409  000F' 2800'              	goto	l2890
  9410  0010'                    u4430:	
  9411  0010'                    l2886:	
  9412  0010' 0982'              	comf	___awdiv@dividend,f
  9413  0011' 0983'              	comf	___awdiv@dividend+1,f
  9414  0012' 0A82'              	incf	___awdiv@dividend,f
  9415  0013' 1903               	skipnz
  9416  0014' 0A83'              	incf	___awdiv@dividend+1,f
  9417  0015'                    l2888:	
  9418  0015' 3001               	movlw	1
  9419  0016' 0084'              	movwf	??___awdiv
  9420  0017' 0804'              	movf	??___awdiv,w
  9421  0018' 0686'              	xorwf	___awdiv@sign,f
  9422  0019'                    l2890:	
  9423  0019' 0187'              	clrf	___awdiv@quotient
  9424  001A' 0188'              	clrf	___awdiv@quotient+1
  9425  001B'                    l2892:	
  9426  001B' 0800'              	movf	___awdiv@divisor,w
  9427  001C' 0401'              	iorwf	___awdiv@divisor+1,w
  9428  001D' 1903               	btfsc	3,2
  9429  001E' 2800'              	goto	u4441
  9430  001F' 2800'              	goto	u4440
  9431  0020'                    u4441:	
  9432  0020' 2800'              	goto	l2912
  9433  0021'                    u4440:	
  9434  0021'                    l2894:	
  9435  0021' 0185'              	clrf	___awdiv@counter
  9436  0022' 0A85'              	incf	___awdiv@counter,f
  9437  0023' 2800'              	goto	l2900
  9438  0024'                    l2896:	
  9439  0024' 3001               	movlw	1
  9440  0025'                    u4455:	
  9441  0025' 1003               	clrc
  9442  0026' 0D80'              	rlf	___awdiv@divisor,f
  9443  0027' 0D81'              	rlf	___awdiv@divisor+1,f
  9444  0028' 3EFF               	addlw	-1
  9445  0029' 1D03               	skipz
  9446  002A' 2800'              	goto	u4455
  9447  002B'                    l2898:	
  9448  002B' 3001               	movlw	1
  9449  002C' 0084'              	movwf	??___awdiv
  9450  002D' 0804'              	movf	??___awdiv,w
  9451  002E' 0785'              	addwf	___awdiv@counter,f
  9452  002F'                    l2900:	
  9453  002F' 1F81'              	btfss	___awdiv@divisor+1,7
  9454  0030' 2800'              	goto	u4461
  9455  0031' 2800'              	goto	u4460
  9456  0032'                    u4461:	
  9457  0032' 2800'              	goto	l2896
  9458  0033'                    u4460:	
  9459  0033'                    l2902:	
  9460  0033' 3001               	movlw	1
  9461  0034'                    u4475:	
  9462  0034' 1003               	clrc
  9463  0035' 0D87'              	rlf	___awdiv@quotient,f
  9464  0036' 0D88'              	rlf	___awdiv@quotient+1,f
  9465  0037' 3EFF               	addlw	-1
  9466  0038' 1D03               	skipz
  9467  0039' 2800'              	goto	u4475
  9468  003A' 0801'              	movf	___awdiv@divisor+1,w
  9469  003B' 0203'              	subwf	___awdiv@dividend+1,w
  9470  003C' 1D03               	skipz
  9471  003D' 2800'              	goto	u4485
  9472  003E' 0800'              	movf	___awdiv@divisor,w
  9473  003F' 0202'              	subwf	___awdiv@dividend,w
  9474  0040'                    u4485:	
  9475  0040' 1C03               	skipc
  9476  0041' 2800'              	goto	u4481
  9477  0042' 2800'              	goto	u4480
  9478  0043'                    u4481:	
  9479  0043' 2800'              	goto	l2908
  9480  0044'                    u4480:	
  9481  0044'                    l2904:	
  9482  0044' 0800'              	movf	___awdiv@divisor,w
  9483  0045' 0282'              	subwf	___awdiv@dividend,f
  9484  0046' 0801'              	movf	___awdiv@divisor+1,w
  9485  0047' 1C03               	skipc
  9486  0048' 0383'              	decf	___awdiv@dividend+1,f
  9487  0049' 0283'              	subwf	___awdiv@dividend+1,f
  9488  004A'                    l2906:	
  9489  004A' 1407'              	bsf	___awdiv@quotient,0
  9490  004B'                    l2908:	
  9491  004B' 3001               	movlw	1
  9492  004C'                    u4495:	
  9493  004C' 1003               	clrc
  9494  004D' 0C81'              	rrf	___awdiv@divisor+1,f
  9495  004E' 0C80'              	rrf	___awdiv@divisor,f
  9496  004F' 3EFF               	addlw	-1
  9497  0050' 1D03               	skipz
  9498  0051' 2800'              	goto	u4495
  9499  0052'                    l2910:	
  9500  0052' 3001               	movlw	1
  9501  0053' 0285'              	subwf	___awdiv@counter,f
  9502  0054' 1D03               	btfss	3,2
  9503  0055' 2800'              	goto	u4501
  9504  0056' 2800'              	goto	u4500
  9505  0057'                    u4501:	
  9506  0057' 2800'              	goto	l2902
  9507  0058'                    u4500:	
  9508  0058'                    l2912:	
  9509  0058' 0806'              	movf	___awdiv@sign,w
  9510  0059' 1903               	btfsc	3,2
  9511  005A' 2800'              	goto	u4511
  9512  005B' 2800'              	goto	u4510
  9513  005C'                    u4511:	
  9514  005C' 2800'              	goto	l2916
  9515  005D'                    u4510:	
  9516  005D'                    l2914:	
  9517  005D' 0987'              	comf	___awdiv@quotient,f
  9518  005E' 0988'              	comf	___awdiv@quotient+1,f
  9519  005F' 0A87'              	incf	___awdiv@quotient,f
  9520  0060' 1903               	skipnz
  9521  0061' 0A88'              	incf	___awdiv@quotient+1,f
  9522  0062'                    l2916:	
  9523  0062' 0808'              	movf	___awdiv@quotient+1,w
  9524  0063' 0081'              	movwf	?___awdiv+1
  9525  0064' 0807'              	movf	___awdiv@quotient,w
  9526  0065' 0080'              	movwf	?___awdiv
  9527  0066'                    l427:	
  9528  0066' 0008               	return
  9529  0067'                    __end_of___awdiv:	
  9530  007E                     btemp	set	126	;btemp
  9531  007E                     wtemp0	set	126
  9532                           
  9533                           	psect	text17_split_1
  9534  0000'                    l3070:	
  9535                           
  9536                           ;./Fuzzy_Lib.h: 100:     if (Min[0]>=Min[1] & Min[0]>=Min[2] & Min[0]>=Min[3]){
  9537  0000' 1683               	bsf	3,5	;RP0=1, select bank3
  9538  0001' 1703               	bsf	3,6	;RP1=1, select bank3
  9539  0002' 0800'              	movf	(Fuz@Min+1)^(0+384),w
  9540  0003' 3A80               	xorlw	128
  9541  0004' 1683               	bsf	3,5	;RP0=1, select bank1
  9542  0005' 1303               	bcf	3,6	;RP1=0, select bank1
  9543  0006' 0080'              	movwf	??_Fuz^(0+128)
  9544  0007' 1683               	bsf	3,5	;RP0=1, select bank3
  9545  0008' 1703               	bsf	3,6	;RP1=1, select bank3
  9546  0009' 0802'              	movf	((Fuz@Min+1)^(0+384)+2),w
  9547  000A' 3A80               	xorlw	128
  9548  000B' 1683               	bsf	3,5	;RP0=1, select bank1
  9549  000C' 1303               	bcf	3,6	;RP1=0, select bank1
  9550  000D' 0200'              	subwf	??_Fuz^(0+128),w
  9551  000E' 1D03               	skipz
  9552  000F' 2800'              	goto	u4675
  9553  0010' 1683               	bsf	3,5	;RP0=1, select bank3
  9554  0011' 1703               	bsf	3,6	;RP1=1, select bank3
  9555  0012' 0802'              	movf	(Fuz@Min^(0+384)+2),w
  9556  0013' 0200'              	subwf	Fuz@Min^(0+384),w
  9557  0014'                    u4675:	
  9558  0014' 1C03               	skipc
  9559  0015' 2800'              	goto	u4671
  9560  0016' 2800'              	goto	u4670
  9561  0017'                    u4671:	
  9562  0017' 2800'              	goto	l3078
  9563  0018'                    u4670:	
  9564  0018'                    l3072:	
  9565  0018' 1683               	bsf	3,5	;RP0=1, select bank3
  9566  0019' 1703               	bsf	3,6	;RP1=1, select bank3
  9567  001A' 0800'              	movf	(Fuz@Min+1)^(0+384),w
  9568  001B' 3A80               	xorlw	128
  9569  001C' 1683               	bsf	3,5	;RP0=1, select bank1
  9570  001D' 1303               	bcf	3,6	;RP1=0, select bank1
  9571  001E' 0080'              	movwf	??_Fuz^(0+128)
  9572  001F' 1683               	bsf	3,5	;RP0=1, select bank3
  9573  0020' 1703               	bsf	3,6	;RP1=1, select bank3
  9574  0021' 0804'              	movf	((Fuz@Min+1)^(0+384)+4),w
  9575  0022' 3A80               	xorlw	128
  9576  0023' 1683               	bsf	3,5	;RP0=1, select bank1
  9577  0024' 1303               	bcf	3,6	;RP1=0, select bank1
  9578  0025' 0200'              	subwf	??_Fuz^(0+128),w
  9579  0026' 1D03               	skipz
  9580  0027' 2800'              	goto	u4685
  9581  0028' 1683               	bsf	3,5	;RP0=1, select bank3
  9582  0029' 1703               	bsf	3,6	;RP1=1, select bank3
  9583  002A' 0804'              	movf	(Fuz@Min^(0+384)+4),w
  9584  002B' 0200'              	subwf	Fuz@Min^(0+384),w
  9585  002C'                    u4685:	
  9586  002C' 1C03               	skipc
  9587  002D' 2800'              	goto	u4681
  9588  002E' 2800'              	goto	u4680
  9589  002F'                    u4681:	
  9590  002F' 2800'              	goto	l3078
  9591  0030'                    u4680:	
  9592  0030'                    l3074:	
  9593  0030' 1683               	bsf	3,5	;RP0=1, select bank3
  9594  0031' 1703               	bsf	3,6	;RP1=1, select bank3
  9595  0032' 0800'              	movf	(Fuz@Min+1)^(0+384),w
  9596  0033' 3A80               	xorlw	128
  9597  0034' 1683               	bsf	3,5	;RP0=1, select bank1
  9598  0035' 1303               	bcf	3,6	;RP1=0, select bank1
  9599  0036' 0080'              	movwf	??_Fuz^(0+128)
  9600  0037' 1683               	bsf	3,5	;RP0=1, select bank3
  9601  0038' 1703               	bsf	3,6	;RP1=1, select bank3
  9602  0039' 0806'              	movf	((Fuz@Min+1)^(0+384)+6),w
  9603  003A' 3A80               	xorlw	128
  9604  003B' 1683               	bsf	3,5	;RP0=1, select bank1
  9605  003C' 1303               	bcf	3,6	;RP1=0, select bank1
  9606  003D' 0200'              	subwf	??_Fuz^(0+128),w
  9607  003E' 1D03               	skipz
  9608  003F' 2800'              	goto	u4695
  9609  0040' 1683               	bsf	3,5	;RP0=1, select bank3
  9610  0041' 1703               	bsf	3,6	;RP1=1, select bank3
  9611  0042' 0806'              	movf	(Fuz@Min^(0+384)+6),w
  9612  0043' 0200'              	subwf	Fuz@Min^(0+384),w
  9613  0044'                    u4695:	
  9614  0044' 1C03               	skipc
  9615  0045' 2800'              	goto	u4691
  9616  0046' 2800'              	goto	u4690
  9617  0047'                    u4691:	
  9618  0047' 2800'              	goto	l3078
  9619  0048'                    u4690:	
  9620  0048'                    l3076:	
  9621                           
  9622                           ;./Fuzzy_Lib.h: 101:         B[0] = Min[0];
  9623  0048' 1683               	bsf	3,5	;RP0=1, select bank3
  9624  0049' 1703               	bsf	3,6	;RP1=1, select bank3
  9625  004A' 0800'              	movf	(Fuz@Min+1)^(0+384),w
  9626  004B' 0080'              	movwf	(Fuz@B+1)^(0+384)
  9627  004C' 0800'              	movf	Fuz@Min^(0+384),w
  9628  004D' 0080'              	movwf	Fuz@B^(0+384)
  9629                           
  9630                           ;./Fuzzy_Lib.h: 102:     }
  9631  004E' 2800'              	goto	l110
  9632  004F'                    l3078:	
  9633  004F' 1683               	bsf	3,5	;RP0=1, select bank3
  9634  0050' 1703               	bsf	3,6	;RP1=1, select bank3
  9635  0051' 0802'              	movf	((Fuz@Min+1)^(0+384)+2),w
  9636  0052' 3A80               	xorlw	128
  9637  0053' 1683               	bsf	3,5	;RP0=1, select bank1
  9638  0054' 1303               	bcf	3,6	;RP1=0, select bank1
  9639  0055' 0080'              	movwf	??_Fuz^(0+128)
  9640  0056' 1683               	bsf	3,5	;RP0=1, select bank3
  9641  0057' 1703               	bsf	3,6	;RP1=1, select bank3
  9642  0058' 0800'              	movf	(Fuz@Min+1)^(0+384),w
  9643  0059' 3A80               	xorlw	128
  9644  005A' 1683               	bsf	3,5	;RP0=1, select bank1
  9645  005B' 1303               	bcf	3,6	;RP1=0, select bank1
  9646  005C' 0200'              	subwf	??_Fuz^(0+128),w
  9647  005D' 1D03               	skipz
  9648  005E' 2800'              	goto	u4705
  9649  005F' 1683               	bsf	3,5	;RP0=1, select bank3
  9650  0060' 1703               	bsf	3,6	;RP1=1, select bank3
  9651  0061' 0800'              	movf	Fuz@Min^(0+384),w
  9652  0062' 0202'              	subwf	(Fuz@Min^(0+384)+2),w
  9653  0063'                    u4705:	
  9654  0063' 1C03               	skipc
  9655  0064' 2800'              	goto	u4701
  9656  0065' 2800'              	goto	u4700
  9657  0066'                    u4701:	
  9658  0066' 2800'              	goto	l3086
  9659  0067'                    u4700:	
  9660  0067'                    l3080:	
  9661  0067' 1683               	bsf	3,5	;RP0=1, select bank3
  9662  0068' 1703               	bsf	3,6	;RP1=1, select bank3
  9663  0069' 0802'              	movf	((Fuz@Min+1)^(0+384)+2),w
  9664  006A' 3A80               	xorlw	128
  9665  006B' 1683               	bsf	3,5	;RP0=1, select bank1
  9666  006C' 1303               	bcf	3,6	;RP1=0, select bank1
  9667  006D' 0080'              	movwf	??_Fuz^(0+128)
  9668  006E' 1683               	bsf	3,5	;RP0=1, select bank3
  9669  006F' 1703               	bsf	3,6	;RP1=1, select bank3
  9670  0070' 0804'              	movf	((Fuz@Min+1)^(0+384)+4),w
  9671  0071' 3A80               	xorlw	128
  9672  0072' 1683               	bsf	3,5	;RP0=1, select bank1
  9673  0073' 1303               	bcf	3,6	;RP1=0, select bank1
  9674  0074' 0200'              	subwf	??_Fuz^(0+128),w
  9675  0075' 1D03               	skipz
  9676  0076' 2800'              	goto	u4715
  9677  0077' 1683               	bsf	3,5	;RP0=1, select bank3
  9678  0078' 1703               	bsf	3,6	;RP1=1, select bank3
  9679  0079' 0804'              	movf	(Fuz@Min^(0+384)+4),w
  9680  007A' 0202'              	subwf	(Fuz@Min^(0+384)+2),w
  9681  007B'                    u4715:	
  9682  007B' 1C03               	skipc
  9683  007C' 2800'              	goto	u4711
  9684  007D' 2800'              	goto	u4710
  9685  007E'                    u4711:	
  9686  007E' 2800'              	goto	l3086
  9687  007F'                    u4710:	
  9688  007F'                    l3082:	
  9689  007F' 1683               	bsf	3,5	;RP0=1, select bank3
  9690  0080' 1703               	bsf	3,6	;RP1=1, select bank3
  9691  0081' 0802'              	movf	((Fuz@Min+1)^(0+384)+2),w
  9692  0082' 3A80               	xorlw	128
  9693  0083' 1683               	bsf	3,5	;RP0=1, select bank1
  9694  0084' 1303               	bcf	3,6	;RP1=0, select bank1
  9695  0085' 0080'              	movwf	??_Fuz^(0+128)
  9696  0086' 1683               	bsf	3,5	;RP0=1, select bank3
  9697  0087' 1703               	bsf	3,6	;RP1=1, select bank3
  9698  0088' 0806'              	movf	((Fuz@Min+1)^(0+384)+6),w
  9699  0089' 3A80               	xorlw	128
  9700  008A' 1683               	bsf	3,5	;RP0=1, select bank1
  9701  008B' 1303               	bcf	3,6	;RP1=0, select bank1
  9702  008C' 0200'              	subwf	??_Fuz^(0+128),w
  9703  008D' 1D03               	skipz
  9704  008E' 2800'              	goto	u4725
  9705  008F' 1683               	bsf	3,5	;RP0=1, select bank3
  9706  0090' 1703               	bsf	3,6	;RP1=1, select bank3
  9707  0091' 0806'              	movf	(Fuz@Min^(0+384)+6),w
  9708  0092' 0202'              	subwf	(Fuz@Min^(0+384)+2),w
  9709  0093'                    u4725:	
  9710  0093' 1C03               	skipc
  9711  0094' 2800'              	goto	u4721
  9712  0095' 2800'              	goto	u4720
  9713  0096'                    u4721:	
  9714  0096' 2800'              	goto	l3086
  9715  0097'                    u4720:	
  9716  0097'                    l3084:	
  9717                           
  9718                           ;./Fuzzy_Lib.h: 104:         B[0] = Min[1];
  9719  0097' 1683               	bsf	3,5	;RP0=1, select bank3
  9720  0098' 1703               	bsf	3,6	;RP1=1, select bank3
  9721  0099' 0802'              	movf	((Fuz@Min+1)^(0+384)+2),w
  9722  009A' 0080'              	movwf	(Fuz@B+1)^(0+384)
  9723  009B' 0802'              	movf	(Fuz@Min^(0+384)+2),w
  9724  009C' 0080'              	movwf	Fuz@B^(0+384)
  9725                           
  9726                           ;./Fuzzy_Lib.h: 105:     }
  9727  009D' 2800'              	goto	l110
  9728  009E'                    l3086:	
  9729  009E' 1683               	bsf	3,5	;RP0=1, select bank3
  9730  009F' 1703               	bsf	3,6	;RP1=1, select bank3
  9731  00A0' 0804'              	movf	((Fuz@Min+1)^(0+384)+4),w
  9732  00A1' 3A80               	xorlw	128
  9733  00A2' 1683               	bsf	3,5	;RP0=1, select bank1
  9734  00A3' 1303               	bcf	3,6	;RP1=0, select bank1
  9735  00A4' 0080'              	movwf	??_Fuz^(0+128)
  9736  00A5' 1683               	bsf	3,5	;RP0=1, select bank3
  9737  00A6' 1703               	bsf	3,6	;RP1=1, select bank3
  9738  00A7' 0800'              	movf	(Fuz@Min+1)^(0+384),w
  9739  00A8' 3A80               	xorlw	128
  9740  00A9' 1683               	bsf	3,5	;RP0=1, select bank1
  9741  00AA' 1303               	bcf	3,6	;RP1=0, select bank1
  9742  00AB' 0200'              	subwf	??_Fuz^(0+128),w
  9743  00AC' 1D03               	skipz
  9744  00AD' 2800'              	goto	u4735
  9745  00AE' 1683               	bsf	3,5	;RP0=1, select bank3
  9746  00AF' 1703               	bsf	3,6	;RP1=1, select bank3
  9747  00B0' 0800'              	movf	Fuz@Min^(0+384),w
  9748  00B1' 0204'              	subwf	(Fuz@Min^(0+384)+4),w
  9749  00B2'                    u4735:	
  9750  00B2' 1C03               	skipc
  9751  00B3' 2800'              	goto	u4731
  9752  00B4' 2800'              	goto	u4730
  9753  00B5'                    u4731:	
  9754  00B5' 2800'              	goto	l3094
  9755  00B6'                    u4730:	
  9756  00B6'                    l3088:	
  9757  00B6' 1683               	bsf	3,5	;RP0=1, select bank3
  9758  00B7' 1703               	bsf	3,6	;RP1=1, select bank3
  9759  00B8' 0804'              	movf	((Fuz@Min+1)^(0+384)+4),w
  9760  00B9' 3A80               	xorlw	128
  9761  00BA' 1683               	bsf	3,5	;RP0=1, select bank1
  9762  00BB' 1303               	bcf	3,6	;RP1=0, select bank1
  9763  00BC' 0080'              	movwf	??_Fuz^(0+128)
  9764  00BD' 1683               	bsf	3,5	;RP0=1, select bank3
  9765  00BE' 1703               	bsf	3,6	;RP1=1, select bank3
  9766  00BF' 0802'              	movf	((Fuz@Min+1)^(0+384)+2),w
  9767  00C0' 3A80               	xorlw	128
  9768  00C1' 1683               	bsf	3,5	;RP0=1, select bank1
  9769  00C2' 1303               	bcf	3,6	;RP1=0, select bank1
  9770  00C3' 0200'              	subwf	??_Fuz^(0+128),w
  9771  00C4' 1D03               	skipz
  9772  00C5' 2800'              	goto	u4745
  9773  00C6' 1683               	bsf	3,5	;RP0=1, select bank3
  9774  00C7' 1703               	bsf	3,6	;RP1=1, select bank3
  9775  00C8' 0802'              	movf	(Fuz@Min^(0+384)+2),w
  9776  00C9' 0204'              	subwf	(Fuz@Min^(0+384)+4),w
  9777  00CA'                    u4745:	
  9778  00CA' 1C03               	skipc
  9779  00CB' 2800'              	goto	u4741
  9780  00CC' 2800'              	goto	u4740
  9781  00CD'                    u4741:	
  9782  00CD' 2800'              	goto	l3094
  9783  00CE'                    u4740:	
  9784  00CE'                    l3090:	
  9785  00CE' 1683               	bsf	3,5	;RP0=1, select bank3
  9786  00CF' 1703               	bsf	3,6	;RP1=1, select bank3
  9787  00D0' 0804'              	movf	((Fuz@Min+1)^(0+384)+4),w
  9788  00D1' 3A80               	xorlw	128
  9789  00D2' 1683               	bsf	3,5	;RP0=1, select bank1
  9790  00D3' 1303               	bcf	3,6	;RP1=0, select bank1
  9791  00D4' 0080'              	movwf	??_Fuz^(0+128)
  9792  00D5' 1683               	bsf	3,5	;RP0=1, select bank3
  9793  00D6' 1703               	bsf	3,6	;RP1=1, select bank3
  9794  00D7' 0806'              	movf	((Fuz@Min+1)^(0+384)+6),w
  9795  00D8' 3A80               	xorlw	128
  9796  00D9' 1683               	bsf	3,5	;RP0=1, select bank1
  9797  00DA' 1303               	bcf	3,6	;RP1=0, select bank1
  9798  00DB' 0200'              	subwf	??_Fuz^(0+128),w
  9799  00DC' 1D03               	skipz
  9800  00DD' 2800'              	goto	u4755
  9801  00DE' 1683               	bsf	3,5	;RP0=1, select bank3
  9802  00DF' 1703               	bsf	3,6	;RP1=1, select bank3
  9803  00E0' 0806'              	movf	(Fuz@Min^(0+384)+6),w
  9804  00E1' 0204'              	subwf	(Fuz@Min^(0+384)+4),w
  9805  00E2'                    u4755:	
  9806  00E2' 1C03               	skipc
  9807  00E3' 2800'              	goto	u4751
  9808  00E4' 2800'              	goto	u4750
  9809  00E5'                    u4751:	
  9810  00E5' 2800'              	goto	l3094
  9811  00E6'                    u4750:	
  9812  00E6'                    l3092:	
  9813                           
  9814                           ;./Fuzzy_Lib.h: 107:         B[0] = Min[2];
  9815  00E6' 1683               	bsf	3,5	;RP0=1, select bank3
  9816  00E7' 1703               	bsf	3,6	;RP1=1, select bank3
  9817  00E8' 0804'              	movf	((Fuz@Min+1)^(0+384)+4),w
  9818  00E9' 0080'              	movwf	(Fuz@B+1)^(0+384)
  9819  00EA' 0804'              	movf	(Fuz@Min^(0+384)+4),w
  9820  00EB' 0080'              	movwf	Fuz@B^(0+384)
  9821                           
  9822                           ;./Fuzzy_Lib.h: 108:     }
  9823  00EC' 2800'              	goto	l110
  9824  00ED'                    l3094:	
  9825                           
  9826                           ;./Fuzzy_Lib.h: 110:         B[0] = Min[3];
  9827  00ED' 1683               	bsf	3,5	;RP0=1, select bank3
  9828  00EE' 1703               	bsf	3,6	;RP1=1, select bank3
  9829  00EF' 0806'              	movf	((Fuz@Min+1)^(0+384)+6),w
  9830  00F0' 0080'              	movwf	(Fuz@B+1)^(0+384)
  9831  00F1' 0806'              	movf	(Fuz@Min^(0+384)+6),w
  9832  00F2' 0080'              	movwf	Fuz@B^(0+384)
  9833  00F3'                    l110:	
  9834                           
  9835                           ;./Fuzzy_Lib.h: 113:     if (Min[4]>=Min[5] & Min[4]>=Min[6] & Min[4]>=Min[7]){
  9836  00F3' 0808'              	movf	((Fuz@Min+1)^(0+384)+8),w
  9837  00F4' 3A80               	xorlw	128
  9838  00F5' 1683               	bsf	3,5	;RP0=1, select bank1
  9839  00F6' 1303               	bcf	3,6	;RP1=0, select bank1
  9840  00F7' 0080'              	movwf	??_Fuz^(0+128)
  9841  00F8' 1683               	bsf	3,5	;RP0=1, select bank3
  9842  00F9' 1703               	bsf	3,6	;RP1=1, select bank3
  9843  00FA' 080A'              	movf	((Fuz@Min+1)^(0+384)+10),w
  9844  00FB' 3A80               	xorlw	128
  9845  00FC' 1683               	bsf	3,5	;RP0=1, select bank1
  9846  00FD' 1303               	bcf	3,6	;RP1=0, select bank1
  9847  00FE' 0200'              	subwf	??_Fuz^(0+128),w
  9848  00FF' 1D03               	skipz
  9849  0100' 2800'              	goto	u4765
  9850  0101' 1683               	bsf	3,5	;RP0=1, select bank3
  9851  0102' 1703               	bsf	3,6	;RP1=1, select bank3
  9852  0103' 080A'              	movf	(Fuz@Min^(0+384)+10),w
  9853  0104' 0208'              	subwf	(Fuz@Min^(0+384)+8),w
  9854  0105'                    u4765:	
  9855  0105' 1C03               	skipc
  9856  0106' 2800'              	goto	u4761
  9857  0107' 2800'              	goto	u4760
  9858  0108'                    u4761:	
  9859  0108' 2800'              	goto	l3102
  9860  0109'                    u4760:	
  9861  0109'                    l3096:	
  9862  0109' 1683               	bsf	3,5	;RP0=1, select bank3
  9863  010A' 1703               	bsf	3,6	;RP1=1, select bank3
  9864  010B' 0808'              	movf	((Fuz@Min+1)^(0+384)+8),w
  9865  010C' 3A80               	xorlw	128
  9866  010D' 1683               	bsf	3,5	;RP0=1, select bank1
  9867  010E' 1303               	bcf	3,6	;RP1=0, select bank1
  9868  010F' 0080'              	movwf	??_Fuz^(0+128)
  9869  0110' 1683               	bsf	3,5	;RP0=1, select bank3
  9870  0111' 1703               	bsf	3,6	;RP1=1, select bank3
  9871  0112' 080C'              	movf	((Fuz@Min+1)^(0+384)+12),w
  9872  0113' 3A80               	xorlw	128
  9873  0114' 1683               	bsf	3,5	;RP0=1, select bank1
  9874  0115' 1303               	bcf	3,6	;RP1=0, select bank1
  9875  0116' 0200'              	subwf	??_Fuz^(0+128),w
  9876  0117' 1D03               	skipz
  9877  0118' 2800'              	goto	u4775
  9878  0119' 1683               	bsf	3,5	;RP0=1, select bank3
  9879  011A' 1703               	bsf	3,6	;RP1=1, select bank3
  9880  011B' 080C'              	movf	(Fuz@Min^(0+384)+12),w
  9881  011C' 0208'              	subwf	(Fuz@Min^(0+384)+8),w
  9882  011D'                    u4775:	
  9883  011D' 1C03               	skipc
  9884  011E' 2800'              	goto	u4771
  9885  011F' 2800'              	goto	u4770
  9886  0120'                    u4771:	
  9887  0120' 2800'              	goto	l3102
  9888  0121'                    u4770:	
  9889  0121'                    l3098:	
  9890  0121' 1683               	bsf	3,5	;RP0=1, select bank3
  9891  0122' 1703               	bsf	3,6	;RP1=1, select bank3
  9892  0123' 0808'              	movf	((Fuz@Min+1)^(0+384)+8),w
  9893  0124' 3A80               	xorlw	128
  9894  0125' 1683               	bsf	3,5	;RP0=1, select bank1
  9895  0126' 1303               	bcf	3,6	;RP1=0, select bank1
  9896  0127' 0080'              	movwf	??_Fuz^(0+128)
  9897  0128' 1683               	bsf	3,5	;RP0=1, select bank3
  9898  0129' 1703               	bsf	3,6	;RP1=1, select bank3
  9899  012A' 080E'              	movf	((Fuz@Min+1)^(0+384)+14),w
  9900  012B' 3A80               	xorlw	128
  9901  012C' 1683               	bsf	3,5	;RP0=1, select bank1
  9902  012D' 1303               	bcf	3,6	;RP1=0, select bank1
  9903  012E' 0200'              	subwf	??_Fuz^(0+128),w
  9904  012F' 1D03               	skipz
  9905  0130' 2800'              	goto	u4785
  9906  0131' 1683               	bsf	3,5	;RP0=1, select bank3
  9907  0132' 1703               	bsf	3,6	;RP1=1, select bank3
  9908  0133' 080E'              	movf	(Fuz@Min^(0+384)+14),w
  9909  0134' 0208'              	subwf	(Fuz@Min^(0+384)+8),w
  9910  0135'                    u4785:	
  9911  0135' 1C03               	skipc
  9912  0136' 2800'              	goto	u4781
  9913  0137' 2800'              	goto	u4780
  9914  0138'                    u4781:	
  9915  0138' 2800'              	goto	l3102
  9916  0139'                    u4780:	
  9917  0139'                    l3100:	
  9918                           
  9919                           ;./Fuzzy_Lib.h: 114:         B[1] = Min[4];
  9920  0139' 1683               	bsf	3,5	;RP0=1, select bank3
  9921  013A' 1703               	bsf	3,6	;RP1=1, select bank3
  9922  013B' 0808'              	movf	((Fuz@Min+1)^(0+384)+8),w
  9923  013C' 0082'              	movwf	((Fuz@B+1)^(0+384)+2)
  9924  013D' 0808'              	movf	(Fuz@Min^(0+384)+8),w
  9925  013E' 0082'              	movwf	(Fuz@B^(0+384)+2)
  9926                           
  9927                           ;./Fuzzy_Lib.h: 115:     }
  9928  013F' 2800'              	goto	l116
  9929  0140'                    l3102:	
  9930  0140' 1683               	bsf	3,5	;RP0=1, select bank3
  9931  0141' 1703               	bsf	3,6	;RP1=1, select bank3
  9932  0142' 080A'              	movf	((Fuz@Min+1)^(0+384)+10),w
  9933  0143' 3A80               	xorlw	128
  9934  0144' 1683               	bsf	3,5	;RP0=1, select bank1
  9935  0145' 1303               	bcf	3,6	;RP1=0, select bank1
  9936  0146' 0080'              	movwf	??_Fuz^(0+128)
  9937  0147' 1683               	bsf	3,5	;RP0=1, select bank3
  9938  0148' 1703               	bsf	3,6	;RP1=1, select bank3
  9939  0149' 0808'              	movf	((Fuz@Min+1)^(0+384)+8),w
  9940  014A' 3A80               	xorlw	128
  9941  014B' 1683               	bsf	3,5	;RP0=1, select bank1
  9942  014C' 1303               	bcf	3,6	;RP1=0, select bank1
  9943  014D' 0200'              	subwf	??_Fuz^(0+128),w
  9944  014E' 1D03               	skipz
  9945  014F' 2800'              	goto	u4795
  9946  0150' 1683               	bsf	3,5	;RP0=1, select bank3
  9947  0151' 1703               	bsf	3,6	;RP1=1, select bank3
  9948  0152' 0808'              	movf	(Fuz@Min^(0+384)+8),w
  9949  0153' 020A'              	subwf	(Fuz@Min^(0+384)+10),w
  9950  0154'                    u4795:	
  9951  0154' 1C03               	skipc
  9952  0155' 2800'              	goto	u4791
  9953  0156' 2800'              	goto	u4790
  9954  0157'                    u4791:	
  9955  0157' 2800'              	goto	l3110
  9956  0158'                    u4790:	
  9957  0158'                    l3104:	
  9958  0158' 1683               	bsf	3,5	;RP0=1, select bank3
  9959  0159' 1703               	bsf	3,6	;RP1=1, select bank3
  9960  015A' 080A'              	movf	((Fuz@Min+1)^(0+384)+10),w
  9961  015B' 3A80               	xorlw	128
  9962  015C' 1683               	bsf	3,5	;RP0=1, select bank1
  9963  015D' 1303               	bcf	3,6	;RP1=0, select bank1
  9964  015E' 0080'              	movwf	??_Fuz^(0+128)
  9965  015F' 1683               	bsf	3,5	;RP0=1, select bank3
  9966  0160' 1703               	bsf	3,6	;RP1=1, select bank3
  9967  0161' 080C'              	movf	((Fuz@Min+1)^(0+384)+12),w
  9968  0162' 3A80               	xorlw	128
  9969  0163' 1683               	bsf	3,5	;RP0=1, select bank1
  9970  0164' 1303               	bcf	3,6	;RP1=0, select bank1
  9971  0165' 0200'              	subwf	??_Fuz^(0+128),w
  9972  0166' 1D03               	skipz
  9973  0167' 2800'              	goto	u4805
  9974  0168' 1683               	bsf	3,5	;RP0=1, select bank3
  9975  0169' 1703               	bsf	3,6	;RP1=1, select bank3
  9976  016A' 080C'              	movf	(Fuz@Min^(0+384)+12),w
  9977  016B' 020A'              	subwf	(Fuz@Min^(0+384)+10),w
  9978  016C'                    u4805:	
  9979  016C' 1C03               	skipc
  9980  016D' 2800'              	goto	u4801
  9981  016E' 2800'              	goto	u4800
  9982  016F'                    u4801:	
  9983  016F' 2800'              	goto	l3110
  9984  0170'                    u4800:	
  9985  0170'                    l3106:	
  9986  0170' 1683               	bsf	3,5	;RP0=1, select bank3
  9987  0171' 1703               	bsf	3,6	;RP1=1, select bank3
  9988  0172' 080A'              	movf	((Fuz@Min+1)^(0+384)+10),w
  9989  0173' 3A80               	xorlw	128
  9990  0174' 1683               	bsf	3,5	;RP0=1, select bank1
  9991  0175' 1303               	bcf	3,6	;RP1=0, select bank1
  9992  0176' 0080'              	movwf	??_Fuz^(0+128)
  9993  0177' 1683               	bsf	3,5	;RP0=1, select bank3
  9994  0178' 1703               	bsf	3,6	;RP1=1, select bank3
  9995  0179' 080E'              	movf	((Fuz@Min+1)^(0+384)+14),w
  9996  017A' 3A80               	xorlw	128
  9997  017B' 1683               	bsf	3,5	;RP0=1, select bank1
  9998  017C' 1303               	bcf	3,6	;RP1=0, select bank1
  9999  017D' 0200'              	subwf	??_Fuz^(0+128),w
 10000  017E' 1D03               	skipz
 10001  017F' 2800'              	goto	u4815
 10002  0180' 1683               	bsf	3,5	;RP0=1, select bank3
 10003  0181' 1703               	bsf	3,6	;RP1=1, select bank3
 10004  0182' 080E'              	movf	(Fuz@Min^(0+384)+14),w
 10005  0183' 020A'              	subwf	(Fuz@Min^(0+384)+10),w
 10006  0184'                    u4815:	
 10007  0184' 1C03               	skipc
 10008  0185' 2800'              	goto	u4811
 10009  0186' 2800'              	goto	u4810
 10010  0187'                    u4811:	
 10011  0187' 2800'              	goto	l3110
 10012  0188'                    u4810:	
 10013  0188'                    l3108:	
 10014                           
 10015                           ;./Fuzzy_Lib.h: 117:         B[1] = Min[5];
 10016  0188' 1683               	bsf	3,5	;RP0=1, select bank3
 10017  0189' 1703               	bsf	3,6	;RP1=1, select bank3
 10018  018A' 080A'              	movf	((Fuz@Min+1)^(0+384)+10),w
 10019  018B' 0082'              	movwf	((Fuz@B+1)^(0+384)+2)
 10020  018C' 080A'              	movf	(Fuz@Min^(0+384)+10),w
 10021  018D' 0082'              	movwf	(Fuz@B^(0+384)+2)
 10022                           
 10023                           ;./Fuzzy_Lib.h: 118:     }
 10024  018E' 2800'              	goto	l116
 10025  018F'                    l3110:	
 10026  018F' 1683               	bsf	3,5	;RP0=1, select bank3
 10027  0190' 1703               	bsf	3,6	;RP1=1, select bank3
 10028  0191' 080C'              	movf	((Fuz@Min+1)^(0+384)+12),w
 10029  0192' 3A80               	xorlw	128
 10030  0193' 1683               	bsf	3,5	;RP0=1, select bank1
 10031  0194' 1303               	bcf	3,6	;RP1=0, select bank1
 10032  0195' 0080'              	movwf	??_Fuz^(0+128)
 10033  0196' 1683               	bsf	3,5	;RP0=1, select bank3
 10034  0197' 1703               	bsf	3,6	;RP1=1, select bank3
 10035  0198' 0808'              	movf	((Fuz@Min+1)^(0+384)+8),w
 10036  0199' 3A80               	xorlw	128
 10037  019A' 1683               	bsf	3,5	;RP0=1, select bank1
 10038  019B' 1303               	bcf	3,6	;RP1=0, select bank1
 10039  019C' 0200'              	subwf	??_Fuz^(0+128),w
 10040  019D' 1D03               	skipz
 10041  019E' 2800'              	goto	u4825
 10042  019F' 1683               	bsf	3,5	;RP0=1, select bank3
 10043  01A0' 1703               	bsf	3,6	;RP1=1, select bank3
 10044  01A1' 0808'              	movf	(Fuz@Min^(0+384)+8),w
 10045  01A2' 020C'              	subwf	(Fuz@Min^(0+384)+12),w
 10046  01A3'                    u4825:	
 10047  01A3' 1C03               	skipc
 10048  01A4' 2800'              	goto	u4821
 10049  01A5' 2800'              	goto	u4820
 10050  01A6'                    u4821:	
 10051  01A6' 2800'              	goto	l3118
 10052  01A7'                    u4820:	
 10053  01A7'                    l3112:	
 10054  01A7' 1683               	bsf	3,5	;RP0=1, select bank3
 10055  01A8' 1703               	bsf	3,6	;RP1=1, select bank3
 10056  01A9' 080C'              	movf	((Fuz@Min+1)^(0+384)+12),w
 10057  01AA' 3A80               	xorlw	128
 10058  01AB' 1683               	bsf	3,5	;RP0=1, select bank1
 10059  01AC' 1303               	bcf	3,6	;RP1=0, select bank1
 10060  01AD' 0080'              	movwf	??_Fuz^(0+128)
 10061  01AE' 1683               	bsf	3,5	;RP0=1, select bank3
 10062  01AF' 1703               	bsf	3,6	;RP1=1, select bank3
 10063  01B0' 080A'              	movf	((Fuz@Min+1)^(0+384)+10),w
 10064  01B1' 3A80               	xorlw	128
 10065  01B2' 1683               	bsf	3,5	;RP0=1, select bank1
 10066  01B3' 1303               	bcf	3,6	;RP1=0, select bank1
 10067  01B4' 0200'              	subwf	??_Fuz^(0+128),w
 10068  01B5' 1D03               	skipz
 10069  01B6' 2800'              	goto	u4835
 10070  01B7' 1683               	bsf	3,5	;RP0=1, select bank3
 10071  01B8' 1703               	bsf	3,6	;RP1=1, select bank3
 10072  01B9' 080A'              	movf	(Fuz@Min^(0+384)+10),w
 10073  01BA' 020C'              	subwf	(Fuz@Min^(0+384)+12),w
 10074  01BB'                    u4835:	
 10075  01BB' 1C03               	skipc
 10076  01BC' 2800'              	goto	u4831
 10077  01BD' 2800'              	goto	u4830
 10078  01BE'                    u4831:	
 10079  01BE' 2800'              	goto	l3118
 10080  01BF'                    u4830:	
 10081  01BF'                    l3114:	
 10082  01BF' 1683               	bsf	3,5	;RP0=1, select bank3
 10083  01C0' 1703               	bsf	3,6	;RP1=1, select bank3
 10084  01C1' 080C'              	movf	((Fuz@Min+1)^(0+384)+12),w
 10085  01C2' 3A80               	xorlw	128
 10086  01C3' 1683               	bsf	3,5	;RP0=1, select bank1
 10087  01C4' 1303               	bcf	3,6	;RP1=0, select bank1
 10088  01C5' 0080'              	movwf	??_Fuz^(0+128)
 10089  01C6' 1683               	bsf	3,5	;RP0=1, select bank3
 10090  01C7' 1703               	bsf	3,6	;RP1=1, select bank3
 10091  01C8' 080E'              	movf	((Fuz@Min+1)^(0+384)+14),w
 10092  01C9' 3A80               	xorlw	128
 10093  01CA' 1683               	bsf	3,5	;RP0=1, select bank1
 10094  01CB' 1303               	bcf	3,6	;RP1=0, select bank1
 10095  01CC' 0200'              	subwf	??_Fuz^(0+128),w
 10096  01CD' 1D03               	skipz
 10097  01CE' 2800'              	goto	u4845
 10098  01CF' 1683               	bsf	3,5	;RP0=1, select bank3
 10099  01D0' 1703               	bsf	3,6	;RP1=1, select bank3
 10100  01D1' 080E'              	movf	(Fuz@Min^(0+384)+14),w
 10101  01D2' 020C'              	subwf	(Fuz@Min^(0+384)+12),w
 10102  01D3'                    u4845:	
 10103  01D3' 1C03               	skipc
 10104  01D4' 2800'              	goto	u4841
 10105  01D5' 2800'              	goto	u4840
 10106  01D6'                    u4841:	
 10107  01D6' 2800'              	goto	l3118
 10108  01D7'                    u4840:	
 10109  01D7'                    l3116:	
 10110                           
 10111                           ;./Fuzzy_Lib.h: 120:         B[1] = Min[6];
 10112  01D7' 1683               	bsf	3,5	;RP0=1, select bank3
 10113  01D8' 1703               	bsf	3,6	;RP1=1, select bank3
 10114  01D9' 080C'              	movf	((Fuz@Min+1)^(0+384)+12),w
 10115  01DA' 0082'              	movwf	((Fuz@B+1)^(0+384)+2)
 10116  01DB' 080C'              	movf	(Fuz@Min^(0+384)+12),w
 10117  01DC' 0082'              	movwf	(Fuz@B^(0+384)+2)
 10118                           
 10119                           ;./Fuzzy_Lib.h: 121:     }
 10120  01DD' 2800'              	goto	l116
 10121  01DE'                    l3118:	
 10122                           
 10123                           ;./Fuzzy_Lib.h: 123:         B[1] = Min[7];
 10124  01DE' 1683               	bsf	3,5	;RP0=1, select bank3
 10125  01DF' 1703               	bsf	3,6	;RP1=1, select bank3
 10126  01E0' 080E'              	movf	((Fuz@Min+1)^(0+384)+14),w
 10127  01E1' 0082'              	movwf	((Fuz@B+1)^(0+384)+2)
 10128  01E2' 080E'              	movf	(Fuz@Min^(0+384)+14),w
 10129  01E3' 0082'              	movwf	(Fuz@B^(0+384)+2)
 10130  01E4'                    l116:	
 10131                           
 10132                           ;./Fuzzy_Lib.h: 126:     if (Min[10]>=Min[11] && Min[10]>=Min[12] & Min[10]>=Min[13]){
 10133  01E4' 0814'              	movf	((Fuz@Min+1)^(0+384)+20),w
 10134  01E5' 3A80               	xorlw	128
 10135  01E6' 1683               	bsf	3,5	;RP0=1, select bank1
 10136  01E7' 1303               	bcf	3,6	;RP1=0, select bank1
 10137  01E8' 0080'              	movwf	??_Fuz^(0+128)
 10138  01E9' 1683               	bsf	3,5	;RP0=1, select bank3
 10139  01EA' 1703               	bsf	3,6	;RP1=1, select bank3
 10140  01EB' 0816'              	movf	((Fuz@Min+1)^(0+384)+22),w
 10141  01EC' 3A80               	xorlw	128
 10142  01ED' 1683               	bsf	3,5	;RP0=1, select bank1
 10143  01EE' 1303               	bcf	3,6	;RP1=0, select bank1
 10144  01EF' 0200'              	subwf	??_Fuz^(0+128),w
 10145  01F0' 1D03               	skipz
 10146  01F1' 2800'              	goto	u4855
 10147  01F2' 1683               	bsf	3,5	;RP0=1, select bank3
 10148  01F3' 1703               	bsf	3,6	;RP1=1, select bank3
 10149  01F4' 0816'              	movf	(Fuz@Min^(0+384)+22),w
 10150  01F5' 0214'              	subwf	(Fuz@Min^(0+384)+20),w
 10151  01F6'                    u4855:	
 10152  01F6' 1C03               	skipc
 10153  01F7' 2800'              	goto	u4851
 10154  01F8' 2800'              	goto	u4850
 10155  01F9'                    u4851:	
 10156  01F9' 2800'              	goto	l3126
 10157  01FA'                    u4850:	
 10158  01FA'                    l3120:	
 10159  01FA' 1683               	bsf	3,5	;RP0=1, select bank3
 10160  01FB' 1703               	bsf	3,6	;RP1=1, select bank3
 10161  01FC' 0814'              	movf	((Fuz@Min+1)^(0+384)+20),w
 10162  01FD' 3A80               	xorlw	128
 10163  01FE' 1683               	bsf	3,5	;RP0=1, select bank1
 10164  01FF' 1303               	bcf	3,6	;RP1=0, select bank1
 10165  0200' 0080'              	movwf	??_Fuz^(0+128)
 10166  0201' 1683               	bsf	3,5	;RP0=1, select bank3
 10167  0202' 1703               	bsf	3,6	;RP1=1, select bank3
 10168  0203' 0818'              	movf	((Fuz@Min+1)^(0+384)+24),w
 10169  0204' 3A80               	xorlw	128
 10170  0205' 1683               	bsf	3,5	;RP0=1, select bank1
 10171  0206' 1303               	bcf	3,6	;RP1=0, select bank1
 10172  0207' 0200'              	subwf	??_Fuz^(0+128),w
 10173  0208' 1D03               	skipz
 10174  0209' 2800'              	goto	u4865
 10175  020A' 1683               	bsf	3,5	;RP0=1, select bank3
 10176  020B' 1703               	bsf	3,6	;RP1=1, select bank3
 10177  020C' 0818'              	movf	(Fuz@Min^(0+384)+24),w
 10178  020D' 0214'              	subwf	(Fuz@Min^(0+384)+20),w
 10179  020E'                    u4865:	
 10180  020E' 1C03               	skipc
 10181  020F' 2800'              	goto	u4861
 10182  0210' 2800'              	goto	u4860
 10183  0211'                    u4861:	
 10184  0211' 2800'              	goto	l3126
 10185  0212'                    u4860:	
 10186  0212'                    l3122:	
 10187  0212' 1683               	bsf	3,5	;RP0=1, select bank3
 10188  0213' 1703               	bsf	3,6	;RP1=1, select bank3
 10189  0214' 0814'              	movf	((Fuz@Min+1)^(0+384)+20),w
 10190  0215' 3A80               	xorlw	128
 10191  0216' 1683               	bsf	3,5	;RP0=1, select bank1
 10192  0217' 1303               	bcf	3,6	;RP1=0, select bank1
 10193  0218' 0080'              	movwf	??_Fuz^(0+128)
 10194  0219' 1683               	bsf	3,5	;RP0=1, select bank3
 10195  021A' 1703               	bsf	3,6	;RP1=1, select bank3
 10196  021B' 081A'              	movf	((Fuz@Min+1)^(0+384)+26),w
 10197  021C' 3A80               	xorlw	128
 10198  021D' 1683               	bsf	3,5	;RP0=1, select bank1
 10199  021E' 1303               	bcf	3,6	;RP1=0, select bank1
 10200  021F' 0200'              	subwf	??_Fuz^(0+128),w
 10201  0220' 1D03               	skipz
 10202  0221' 2800'              	goto	u4875
 10203  0222' 1683               	bsf	3,5	;RP0=1, select bank3
 10204  0223' 1703               	bsf	3,6	;RP1=1, select bank3
 10205  0224' 081A'              	movf	(Fuz@Min^(0+384)+26),w
 10206  0225' 0214'              	subwf	(Fuz@Min^(0+384)+20),w
 10207  0226'                    u4875:	
 10208  0226' 1C03               	skipc
 10209  0227' 2800'              	goto	u4871
 10210  0228' 2800'              	goto	u4870
 10211  0229'                    u4871:	
 10212  0229' 2800'              	goto	l3126
 10213  022A'                    u4870:	
 10214  022A'                    l3124:	
 10215                           
 10216                           ;./Fuzzy_Lib.h: 127:         B[2] = Min[10];
 10217  022A' 1683               	bsf	3,5	;RP0=1, select bank3
 10218  022B' 1703               	bsf	3,6	;RP1=1, select bank3
 10219  022C' 0814'              	movf	((Fuz@Min+1)^(0+384)+20),w
 10220  022D' 0084'              	movwf	((Fuz@B+1)^(0+384)+4)
 10221  022E' 0814'              	movf	(Fuz@Min^(0+384)+20),w
 10222  022F' 0084'              	movwf	(Fuz@B^(0+384)+4)
 10223                           
 10224                           ;./Fuzzy_Lib.h: 128:     }
 10225  0230' 2800'              	goto	l122
 10226  0231'                    l3126:	
 10227  0231' 1683               	bsf	3,5	;RP0=1, select bank3
 10228  0232' 1703               	bsf	3,6	;RP1=1, select bank3
 10229  0233' 0816'              	movf	((Fuz@Min+1)^(0+384)+22),w
 10230  0234' 3A80               	xorlw	128
 10231  0235' 1683               	bsf	3,5	;RP0=1, select bank1
 10232  0236' 1303               	bcf	3,6	;RP1=0, select bank1
 10233  0237' 0080'              	movwf	??_Fuz^(0+128)
 10234  0238' 1683               	bsf	3,5	;RP0=1, select bank3
 10235  0239' 1703               	bsf	3,6	;RP1=1, select bank3
 10236  023A' 0814'              	movf	((Fuz@Min+1)^(0+384)+20),w
 10237  023B' 3A80               	xorlw	128
 10238  023C' 1683               	bsf	3,5	;RP0=1, select bank1
 10239  023D' 1303               	bcf	3,6	;RP1=0, select bank1
 10240  023E' 0200'              	subwf	??_Fuz^(0+128),w
 10241  023F' 1D03               	skipz
 10242  0240' 2800'              	goto	u4885
 10243  0241' 1683               	bsf	3,5	;RP0=1, select bank3
 10244  0242' 1703               	bsf	3,6	;RP1=1, select bank3
 10245  0243' 0814'              	movf	(Fuz@Min^(0+384)+20),w
 10246  0244' 0216'              	subwf	(Fuz@Min^(0+384)+22),w
 10247  0245'                    u4885:	
 10248  0245' 1C03               	skipc
 10249  0246' 2800'              	goto	u4881
 10250  0247' 2800'              	goto	u4880
 10251  0248'                    u4881:	
 10252  0248' 2800'              	goto	l3134
 10253  0249'                    u4880:	
 10254  0249'                    l3128:	
 10255  0249' 1683               	bsf	3,5	;RP0=1, select bank3
 10256  024A' 1703               	bsf	3,6	;RP1=1, select bank3
 10257  024B' 0816'              	movf	((Fuz@Min+1)^(0+384)+22),w
 10258  024C' 3A80               	xorlw	128
 10259  024D' 1683               	bsf	3,5	;RP0=1, select bank1
 10260  024E' 1303               	bcf	3,6	;RP1=0, select bank1
 10261  024F' 0080'              	movwf	??_Fuz^(0+128)
 10262  0250' 1683               	bsf	3,5	;RP0=1, select bank3
 10263  0251' 1703               	bsf	3,6	;RP1=1, select bank3
 10264  0252' 0818'              	movf	((Fuz@Min+1)^(0+384)+24),w
 10265  0253' 3A80               	xorlw	128
 10266  0254' 1683               	bsf	3,5	;RP0=1, select bank1
 10267  0255' 1303               	bcf	3,6	;RP1=0, select bank1
 10268  0256' 0200'              	subwf	??_Fuz^(0+128),w
 10269  0257' 1D03               	skipz
 10270  0258' 2800'              	goto	u4895
 10271  0259' 1683               	bsf	3,5	;RP0=1, select bank3
 10272  025A' 1703               	bsf	3,6	;RP1=1, select bank3
 10273  025B' 0818'              	movf	(Fuz@Min^(0+384)+24),w
 10274  025C' 0216'              	subwf	(Fuz@Min^(0+384)+22),w
 10275  025D'                    u4895:	
 10276  025D' 1C03               	skipc
 10277  025E' 2800'              	goto	u4891
 10278  025F' 2800'              	goto	u4890
 10279  0260'                    u4891:	
 10280  0260' 2800'              	goto	l3134
 10281  0261'                    u4890:	
 10282  0261'                    l3130:	
 10283  0261' 1683               	bsf	3,5	;RP0=1, select bank3
 10284  0262' 1703               	bsf	3,6	;RP1=1, select bank3
 10285  0263' 0816'              	movf	((Fuz@Min+1)^(0+384)+22),w
 10286  0264' 3A80               	xorlw	128
 10287  0265' 1683               	bsf	3,5	;RP0=1, select bank1
 10288  0266' 1303               	bcf	3,6	;RP1=0, select bank1
 10289  0267' 0080'              	movwf	??_Fuz^(0+128)
 10290  0268' 1683               	bsf	3,5	;RP0=1, select bank3
 10291  0269' 1703               	bsf	3,6	;RP1=1, select bank3
 10292  026A' 081A'              	movf	((Fuz@Min+1)^(0+384)+26),w
 10293  026B' 3A80               	xorlw	128
 10294  026C' 1683               	bsf	3,5	;RP0=1, select bank1
 10295  026D' 1303               	bcf	3,6	;RP1=0, select bank1
 10296  026E' 0200'              	subwf	??_Fuz^(0+128),w
 10297  026F' 1D03               	skipz
 10298  0270' 2800'              	goto	u4905
 10299  0271' 1683               	bsf	3,5	;RP0=1, select bank3
 10300  0272' 1703               	bsf	3,6	;RP1=1, select bank3
 10301  0273' 081A'              	movf	(Fuz@Min^(0+384)+26),w
 10302  0274' 0216'              	subwf	(Fuz@Min^(0+384)+22),w
 10303  0275'                    u4905:	
 10304  0275' 1C03               	skipc
 10305  0276' 2800'              	goto	u4901
 10306  0277' 2800'              	goto	u4900
 10307  0278'                    u4901:	
 10308  0278' 2800'              	goto	l3134
 10309  0279'                    u4900:	
 10310  0279'                    l3132:	
 10311                           
 10312                           ;./Fuzzy_Lib.h: 130:         B[2] = Min[11];
 10313  0279' 1683               	bsf	3,5	;RP0=1, select bank3
 10314  027A' 1703               	bsf	3,6	;RP1=1, select bank3
 10315  027B' 0816'              	movf	((Fuz@Min+1)^(0+384)+22),w
 10316  027C' 0084'              	movwf	((Fuz@B+1)^(0+384)+4)
 10317  027D' 0816'              	movf	(Fuz@Min^(0+384)+22),w
 10318  027E' 0084'              	movwf	(Fuz@B^(0+384)+4)
 10319                           
 10320                           ;./Fuzzy_Lib.h: 131:     }
 10321  027F' 2800'              	goto	l122
 10322  0280'                    l3134:	
 10323  0280' 1683               	bsf	3,5	;RP0=1, select bank3
 10324  0281' 1703               	bsf	3,6	;RP1=1, select bank3
 10325  0282' 0818'              	movf	((Fuz@Min+1)^(0+384)+24),w
 10326  0283' 3A80               	xorlw	128
 10327  0284' 1683               	bsf	3,5	;RP0=1, select bank1
 10328  0285' 1303               	bcf	3,6	;RP1=0, select bank1
 10329  0286' 0080'              	movwf	??_Fuz^(0+128)
 10330  0287' 1683               	bsf	3,5	;RP0=1, select bank3
 10331  0288' 1703               	bsf	3,6	;RP1=1, select bank3
 10332  0289' 0814'              	movf	((Fuz@Min+1)^(0+384)+20),w
 10333  028A' 3A80               	xorlw	128
 10334  028B' 1683               	bsf	3,5	;RP0=1, select bank1
 10335  028C' 1303               	bcf	3,6	;RP1=0, select bank1
 10336  028D' 0200'              	subwf	??_Fuz^(0+128),w
 10337  028E' 1D03               	skipz
 10338  028F' 2800'              	goto	u4915
 10339  0290' 1683               	bsf	3,5	;RP0=1, select bank3
 10340  0291' 1703               	bsf	3,6	;RP1=1, select bank3
 10341  0292' 0814'              	movf	(Fuz@Min^(0+384)+20),w
 10342  0293' 0218'              	subwf	(Fuz@Min^(0+384)+24),w
 10343  0294'                    u4915:	
 10344  0294' 1C03               	skipc
 10345  0295' 2800'              	goto	u4911
 10346  0296' 2800'              	goto	u4910
 10347  0297'                    u4911:	
 10348  0297' 2800'              	goto	l3142
 10349  0298'                    u4910:	
 10350  0298'                    l3136:	
 10351  0298' 1683               	bsf	3,5	;RP0=1, select bank3
 10352  0299' 1703               	bsf	3,6	;RP1=1, select bank3
 10353  029A' 0818'              	movf	((Fuz@Min+1)^(0+384)+24),w
 10354  029B' 3A80               	xorlw	128
 10355  029C' 1683               	bsf	3,5	;RP0=1, select bank1
 10356  029D' 1303               	bcf	3,6	;RP1=0, select bank1
 10357  029E' 0080'              	movwf	??_Fuz^(0+128)
 10358  029F' 1683               	bsf	3,5	;RP0=1, select bank3
 10359  02A0' 1703               	bsf	3,6	;RP1=1, select bank3
 10360  02A1' 0816'              	movf	((Fuz@Min+1)^(0+384)+22),w
 10361  02A2' 3A80               	xorlw	128
 10362  02A3' 1683               	bsf	3,5	;RP0=1, select bank1
 10363  02A4' 1303               	bcf	3,6	;RP1=0, select bank1
 10364  02A5' 0200'              	subwf	??_Fuz^(0+128),w
 10365  02A6' 1D03               	skipz
 10366  02A7' 2800'              	goto	u4925
 10367  02A8' 1683               	bsf	3,5	;RP0=1, select bank3
 10368  02A9' 1703               	bsf	3,6	;RP1=1, select bank3
 10369  02AA' 0816'              	movf	(Fuz@Min^(0+384)+22),w
 10370  02AB' 0218'              	subwf	(Fuz@Min^(0+384)+24),w
 10371  02AC'                    u4925:	
 10372  02AC' 1C03               	skipc
 10373  02AD' 2800'              	goto	u4921
 10374  02AE' 2800'              	goto	u4920
 10375  02AF'                    u4921:	
 10376  02AF' 2800'              	goto	l3142
 10377  02B0'                    u4920:	
 10378  02B0'                    l3138:	
 10379  02B0' 1683               	bsf	3,5	;RP0=1, select bank3
 10380  02B1' 1703               	bsf	3,6	;RP1=1, select bank3
 10381  02B2' 0818'              	movf	((Fuz@Min+1)^(0+384)+24),w
 10382  02B3' 3A80               	xorlw	128
 10383  02B4' 1683               	bsf	3,5	;RP0=1, select bank1
 10384  02B5' 1303               	bcf	3,6	;RP1=0, select bank1
 10385  02B6' 0080'              	movwf	??_Fuz^(0+128)
 10386  02B7' 1683               	bsf	3,5	;RP0=1, select bank3
 10387  02B8' 1703               	bsf	3,6	;RP1=1, select bank3
 10388  02B9' 081A'              	movf	((Fuz@Min+1)^(0+384)+26),w
 10389  02BA' 3A80               	xorlw	128
 10390  02BB' 1683               	bsf	3,5	;RP0=1, select bank1
 10391  02BC' 1303               	bcf	3,6	;RP1=0, select bank1
 10392  02BD' 0200'              	subwf	??_Fuz^(0+128),w
 10393  02BE' 1D03               	skipz
 10394  02BF' 2800'              	goto	u4935
 10395  02C0' 1683               	bsf	3,5	;RP0=1, select bank3
 10396  02C1' 1703               	bsf	3,6	;RP1=1, select bank3
 10397  02C2' 081A'              	movf	(Fuz@Min^(0+384)+26),w
 10398  02C3' 0218'              	subwf	(Fuz@Min^(0+384)+24),w
 10399  02C4'                    u4935:	
 10400  02C4' 1C03               	skipc
 10401  02C5' 2800'              	goto	u4931
 10402  02C6' 2800'              	goto	u4930
 10403  02C7'                    u4931:	
 10404  02C7' 2800'              	goto	l3142
 10405  02C8'                    u4930:	
 10406  02C8' 2800'              	goto	l3124
 10407  02C9'                    l3142:	
 10408                           
 10409                           ;./Fuzzy_Lib.h: 136:         B[2] = Min[13];
 10410  02C9' 1683               	bsf	3,5	;RP0=1, select bank3
 10411  02CA' 1703               	bsf	3,6	;RP1=1, select bank3
 10412  02CB' 081A'              	movf	((Fuz@Min+1)^(0+384)+26),w
 10413  02CC' 0084'              	movwf	((Fuz@B+1)^(0+384)+4)
 10414  02CD' 081A'              	movf	(Fuz@Min^(0+384)+26),w
 10415  02CE' 0084'              	movwf	(Fuz@B^(0+384)+4)
 10416  02CF'                    l122:	
 10417                           
 10418                           ;./Fuzzy_Lib.h: 139:     if (Min[8]>=Min[10] & Min[8]>=Min[14] & Min[18]>=Min[15]){
 10419  02CF' 0810'              	movf	((Fuz@Min+1)^(0+384)+16),w
 10420  02D0' 3A80               	xorlw	128
 10421  02D1' 1683               	bsf	3,5	;RP0=1, select bank1
 10422  02D2' 1303               	bcf	3,6	;RP1=0, select bank1
 10423  02D3' 0080'              	movwf	??_Fuz^(0+128)
 10424  02D4' 1683               	bsf	3,5	;RP0=1, select bank3
 10425  02D5' 1703               	bsf	3,6	;RP1=1, select bank3
 10426  02D6' 0814'              	movf	((Fuz@Min+1)^(0+384)+20),w
 10427  02D7' 3A80               	xorlw	128
 10428  02D8' 1683               	bsf	3,5	;RP0=1, select bank1
 10429  02D9' 1303               	bcf	3,6	;RP1=0, select bank1
 10430  02DA' 0200'              	subwf	??_Fuz^(0+128),w
 10431  02DB' 1D03               	skipz
 10432  02DC' 2800'              	goto	u4945
 10433  02DD' 1683               	bsf	3,5	;RP0=1, select bank3
 10434  02DE' 1703               	bsf	3,6	;RP1=1, select bank3
 10435  02DF' 0814'              	movf	(Fuz@Min^(0+384)+20),w
 10436  02E0' 0210'              	subwf	(Fuz@Min^(0+384)+16),w
 10437  02E1'                    u4945:	
 10438  02E1' 1C03               	skipc
 10439  02E2' 2800'              	goto	u4941
 10440  02E3' 2800'              	goto	u4940
 10441  02E4'                    u4941:	
 10442  02E4' 2800'              	goto	l3150
 10443  02E5'                    u4940:	
 10444  02E5'                    l3144:	
 10445  02E5' 1683               	bsf	3,5	;RP0=1, select bank3
 10446  02E6' 1703               	bsf	3,6	;RP1=1, select bank3
 10447  02E7' 0810'              	movf	((Fuz@Min+1)^(0+384)+16),w
 10448  02E8' 3A80               	xorlw	128
 10449  02E9' 1683               	bsf	3,5	;RP0=1, select bank1
 10450  02EA' 1303               	bcf	3,6	;RP1=0, select bank1
 10451  02EB' 0080'              	movwf	??_Fuz^(0+128)
 10452  02EC' 1683               	bsf	3,5	;RP0=1, select bank3
 10453  02ED' 1703               	bsf	3,6	;RP1=1, select bank3
 10454  02EE' 081C'              	movf	((Fuz@Min+1)^(0+384)+28),w
 10455  02EF' 3A80               	xorlw	128
 10456  02F0' 1683               	bsf	3,5	;RP0=1, select bank1
 10457  02F1' 1303               	bcf	3,6	;RP1=0, select bank1
 10458  02F2' 0200'              	subwf	??_Fuz^(0+128),w
 10459  02F3' 1D03               	skipz
 10460  02F4' 2800'              	goto	u4955
 10461  02F5' 1683               	bsf	3,5	;RP0=1, select bank3
 10462  02F6' 1703               	bsf	3,6	;RP1=1, select bank3
 10463  02F7' 081C'              	movf	(Fuz@Min^(0+384)+28),w
 10464  02F8' 0210'              	subwf	(Fuz@Min^(0+384)+16),w
 10465  02F9'                    u4955:	
 10466  02F9' 1C03               	skipc
 10467  02FA' 2800'              	goto	u4951
 10468  02FB' 2800'              	goto	u4950
 10469  02FC'                    u4951:	
 10470  02FC' 2800'              	goto	l3150
 10471  02FD'                    u4950:	
 10472  02FD'                    l3146:	
 10473  02FD' 1683               	bsf	3,5	;RP0=1, select bank3
 10474  02FE' 1703               	bsf	3,6	;RP1=1, select bank3
 10475  02FF' 0824'              	movf	((Fuz@Min+1)^(0+384)+36),w
 10476  0300' 3A80               	xorlw	128
 10477  0301' 1683               	bsf	3,5	;RP0=1, select bank1
 10478  0302' 1303               	bcf	3,6	;RP1=0, select bank1
 10479  0303' 0080'              	movwf	??_Fuz^(0+128)
 10480  0304' 1683               	bsf	3,5	;RP0=1, select bank3
 10481  0305' 1703               	bsf	3,6	;RP1=1, select bank3
 10482  0306' 081E'              	movf	((Fuz@Min+1)^(0+384)+30),w
 10483  0307' 3A80               	xorlw	128
 10484  0308' 1683               	bsf	3,5	;RP0=1, select bank1
 10485  0309' 1303               	bcf	3,6	;RP1=0, select bank1
 10486  030A' 0200'              	subwf	??_Fuz^(0+128),w
 10487  030B' 1D03               	skipz
 10488  030C' 2800'              	goto	u4965
 10489  030D' 1683               	bsf	3,5	;RP0=1, select bank3
 10490  030E' 1703               	bsf	3,6	;RP1=1, select bank3
 10491  030F' 081E'              	movf	(Fuz@Min^(0+384)+30),w
 10492  0310' 0224'              	subwf	(Fuz@Min^(0+384)+36),w
 10493  0311'                    u4965:	
 10494  0311' 1C03               	skipc
 10495  0312' 2800'              	goto	u4961
 10496  0313' 2800'              	goto	u4960
 10497  0314'                    u4961:	
 10498  0314' 2800'              	goto	l3150
 10499  0315'                    u4960:	
 10500  0315'                    l3148:	
 10501                           
 10502                           ;./Fuzzy_Lib.h: 140:         B[3] = Min[8];
 10503  0315' 1683               	bsf	3,5	;RP0=1, select bank3
 10504  0316' 1703               	bsf	3,6	;RP1=1, select bank3
 10505  0317' 0810'              	movf	((Fuz@Min+1)^(0+384)+16),w
 10506  0318' 0086'              	movwf	((Fuz@B+1)^(0+384)+6)
 10507  0319' 0810'              	movf	(Fuz@Min^(0+384)+16),w
 10508  031A' 0086'              	movwf	(Fuz@B^(0+384)+6)
 10509                           
 10510                           ;./Fuzzy_Lib.h: 141:     }
 10511  031B' 2800'              	goto	l3168
 10512  031C'                    l3150:	
 10513  031C' 1683               	bsf	3,5	;RP0=1, select bank3
 10514  031D' 1703               	bsf	3,6	;RP1=1, select bank3
 10515  031E' 0812'              	movf	((Fuz@Min+1)^(0+384)+18),w
 10516  031F' 3A80               	xorlw	128
 10517  0320' 1683               	bsf	3,5	;RP0=1, select bank1
 10518  0321' 1303               	bcf	3,6	;RP1=0, select bank1
 10519  0322' 0080'              	movwf	??_Fuz^(0+128)
 10520  0323' 1683               	bsf	3,5	;RP0=1, select bank3
 10521  0324' 1703               	bsf	3,6	;RP1=1, select bank3
 10522  0325' 0810'              	movf	((Fuz@Min+1)^(0+384)+16),w
 10523  0326' 3A80               	xorlw	128
 10524  0327' 1683               	bsf	3,5	;RP0=1, select bank1
 10525  0328' 1303               	bcf	3,6	;RP1=0, select bank1
 10526  0329' 0200'              	subwf	??_Fuz^(0+128),w
 10527  032A' 1D03               	skipz
 10528  032B' 2800'              	goto	u4975
 10529  032C' 1683               	bsf	3,5	;RP0=1, select bank3
 10530  032D' 1703               	bsf	3,6	;RP1=1, select bank3
 10531  032E' 0810'              	movf	(Fuz@Min^(0+384)+16),w
 10532  032F' 0212'              	subwf	(Fuz@Min^(0+384)+18),w
 10533  0330'                    u4975:	
 10534  0330' 1C03               	skipc
 10535  0331' 2800'              	goto	u4971
 10536  0332' 2800'              	goto	u4970
 10537  0333'                    u4971:	
 10538  0333' 2800'              	goto	l3158
 10539  0334'                    u4970:	
 10540  0334'                    l3152:	
 10541  0334' 1683               	bsf	3,5	;RP0=1, select bank3
 10542  0335' 1703               	bsf	3,6	;RP1=1, select bank3
 10543  0336' 0812'              	movf	((Fuz@Min+1)^(0+384)+18),w
 10544  0337' 3A80               	xorlw	128
 10545  0338' 1683               	bsf	3,5	;RP0=1, select bank1
 10546  0339' 1303               	bcf	3,6	;RP1=0, select bank1
 10547  033A' 0080'              	movwf	??_Fuz^(0+128)
 10548  033B' 1683               	bsf	3,5	;RP0=1, select bank3
 10549  033C' 1703               	bsf	3,6	;RP1=1, select bank3
 10550  033D' 081C'              	movf	((Fuz@Min+1)^(0+384)+28),w
 10551  033E' 3A80               	xorlw	128
 10552  033F' 1683               	bsf	3,5	;RP0=1, select bank1
 10553  0340' 1303               	bcf	3,6	;RP1=0, select bank1
 10554  0341' 0200'              	subwf	??_Fuz^(0+128),w
 10555  0342' 1D03               	skipz
 10556  0343' 2800'              	goto	u4985
 10557  0344' 1683               	bsf	3,5	;RP0=1, select bank3
 10558  0345' 1703               	bsf	3,6	;RP1=1, select bank3
 10559  0346' 081C'              	movf	(Fuz@Min^(0+384)+28),w
 10560  0347' 0212'              	subwf	(Fuz@Min^(0+384)+18),w
 10561  0348'                    u4985:	
 10562  0348' 1C03               	skipc
 10563  0349' 2800'              	goto	u4981
 10564  034A' 2800'              	goto	u4980
 10565  034B'                    u4981:	
 10566  034B' 2800'              	goto	l3158
 10567  034C'                    u4980:	
 10568  034C'                    l3154:	
 10569  034C' 1683               	bsf	3,5	;RP0=1, select bank3
 10570  034D' 1703               	bsf	3,6	;RP1=1, select bank3
 10571  034E' 0812'              	movf	((Fuz@Min+1)^(0+384)+18),w
 10572  034F' 3A80               	xorlw	128
 10573  0350' 1683               	bsf	3,5	;RP0=1, select bank1
 10574  0351' 1303               	bcf	3,6	;RP1=0, select bank1
 10575  0352' 0080'              	movwf	??_Fuz^(0+128)
 10576  0353' 1683               	bsf	3,5	;RP0=1, select bank3
 10577  0354' 1703               	bsf	3,6	;RP1=1, select bank3
 10578  0355' 081E'              	movf	((Fuz@Min+1)^(0+384)+30),w
 10579  0356' 3A80               	xorlw	128
 10580  0357' 1683               	bsf	3,5	;RP0=1, select bank1
 10581  0358' 1303               	bcf	3,6	;RP1=0, select bank1
 10582  0359' 0200'              	subwf	??_Fuz^(0+128),w
 10583  035A' 1D03               	skipz
 10584  035B' 2800'              	goto	u4995
 10585  035C' 1683               	bsf	3,5	;RP0=1, select bank3
 10586  035D' 1703               	bsf	3,6	;RP1=1, select bank3
 10587  035E' 081E'              	movf	(Fuz@Min^(0+384)+30),w
 10588  035F' 0212'              	subwf	(Fuz@Min^(0+384)+18),w
 10589  0360'                    u4995:	
 10590  0360' 1C03               	skipc
 10591  0361' 2800'              	goto	u4991
 10592  0362' 2800'              	goto	u4990
 10593  0363'                    u4991:	
 10594  0363' 2800'              	goto	l3158
 10595  0364'                    u4990:	
 10596  0364'                    l3156:	
 10597                           
 10598                           ;./Fuzzy_Lib.h: 143:         B[3] = Min[9];
 10599  0364' 1683               	bsf	3,5	;RP0=1, select bank3
 10600  0365' 1703               	bsf	3,6	;RP1=1, select bank3
 10601  0366' 0812'              	movf	((Fuz@Min+1)^(0+384)+18),w
 10602  0367' 0086'              	movwf	((Fuz@B+1)^(0+384)+6)
 10603  0368' 0812'              	movf	(Fuz@Min^(0+384)+18),w
 10604  0369' 0086'              	movwf	(Fuz@B^(0+384)+6)
 10605                           
 10606                           ;./Fuzzy_Lib.h: 144:     }
 10607  036A' 2800'              	goto	l3168
 10608  036B'                    l3158:	
 10609  036B' 1683               	bsf	3,5	;RP0=1, select bank3
 10610  036C' 1703               	bsf	3,6	;RP1=1, select bank3
 10611  036D' 081C'              	movf	((Fuz@Min+1)^(0+384)+28),w
 10612  036E' 3A80               	xorlw	128
 10613  036F' 1683               	bsf	3,5	;RP0=1, select bank1
 10614  0370' 1303               	bcf	3,6	;RP1=0, select bank1
 10615  0371' 0080'              	movwf	??_Fuz^(0+128)
 10616  0372' 1683               	bsf	3,5	;RP0=1, select bank3
 10617  0373' 1703               	bsf	3,6	;RP1=1, select bank3
 10618  0374' 0810'              	movf	((Fuz@Min+1)^(0+384)+16),w
 10619  0375' 3A80               	xorlw	128
 10620  0376' 1683               	bsf	3,5	;RP0=1, select bank1
 10621  0377' 1303               	bcf	3,6	;RP1=0, select bank1
 10622  0378' 0200'              	subwf	??_Fuz^(0+128),w
 10623  0379' 1D03               	skipz
 10624  037A' 2800'              	goto	u5005
 10625  037B' 1683               	bsf	3,5	;RP0=1, select bank3
 10626  037C' 1703               	bsf	3,6	;RP1=1, select bank3
 10627  037D' 0810'              	movf	(Fuz@Min^(0+384)+16),w
 10628  037E' 021C'              	subwf	(Fuz@Min^(0+384)+28),w
 10629  037F'                    u5005:	
 10630  037F' 1C03               	skipc
 10631  0380' 2800'              	goto	u5001
 10632  0381' 2800'              	goto	u5000
 10633  0382'                    u5001:	
 10634  0382' 2800'              	goto	l3166
 10635  0383'                    u5000:	
 10636  0383'                    l3160:	
 10637  0383' 1683               	bsf	3,5	;RP0=1, select bank3
 10638  0384' 1703               	bsf	3,6	;RP1=1, select bank3
 10639  0385' 081C'              	movf	((Fuz@Min+1)^(0+384)+28),w
 10640  0386' 3A80               	xorlw	128
 10641  0387' 1683               	bsf	3,5	;RP0=1, select bank1
 10642  0388' 1303               	bcf	3,6	;RP1=0, select bank1
 10643  0389' 0080'              	movwf	??_Fuz^(0+128)
 10644  038A' 1683               	bsf	3,5	;RP0=1, select bank3
 10645  038B' 1703               	bsf	3,6	;RP1=1, select bank3
 10646  038C' 0812'              	movf	((Fuz@Min+1)^(0+384)+18),w
 10647  038D' 3A80               	xorlw	128
 10648  038E' 1683               	bsf	3,5	;RP0=1, select bank1
 10649  038F' 1303               	bcf	3,6	;RP1=0, select bank1
 10650  0390' 0200'              	subwf	??_Fuz^(0+128),w
 10651  0391' 1D03               	skipz
 10652  0392' 2800'              	goto	u5015
 10653  0393' 1683               	bsf	3,5	;RP0=1, select bank3
 10654  0394' 1703               	bsf	3,6	;RP1=1, select bank3
 10655  0395' 0812'              	movf	(Fuz@Min^(0+384)+18),w
 10656  0396' 021C'              	subwf	(Fuz@Min^(0+384)+28),w
 10657  0397'                    u5015:	
 10658  0397' 1C03               	skipc
 10659  0398' 2800'              	goto	u5011
 10660  0399' 2800'              	goto	u5010
 10661  039A'                    u5011:	
 10662  039A' 2800'              	goto	l3166
 10663  039B'                    u5010:	
 10664  039B'                    l3162:	
 10665  039B' 1683               	bsf	3,5	;RP0=1, select bank3
 10666  039C' 1703               	bsf	3,6	;RP1=1, select bank3
 10667  039D' 081C'              	movf	((Fuz@Min+1)^(0+384)+28),w
 10668  039E' 3A80               	xorlw	128
 10669  039F' 1683               	bsf	3,5	;RP0=1, select bank1
 10670  03A0' 1303               	bcf	3,6	;RP1=0, select bank1
 10671  03A1' 0080'              	movwf	??_Fuz^(0+128)
 10672  03A2' 1683               	bsf	3,5	;RP0=1, select bank3
 10673  03A3' 1703               	bsf	3,6	;RP1=1, select bank3
 10674  03A4' 081E'              	movf	((Fuz@Min+1)^(0+384)+30),w
 10675  03A5' 3A80               	xorlw	128
 10676  03A6' 1683               	bsf	3,5	;RP0=1, select bank1
 10677  03A7' 1303               	bcf	3,6	;RP1=0, select bank1
 10678  03A8' 0200'              	subwf	??_Fuz^(0+128),w
 10679  03A9' 1D03               	skipz
 10680  03AA' 2800'              	goto	u5025
 10681  03AB' 1683               	bsf	3,5	;RP0=1, select bank3
 10682  03AC' 1703               	bsf	3,6	;RP1=1, select bank3
 10683  03AD' 081E'              	movf	(Fuz@Min^(0+384)+30),w
 10684  03AE' 021C'              	subwf	(Fuz@Min^(0+384)+28),w
 10685  03AF'                    u5025:	
 10686  03AF' 1C03               	skipc
 10687  03B0' 2800'              	goto	u5021
 10688  03B1' 2800'              	goto	u5020
 10689  03B2'                    u5021:	
 10690  03B2' 2800'              	goto	l3166
 10691  03B3'                    u5020:	
 10692  03B3'                    l3164:	
 10693                           
 10694                           ;./Fuzzy_Lib.h: 146:         B[3] = Min[14];
 10695  03B3' 1683               	bsf	3,5	;RP0=1, select bank3
 10696  03B4' 1703               	bsf	3,6	;RP1=1, select bank3
 10697  03B5' 081C'              	movf	((Fuz@Min+1)^(0+384)+28),w
 10698  03B6' 0086'              	movwf	((Fuz@B+1)^(0+384)+6)
 10699  03B7' 081C'              	movf	(Fuz@Min^(0+384)+28),w
 10700  03B8' 0086'              	movwf	(Fuz@B^(0+384)+6)
 10701                           
 10702                           ;./Fuzzy_Lib.h: 147:     }
 10703  03B9' 2800'              	goto	l3168
 10704  03BA'                    l3166:	
 10705                           
 10706                           ;./Fuzzy_Lib.h: 149:         B[3] = Min[15];
 10707  03BA' 1683               	bsf	3,5	;RP0=1, select bank3
 10708  03BB' 1703               	bsf	3,6	;RP1=1, select bank3
 10709  03BC' 081E'              	movf	((Fuz@Min+1)^(0+384)+30),w
 10710  03BD' 0086'              	movwf	((Fuz@B+1)^(0+384)+6)
 10711  03BE' 081E'              	movf	(Fuz@Min^(0+384)+30),w
 10712  03BF' 0086'              	movwf	(Fuz@B^(0+384)+6)
 10713  03C0'                    l3168:	
 10714                           
 10715                           ;./Fuzzy_Lib.h: 157:     for (z=0; z<=100; z=step+z){
 10716  03C0' 0180'              	clrf	Fuz@z^(0+384)
 10717  03C1' 0180'              	clrf	(Fuz@z+1)^(0+384)
 10718  03C2'                    l3174:	
 10719                           
 10720                           ;./Fuzzy_Lib.h: 159:             A[0] = pimf(z,-1,-1,10,33);
 10721  03C2' 1683               	bsf	3,5	;RP0=1, select bank3
 10722  03C3' 1703               	bsf	3,6	;RP1=1, select bank3
 10723  03C4' 0800'              	movf	(Fuz@z+1)^(0+384),w
 10724  03C5' 1683               	bsf	3,5	;RP0=1, select bank1
 10725  03C6' 1303               	bcf	3,6	;RP1=0, select bank1
 10726  03C7' 0080'              	movwf	(pimf@x+1)^(0+128)
 10727  03C8' 1683               	bsf	3,5	;RP0=1, select bank3
 10728  03C9' 1703               	bsf	3,6	;RP1=1, select bank3
 10729  03CA' 0800'              	movf	Fuz@z^(0+384),w
 10730  03CB' 1683               	bsf	3,5	;RP0=1, select bank1
 10731  03CC' 1303               	bcf	3,6	;RP1=0, select bank1
 10732  03CD' 0080'              	movwf	pimf@x^(0+128)
 10733  03CE' 30BF               	movlw	191
 10734  03CF' 0080'              	movwf	(pimf@a+3)^(0+128)
 10735  03D0' 3080               	movlw	128
 10736  03D1' 0080'              	movwf	(pimf@a+2)^(0+128)
 10737  03D2' 3000               	movlw	0
 10738  03D3' 0080'              	movwf	(pimf@a+1)^(0+128)
 10739  03D4' 3000               	movlw	0
 10740  03D5' 0080'              	movwf	pimf@a^(0+128)
 10741  03D6' 30BF               	movlw	191
 10742  03D7' 0080'              	movwf	(pimf@b+3)^(0+128)
 10743  03D8' 3080               	movlw	128
 10744  03D9' 0080'              	movwf	(pimf@b+2)^(0+128)
 10745  03DA' 3000               	movlw	0
 10746  03DB' 0080'              	movwf	(pimf@b+1)^(0+128)
 10747  03DC' 3000               	movlw	0
 10748  03DD' 0080'              	movwf	pimf@b^(0+128)
 10749  03DE' 3041               	movlw	65
 10750  03DF' 0080'              	movwf	(pimf@c+3)^(0+128)
 10751  03E0' 3020               	movlw	32
 10752  03E1' 0080'              	movwf	(pimf@c+2)^(0+128)
 10753  03E2' 3000               	movlw	0
 10754  03E3' 0080'              	movwf	(pimf@c+1)^(0+128)
 10755  03E4' 3000               	movlw	0
 10756  03E5' 0080'              	movwf	pimf@c^(0+128)
 10757  03E6' 3042               	movlw	66
 10758  03E7' 0080'              	movwf	(pimf@d+3)^(0+128)
 10759  03E8' 3004               	movlw	4
 10760  03E9' 0080'              	movwf	(pimf@d+2)^(0+128)
 10761  03EA' 3000               	movlw	0
 10762  03EB' 0080'              	movwf	(pimf@d+1)^(0+128)
 10763  03EC' 3000               	movlw	0
 10764  03ED' 0080'              	movwf	pimf@d^(0+128)
 10765  03EE' 120A' 118A' 2000' 120A' 118A' 	fcall	_pimf
 10766  03F3' 1683               	bsf	3,5	;RP0=1, select bank1
 10767  03F4' 1303               	bcf	3,6	;RP1=0, select bank1
 10768  03F5' 0800'              	movf	(?_pimf+1)^(0+128),w
 10769  03F6' 1683               	bsf	3,5	;RP0=1, select bank3
 10770  03F7' 1703               	bsf	3,6	;RP1=1, select bank3
 10771  03F8' 0080'              	movwf	(Fuz@A+1)^(0+384)
 10772  03F9' 1683               	bsf	3,5	;RP0=1, select bank1
 10773  03FA' 1303               	bcf	3,6	;RP1=0, select bank1
 10774  03FB' 0800'              	movf	?_pimf^(0+128),w
 10775  03FC' 1683               	bsf	3,5	;RP0=1, select bank3
 10776  03FD' 1703               	bsf	3,6	;RP1=1, select bank3
 10777  03FE' 0080'              	movwf	Fuz@A^(0+384)
 10778                           
 10779                           ;./Fuzzy_Lib.h: 160:             A[1] = pimf(z,5,31,35,66);
 10780  03FF' 0800'              	movf	(Fuz@z+1)^(0+384),w
 10781  0400' 1683               	bsf	3,5	;RP0=1, select bank1
 10782  0401' 1303               	bcf	3,6	;RP1=0, select bank1
 10783  0402' 0080'              	movwf	(pimf@x+1)^(0+128)
 10784  0403' 1683               	bsf	3,5	;RP0=1, select bank3
 10785  0404' 1703               	bsf	3,6	;RP1=1, select bank3
 10786  0405' 0800'              	movf	Fuz@z^(0+384),w
 10787  0406' 1683               	bsf	3,5	;RP0=1, select bank1
 10788  0407' 1303               	bcf	3,6	;RP1=0, select bank1
 10789  0408' 0080'              	movwf	pimf@x^(0+128)
 10790  0409' 3040               	movlw	64
 10791  040A' 0080'              	movwf	(pimf@a+3)^(0+128)
 10792  040B' 30A0               	movlw	160
 10793  040C' 0080'              	movwf	(pimf@a+2)^(0+128)
 10794  040D' 3000               	movlw	0
 10795  040E' 0080'              	movwf	(pimf@a+1)^(0+128)
 10796  040F' 3000               	movlw	0
 10797  0410' 0080'              	movwf	pimf@a^(0+128)
 10798  0411' 3041               	movlw	65
 10799  0412' 0080'              	movwf	(pimf@b+3)^(0+128)
 10800  0413' 30F8               	movlw	248
 10801  0414' 0080'              	movwf	(pimf@b+2)^(0+128)
 10802  0415' 3000               	movlw	0
 10803  0416' 0080'              	movwf	(pimf@b+1)^(0+128)
 10804  0417' 3000               	movlw	0
 10805  0418' 0080'              	movwf	pimf@b^(0+128)
 10806  0419' 3042               	movlw	66
 10807  041A' 0080'              	movwf	(pimf@c+3)^(0+128)
 10808  041B' 300C               	movlw	12
 10809  041C' 0080'              	movwf	(pimf@c+2)^(0+128)
 10810  041D' 3000               	movlw	0
 10811  041E' 0080'              	movwf	(pimf@c+1)^(0+128)
 10812  041F' 3000               	movlw	0
 10813  0420' 0080'              	movwf	pimf@c^(0+128)
 10814  0421' 3042               	movlw	66
 10815  0422' 0080'              	movwf	(pimf@d+3)^(0+128)
 10816  0423' 3084               	movlw	132
 10817  0424' 0080'              	movwf	(pimf@d+2)^(0+128)
 10818  0425' 3000               	movlw	0
 10819  0426' 0080'              	movwf	(pimf@d+1)^(0+128)
 10820  0427' 3000               	movlw	0
 10821  0428' 0080'              	movwf	pimf@d^(0+128)
 10822  0429' 120A' 118A' 2000' 120A' 118A' 	fcall	_pimf
 10823  042E' 1683               	bsf	3,5	;RP0=1, select bank1
 10824  042F' 1303               	bcf	3,6	;RP1=0, select bank1
 10825  0430' 0800'              	movf	(?_pimf+1)^(0+128),w
 10826  0431' 1683               	bsf	3,5	;RP0=1, select bank3
 10827  0432' 1703               	bsf	3,6	;RP1=1, select bank3
 10828  0433' 0082'              	movwf	((Fuz@A+1)^(0+384)+2)
 10829  0434' 1683               	bsf	3,5	;RP0=1, select bank1
 10830  0435' 1303               	bcf	3,6	;RP1=0, select bank1
 10831  0436' 0800'              	movf	?_pimf^(0+128),w
 10832  0437' 1683               	bsf	3,5	;RP0=1, select bank3
 10833  0438' 1703               	bsf	3,6	;RP1=1, select bank3
 10834  0439' 0082'              	movwf	(Fuz@A^(0+384)+2)
 10835                           
 10836                           ;./Fuzzy_Lib.h: 161:             A[2] = pimf(z,33,64,68,100);
 10837  043A' 0800'              	movf	(Fuz@z+1)^(0+384),w
 10838  043B' 1683               	bsf	3,5	;RP0=1, select bank1
 10839  043C' 1303               	bcf	3,6	;RP1=0, select bank1
 10840  043D' 0080'              	movwf	(pimf@x+1)^(0+128)
 10841  043E' 1683               	bsf	3,5	;RP0=1, select bank3
 10842  043F' 1703               	bsf	3,6	;RP1=1, select bank3
 10843  0440' 0800'              	movf	Fuz@z^(0+384),w
 10844  0441' 1683               	bsf	3,5	;RP0=1, select bank1
 10845  0442' 1303               	bcf	3,6	;RP1=0, select bank1
 10846  0443' 0080'              	movwf	pimf@x^(0+128)
 10847  0444' 3042               	movlw	66
 10848  0445' 0080'              	movwf	(pimf@a+3)^(0+128)
 10849  0446' 3004               	movlw	4
 10850  0447' 0080'              	movwf	(pimf@a+2)^(0+128)
 10851  0448' 3000               	movlw	0
 10852  0449' 0080'              	movwf	(pimf@a+1)^(0+128)
 10853  044A' 3000               	movlw	0
 10854  044B' 0080'              	movwf	pimf@a^(0+128)
 10855  044C' 3042               	movlw	66
 10856  044D' 0080'              	movwf	(pimf@b+3)^(0+128)
 10857  044E' 3080               	movlw	128
 10858  044F' 0080'              	movwf	(pimf@b+2)^(0+128)
 10859  0450' 3000               	movlw	0
 10860  0451' 0080'              	movwf	(pimf@b+1)^(0+128)
 10861  0452' 3000               	movlw	0
 10862  0453' 0080'              	movwf	pimf@b^(0+128)
 10863  0454' 3042               	movlw	66
 10864  0455' 0080'              	movwf	(pimf@c+3)^(0+128)
 10865  0456' 3088               	movlw	136
 10866  0457' 0080'              	movwf	(pimf@c+2)^(0+128)
 10867  0458' 3000               	movlw	0
 10868  0459' 0080'              	movwf	(pimf@c+1)^(0+128)
 10869  045A' 3000               	movlw	0
 10870  045B' 0080'              	movwf	pimf@c^(0+128)
 10871  045C' 3042               	movlw	66
 10872  045D' 0080'              	movwf	(pimf@d+3)^(0+128)
 10873  045E' 30C8               	movlw	200
 10874  045F' 0080'              	movwf	(pimf@d+2)^(0+128)
 10875  0460' 3000               	movlw	0
 10876  0461' 0080'              	movwf	(pimf@d+1)^(0+128)
 10877  0462' 3000               	movlw	0
 10878  0463' 0080'              	movwf	pimf@d^(0+128)
 10879  0464' 120A' 118A' 2000' 120A' 118A' 	fcall	_pimf
 10880  0469' 1683               	bsf	3,5	;RP0=1, select bank1
 10881  046A' 1303               	bcf	3,6	;RP1=0, select bank1
 10882  046B' 0800'              	movf	(?_pimf+1)^(0+128),w
 10883  046C' 1683               	bsf	3,5	;RP0=1, select bank3
 10884  046D' 1703               	bsf	3,6	;RP1=1, select bank3
 10885  046E' 0084'              	movwf	((Fuz@A+1)^(0+384)+4)
 10886  046F' 1683               	bsf	3,5	;RP0=1, select bank1
 10887  0470' 1303               	bcf	3,6	;RP1=0, select bank1
 10888  0471' 0800'              	movf	?_pimf^(0+128),w
 10889  0472' 1683               	bsf	3,5	;RP0=1, select bank3
 10890  0473' 1703               	bsf	3,6	;RP1=1, select bank3
 10891  0474' 0084'              	movwf	(Fuz@A^(0+384)+4)
 10892                           
 10893                           ;./Fuzzy_Lib.h: 162:             A[3] = pimf(z,66,98,100,1000);
 10894  0475' 0800'              	movf	(Fuz@z+1)^(0+384),w
 10895  0476' 1683               	bsf	3,5	;RP0=1, select bank1
 10896  0477' 1303               	bcf	3,6	;RP1=0, select bank1
 10897  0478' 0080'              	movwf	(pimf@x+1)^(0+128)
 10898  0479' 1683               	bsf	3,5	;RP0=1, select bank3
 10899  047A' 1703               	bsf	3,6	;RP1=1, select bank3
 10900  047B' 0800'              	movf	Fuz@z^(0+384),w
 10901  047C' 1683               	bsf	3,5	;RP0=1, select bank1
 10902  047D' 1303               	bcf	3,6	;RP1=0, select bank1
 10903  047E' 0080'              	movwf	pimf@x^(0+128)
 10904  047F' 3042               	movlw	66
 10905  0480' 0080'              	movwf	(pimf@a+3)^(0+128)
 10906  0481' 3084               	movlw	132
 10907  0482' 0080'              	movwf	(pimf@a+2)^(0+128)
 10908  0483' 3000               	movlw	0
 10909  0484' 0080'              	movwf	(pimf@a+1)^(0+128)
 10910  0485' 3000               	movlw	0
 10911  0486' 0080'              	movwf	pimf@a^(0+128)
 10912  0487' 3042               	movlw	66
 10913  0488' 0080'              	movwf	(pimf@b+3)^(0+128)
 10914  0489' 30C4               	movlw	196
 10915  048A' 0080'              	movwf	(pimf@b+2)^(0+128)
 10916  048B' 3000               	movlw	0
 10917  048C' 0080'              	movwf	(pimf@b+1)^(0+128)
 10918  048D' 3000               	movlw	0
 10919  048E' 0080'              	movwf	pimf@b^(0+128)
 10920  048F' 3042               	movlw	66
 10921  0490' 0080'              	movwf	(pimf@c+3)^(0+128)
 10922  0491' 30C8               	movlw	200
 10923  0492' 0080'              	movwf	(pimf@c+2)^(0+128)
 10924  0493' 3000               	movlw	0
 10925  0494' 0080'              	movwf	(pimf@c+1)^(0+128)
 10926  0495' 3000               	movlw	0
 10927  0496' 0080'              	movwf	pimf@c^(0+128)
 10928  0497' 3044               	movlw	68
 10929  0498' 0080'              	movwf	(pimf@d+3)^(0+128)
 10930  0499' 307A               	movlw	122
 10931  049A' 0080'              	movwf	(pimf@d+2)^(0+128)
 10932  049B' 3000               	movlw	0
 10933  049C' 0080'              	movwf	(pimf@d+1)^(0+128)
 10934  049D' 3000               	movlw	0
 10935  049E' 0080'              	movwf	pimf@d^(0+128)
 10936  049F' 120A' 118A' 2000' 120A' 118A' 	fcall	_pimf
 10937  04A4' 1683               	bsf	3,5	;RP0=1, select bank1
 10938  04A5' 1303               	bcf	3,6	;RP1=0, select bank1
 10939  04A6' 0800'              	movf	(?_pimf+1)^(0+128),w
 10940  04A7' 1683               	bsf	3,5	;RP0=1, select bank3
 10941  04A8' 1703               	bsf	3,6	;RP1=1, select bank3
 10942  04A9' 0086'              	movwf	((Fuz@A+1)^(0+384)+6)
 10943  04AA' 1683               	bsf	3,5	;RP0=1, select bank1
 10944  04AB' 1303               	bcf	3,6	;RP1=0, select bank1
 10945  04AC' 0800'              	movf	?_pimf^(0+128),w
 10946  04AD' 1683               	bsf	3,5	;RP0=1, select bank3
 10947  04AE' 1703               	bsf	3,6	;RP1=1, select bank3
 10948  04AF' 0086'              	movwf	(Fuz@A^(0+384)+6)
 10949  04B0'                    l3176:	
 10950                           
 10951                           ;./Fuzzy_Lib.h: 165:             for (int ii=0; ii<=3;ii++){
 10952  04B0' 0180'              	clrf	Fuz@ii^(0+384)
 10953  04B1' 0180'              	clrf	(Fuz@ii+1)^(0+384)
 10954  04B2'                    l3178:	
 10955  04B2' 0800'              	movf	(Fuz@ii+1)^(0+384),w
 10956  04B3' 3A80               	xorlw	128
 10957  04B4' 00FF               	movwf	btemp+1
 10958  04B5' 3080               	movlw	128
 10959  04B6' 027F               	subwf	btemp+1,w
 10960  04B7' 1D03               	skipz
 10961  04B8' 2800'              	goto	u5035
 10962  04B9' 3004               	movlw	4
 10963  04BA' 0200'              	subwf	Fuz@ii^(0+384),w
 10964  04BB'                    u5035:	
 10965  04BB' 1C03               	skipc
 10966  04BC' 2800'              	goto	u5031
 10967  04BD' 2800'              	goto	u5030
 10968  04BE'                    u5031:	
 10969  04BE' 2800'              	goto	l3182
 10970  04BF'                    u5030:	
 10971  04BF' 2800'              	goto	l3192
 10972  04C0'                    l3182:	
 10973                           
 10974                           ;./Fuzzy_Lib.h: 166:                 if (B[ii]<= A[ii]){
 10975  04C0' 1683               	bsf	3,5	;RP0=1, select bank3
 10976  04C1' 1703               	bsf	3,6	;RP1=1, select bank3
 10977  04C2' 0800'              	movf	Fuz@ii^(0+384),w
 10978  04C3' 1683               	bsf	3,5	;RP0=1, select bank1
 10979  04C4' 1303               	bcf	3,6	;RP1=0, select bank1
 10980  04C5' 0080'              	movwf	??_Fuz^(0+128)
 10981  04C6' 0700'              	addwf	??_Fuz^(0+128),w
 10982  04C7' 3E00'              	addlw	(low (Fuz@B| (0+256)))& (0+255)
 10983  04C8' 0084               	movwf	4
 10984  04C9' 1783               	bsf	3,7	;select IRP bank3
 10985  04CA' 0800               	movf	0,w
 10986  04CB' 0080'              	movwf	(??_Fuz+1)^(0+128)
 10987  04CC' 0A84               	incf	4,f
 10988  04CD' 0800               	movf	0,w
 10989  04CE' 0081'              	movwf	((??_Fuz+1)^(0+128)+1)
 10990  04CF' 1683               	bsf	3,5	;RP0=1, select bank3
 10991  04D0' 1703               	bsf	3,6	;RP1=1, select bank3
 10992  04D1' 0800'              	movf	Fuz@ii^(0+384),w
 10993  04D2' 1683               	bsf	3,5	;RP0=1, select bank1
 10994  04D3' 1303               	bcf	3,6	;RP1=0, select bank1
 10995  04D4' 0080'              	movwf	(??_Fuz+3)^(0+128)
 10996  04D5' 0700'              	addwf	(??_Fuz+3)^(0+128),w
 10997  04D6' 3E00'              	addlw	(low (Fuz@A| (0+256)))& (0+255)
 10998  04D7' 0084               	movwf	4
 10999  04D8' 0800               	movf	0,w
 11000  04D9' 0080'              	movwf	(??_Fuz+4)^(0+128)
 11001  04DA' 0A84               	incf	4,f
 11002  04DB' 0800               	movf	0,w
 11003  04DC' 0081'              	movwf	((??_Fuz+4)^(0+128)+1)
 11004  04DD' 0800'              	movf	(??_Fuz+5)^(0+128),w
 11005  04DE' 3A80               	xorlw	128
 11006  04DF' 0080'              	movwf	(??_Fuz+6)^(0+128)
 11007  04E0' 0800'              	movf	(??_Fuz+2)^(0+128),w
 11008  04E1' 3A80               	xorlw	128
 11009  04E2' 0200'              	subwf	(??_Fuz+6)^(0+128),w
 11010  04E3' 1D03               	skipz
 11011  04E4' 2800'              	goto	u5045
 11012  04E5' 0800'              	movf	(??_Fuz+1)^(0+128),w
 11013  04E6' 0200'              	subwf	(??_Fuz+4)^(0+128),w
 11014  04E7'                    u5045:	
 11015  04E7' 1C03               	skipc
 11016  04E8' 2800'              	goto	u5041
 11017  04E9' 2800'              	goto	u5040
 11018  04EA'                    u5041:	
 11019  04EA' 2800'              	goto	l3186
 11020  04EB'                    u5040:	
 11021  04EB'                    l3184:	
 11022                           
 11023                           ;./Fuzzy_Lib.h: 167:                     CL[ii] = B[ii];
 11024  04EB' 1683               	bsf	3,5	;RP0=1, select bank3
 11025  04EC' 1703               	bsf	3,6	;RP1=1, select bank3
 11026  04ED' 0800'              	movf	Fuz@ii^(0+384),w
 11027  04EE' 1683               	bsf	3,5	;RP0=1, select bank1
 11028  04EF' 1303               	bcf	3,6	;RP1=0, select bank1
 11029  04F0' 0080'              	movwf	??_Fuz^(0+128)
 11030  04F1' 0700'              	addwf	??_Fuz^(0+128),w
 11031  04F2' 3E00'              	addlw	(low (Fuz@B| (0+256)))& (0+255)
 11032  04F3' 0084               	movwf	4
 11033  04F4' 1783               	bsf	3,7	;select IRP bank3
 11034  04F5' 0800               	movf	0,w
 11035  04F6' 0080'              	movwf	(??_Fuz+1)^(0+128)
 11036  04F7' 0A84               	incf	4,f
 11037  04F8' 0800               	movf	0,w
 11038  04F9' 0081'              	movwf	((??_Fuz+1)^(0+128)+1)
 11039  04FA' 1683               	bsf	3,5	;RP0=1, select bank3
 11040  04FB' 1703               	bsf	3,6	;RP1=1, select bank3
 11041  04FC' 0800'              	movf	Fuz@ii^(0+384),w
 11042  04FD' 1683               	bsf	3,5	;RP0=1, select bank1
 11043  04FE' 1303               	bcf	3,6	;RP1=0, select bank1
 11044  04FF' 0080'              	movwf	(??_Fuz+3)^(0+128)
 11045  0500' 0700'              	addwf	(??_Fuz+3)^(0+128),w
 11046  0501' 3E00'              	addlw	(low (Fuz@CL| (0+256)))& (0+255)
 11047  0502' 0084               	movwf	4
 11048  0503' 0800'              	movf	(??_Fuz+1)^(0+128),w
 11049  0504' 0080               	movwf	0
 11050  0505' 0A84               	incf	4,f
 11051  0506' 0800'              	movf	(??_Fuz+2)^(0+128),w
 11052  0507' 0080               	movwf	0
 11053                           
 11054                           ;./Fuzzy_Lib.h: 168:                 }
 11055  0508' 2800'              	goto	l3188
 11056  0509'                    l3186:	
 11057                           
 11058                           ;./Fuzzy_Lib.h: 170:                     CL[ii] = A[ii];
 11059  0509' 1683               	bsf	3,5	;RP0=1, select bank3
 11060  050A' 1703               	bsf	3,6	;RP1=1, select bank3
 11061  050B' 0800'              	movf	Fuz@ii^(0+384),w
 11062  050C' 1683               	bsf	3,5	;RP0=1, select bank1
 11063  050D' 1303               	bcf	3,6	;RP1=0, select bank1
 11064  050E' 0080'              	movwf	??_Fuz^(0+128)
 11065  050F' 0700'              	addwf	??_Fuz^(0+128),w
 11066  0510' 3E00'              	addlw	(low (Fuz@A| (0+256)))& (0+255)
 11067  0511' 0084               	movwf	4
 11068  0512' 1783               	bsf	3,7	;select IRP bank3
 11069  0513' 0800               	movf	0,w
 11070  0514' 0080'              	movwf	(??_Fuz+1)^(0+128)
 11071  0515' 0A84               	incf	4,f
 11072  0516' 0800               	movf	0,w
 11073  0517' 0081'              	movwf	((??_Fuz+1)^(0+128)+1)
 11074  0518' 1683               	bsf	3,5	;RP0=1, select bank3
 11075  0519' 1703               	bsf	3,6	;RP1=1, select bank3
 11076  051A' 0800'              	movf	Fuz@ii^(0+384),w
 11077  051B' 1683               	bsf	3,5	;RP0=1, select bank1
 11078  051C' 1303               	bcf	3,6	;RP1=0, select bank1
 11079  051D' 0080'              	movwf	(??_Fuz+3)^(0+128)
 11080  051E' 0700'              	addwf	(??_Fuz+3)^(0+128),w
 11081  051F' 3E00'              	addlw	(low (Fuz@CL| (0+256)))& (0+255)
 11082  0520' 0084               	movwf	4
 11083  0521' 0800'              	movf	(??_Fuz+1)^(0+128),w
 11084  0522' 0080               	movwf	0
 11085  0523' 0A84               	incf	4,f
 11086  0524' 0800'              	movf	(??_Fuz+2)^(0+128),w
 11087  0525' 0080               	movwf	0
 11088  0526'                    l3188:	
 11089                           
 11090                           ;./Fuzzy_Lib.h: 172:             }
 11091  0526' 3001               	movlw	1
 11092  0527' 1683               	bsf	3,5	;RP0=1, select bank3
 11093  0528' 1703               	bsf	3,6	;RP1=1, select bank3
 11094  0529' 0780'              	addwf	Fuz@ii^(0+384),f
 11095  052A' 1803               	skipnc
 11096  052B' 0A80'              	incf	(Fuz@ii+1)^(0+384),f
 11097  052C' 3000               	movlw	0
 11098  052D' 0780'              	addwf	(Fuz@ii+1)^(0+384),f
 11099  052E' 2800'              	goto	l3178
 11100  052F'                    l3192:	
 11101                           
 11102                           ;./Fuzzy_Lib.h: 174:             if (CL[0]>=CL[1] & CL[0]>=CL[2] & CL[0]>=CL[3]){
 11103  052F' 1683               	bsf	3,5	;RP0=1, select bank3
 11104  0530' 1703               	bsf	3,6	;RP1=1, select bank3
 11105  0531' 0800'              	movf	(Fuz@CL+1)^(0+384),w
 11106  0532' 3A80               	xorlw	128
 11107  0533' 1683               	bsf	3,5	;RP0=1, select bank1
 11108  0534' 1303               	bcf	3,6	;RP1=0, select bank1
 11109  0535' 0080'              	movwf	??_Fuz^(0+128)
 11110  0536' 1683               	bsf	3,5	;RP0=1, select bank3
 11111  0537' 1703               	bsf	3,6	;RP1=1, select bank3
 11112  0538' 0802'              	movf	((Fuz@CL+1)^(0+384)+2),w
 11113  0539' 3A80               	xorlw	128
 11114  053A' 1683               	bsf	3,5	;RP0=1, select bank1
 11115  053B' 1303               	bcf	3,6	;RP1=0, select bank1
 11116  053C' 0200'              	subwf	??_Fuz^(0+128),w
 11117  053D' 1D03               	skipz
 11118  053E' 2800'              	goto	u5055
 11119  053F' 1683               	bsf	3,5	;RP0=1, select bank3
 11120  0540' 1703               	bsf	3,6	;RP1=1, select bank3
 11121  0541' 0802'              	movf	(Fuz@CL^(0+384)+2),w
 11122  0542' 0200'              	subwf	Fuz@CL^(0+384),w
 11123  0543'                    u5055:	
 11124  0543' 1C03               	skipc
 11125  0544' 2800'              	goto	u5051
 11126  0545' 2800'              	goto	u5050
 11127  0546'                    u5051:	
 11128  0546' 2800'              	goto	l3200
 11129  0547'                    u5050:	
 11130  0547'                    l3194:	
 11131  0547' 1683               	bsf	3,5	;RP0=1, select bank3
 11132  0548' 1703               	bsf	3,6	;RP1=1, select bank3
 11133  0549' 0800'              	movf	(Fuz@CL+1)^(0+384),w
 11134  054A' 3A80               	xorlw	128
 11135  054B' 1683               	bsf	3,5	;RP0=1, select bank1
 11136  054C' 1303               	bcf	3,6	;RP1=0, select bank1
 11137  054D' 0080'              	movwf	??_Fuz^(0+128)
 11138  054E' 1683               	bsf	3,5	;RP0=1, select bank3
 11139  054F' 1703               	bsf	3,6	;RP1=1, select bank3
 11140  0550' 0804'              	movf	((Fuz@CL+1)^(0+384)+4),w
 11141  0551' 3A80               	xorlw	128
 11142  0552' 1683               	bsf	3,5	;RP0=1, select bank1
 11143  0553' 1303               	bcf	3,6	;RP1=0, select bank1
 11144  0554' 0200'              	subwf	??_Fuz^(0+128),w
 11145  0555' 1D03               	skipz
 11146  0556' 2800'              	goto	u5065
 11147  0557' 1683               	bsf	3,5	;RP0=1, select bank3
 11148  0558' 1703               	bsf	3,6	;RP1=1, select bank3
 11149  0559' 0804'              	movf	(Fuz@CL^(0+384)+4),w
 11150  055A' 0200'              	subwf	Fuz@CL^(0+384),w
 11151  055B'                    u5065:	
 11152  055B' 1C03               	skipc
 11153  055C' 2800'              	goto	u5061
 11154  055D' 2800'              	goto	u5060
 11155  055E'                    u5061:	
 11156  055E' 2800'              	goto	l3200
 11157  055F'                    u5060:	
 11158  055F'                    l3196:	
 11159  055F' 1683               	bsf	3,5	;RP0=1, select bank3
 11160  0560' 1703               	bsf	3,6	;RP1=1, select bank3
 11161  0561' 0800'              	movf	(Fuz@CL+1)^(0+384),w
 11162  0562' 3A80               	xorlw	128
 11163  0563' 1683               	bsf	3,5	;RP0=1, select bank1
 11164  0564' 1303               	bcf	3,6	;RP1=0, select bank1
 11165  0565' 0080'              	movwf	??_Fuz^(0+128)
 11166  0566' 1683               	bsf	3,5	;RP0=1, select bank3
 11167  0567' 1703               	bsf	3,6	;RP1=1, select bank3
 11168  0568' 0806'              	movf	((Fuz@CL+1)^(0+384)+6),w
 11169  0569' 3A80               	xorlw	128
 11170  056A' 1683               	bsf	3,5	;RP0=1, select bank1
 11171  056B' 1303               	bcf	3,6	;RP1=0, select bank1
 11172  056C' 0200'              	subwf	??_Fuz^(0+128),w
 11173  056D' 1D03               	skipz
 11174  056E' 2800'              	goto	u5075
 11175  056F' 1683               	bsf	3,5	;RP0=1, select bank3
 11176  0570' 1703               	bsf	3,6	;RP1=1, select bank3
 11177  0571' 0806'              	movf	(Fuz@CL^(0+384)+6),w
 11178  0572' 0200'              	subwf	Fuz@CL^(0+384),w
 11179  0573'                    u5075:	
 11180  0573' 1C03               	skipc
 11181  0574' 2800'              	goto	u5071
 11182  0575' 2800'              	goto	u5070
 11183  0576'                    u5071:	
 11184  0576' 2800'              	goto	l3200
 11185  0577'                    u5070:	
 11186  0577'                    l3198:	
 11187                           
 11188                           ;./Fuzzy_Lib.h: 175:                 FCL = CL[0];
 11189  0577' 1683               	bsf	3,5	;RP0=1, select bank3
 11190  0578' 1703               	bsf	3,6	;RP1=1, select bank3
 11191  0579' 0800'              	movf	(Fuz@CL+1)^(0+384),w
 11192  057A' 0080'              	movwf	(Fuz@FCL+1)^(0+384)
 11193  057B' 0800'              	movf	Fuz@CL^(0+384),w
 11194  057C' 0080'              	movwf	Fuz@FCL^(0+384)
 11195                           
 11196                           ;./Fuzzy_Lib.h: 176:             }
 11197  057D' 2800'              	goto	l3218
 11198  057E'                    l3200:	
 11199  057E' 1683               	bsf	3,5	;RP0=1, select bank3
 11200  057F' 1703               	bsf	3,6	;RP1=1, select bank3
 11201  0580' 0802'              	movf	((Fuz@CL+1)^(0+384)+2),w
 11202  0581' 3A80               	xorlw	128
 11203  0582' 1683               	bsf	3,5	;RP0=1, select bank1
 11204  0583' 1303               	bcf	3,6	;RP1=0, select bank1
 11205  0584' 0080'              	movwf	??_Fuz^(0+128)
 11206  0585' 1683               	bsf	3,5	;RP0=1, select bank3
 11207  0586' 1703               	bsf	3,6	;RP1=1, select bank3
 11208  0587' 0800'              	movf	(Fuz@CL+1)^(0+384),w
 11209  0588' 3A80               	xorlw	128
 11210  0589' 1683               	bsf	3,5	;RP0=1, select bank1
 11211  058A' 1303               	bcf	3,6	;RP1=0, select bank1
 11212  058B' 0200'              	subwf	??_Fuz^(0+128),w
 11213  058C' 1D03               	skipz
 11214  058D' 2800'              	goto	u5085
 11215  058E' 1683               	bsf	3,5	;RP0=1, select bank3
 11216  058F' 1703               	bsf	3,6	;RP1=1, select bank3
 11217  0590' 0800'              	movf	Fuz@CL^(0+384),w
 11218  0591' 0202'              	subwf	(Fuz@CL^(0+384)+2),w
 11219  0592'                    u5085:	
 11220  0592' 1C03               	skipc
 11221  0593' 2800'              	goto	u5081
 11222  0594' 2800'              	goto	u5080
 11223  0595'                    u5081:	
 11224  0595' 2800'              	goto	l3208
 11225  0596'                    u5080:	
 11226  0596'                    l3202:	
 11227  0596' 1683               	bsf	3,5	;RP0=1, select bank3
 11228  0597' 1703               	bsf	3,6	;RP1=1, select bank3
 11229  0598' 0802'              	movf	((Fuz@CL+1)^(0+384)+2),w
 11230  0599' 3A80               	xorlw	128
 11231  059A' 1683               	bsf	3,5	;RP0=1, select bank1
 11232  059B' 1303               	bcf	3,6	;RP1=0, select bank1
 11233  059C' 0080'              	movwf	??_Fuz^(0+128)
 11234  059D' 1683               	bsf	3,5	;RP0=1, select bank3
 11235  059E' 1703               	bsf	3,6	;RP1=1, select bank3
 11236  059F' 0804'              	movf	((Fuz@CL+1)^(0+384)+4),w
 11237  05A0' 3A80               	xorlw	128
 11238  05A1' 1683               	bsf	3,5	;RP0=1, select bank1
 11239  05A2' 1303               	bcf	3,6	;RP1=0, select bank1
 11240  05A3' 0200'              	subwf	??_Fuz^(0+128),w
 11241  05A4' 1D03               	skipz
 11242  05A5' 2800'              	goto	u5095
 11243  05A6' 1683               	bsf	3,5	;RP0=1, select bank3
 11244  05A7' 1703               	bsf	3,6	;RP1=1, select bank3
 11245  05A8' 0804'              	movf	(Fuz@CL^(0+384)+4),w
 11246  05A9' 0202'              	subwf	(Fuz@CL^(0+384)+2),w
 11247  05AA'                    u5095:	
 11248  05AA' 1C03               	skipc
 11249  05AB' 2800'              	goto	u5091
 11250  05AC' 2800'              	goto	u5090
 11251  05AD'                    u5091:	
 11252  05AD' 2800'              	goto	l3208
 11253  05AE'                    u5090:	
 11254  05AE'                    l3204:	
 11255  05AE' 1683               	bsf	3,5	;RP0=1, select bank3
 11256  05AF' 1703               	bsf	3,6	;RP1=1, select bank3
 11257  05B0' 0802'              	movf	((Fuz@CL+1)^(0+384)+2),w
 11258  05B1' 3A80               	xorlw	128
 11259  05B2' 1683               	bsf	3,5	;RP0=1, select bank1
 11260  05B3' 1303               	bcf	3,6	;RP1=0, select bank1
 11261  05B4' 0080'              	movwf	??_Fuz^(0+128)
 11262  05B5' 1683               	bsf	3,5	;RP0=1, select bank3
 11263  05B6' 1703               	bsf	3,6	;RP1=1, select bank3
 11264  05B7' 0806'              	movf	((Fuz@CL+1)^(0+384)+6),w
 11265  05B8' 3A80               	xorlw	128
 11266  05B9' 1683               	bsf	3,5	;RP0=1, select bank1
 11267  05BA' 1303               	bcf	3,6	;RP1=0, select bank1
 11268  05BB' 0200'              	subwf	??_Fuz^(0+128),w
 11269  05BC' 1D03               	skipz
 11270  05BD' 2800'              	goto	u5105
 11271  05BE' 1683               	bsf	3,5	;RP0=1, select bank3
 11272  05BF' 1703               	bsf	3,6	;RP1=1, select bank3
 11273  05C0' 0806'              	movf	(Fuz@CL^(0+384)+6),w
 11274  05C1' 0202'              	subwf	(Fuz@CL^(0+384)+2),w
 11275  05C2'                    u5105:	
 11276  05C2' 1C03               	skipc
 11277  05C3' 2800'              	goto	u5101
 11278  05C4' 2800'              	goto	u5100
 11279  05C5'                    u5101:	
 11280  05C5' 2800'              	goto	l3208
 11281  05C6'                    u5100:	
 11282  05C6'                    l3206:	
 11283                           
 11284                           ;./Fuzzy_Lib.h: 178:                 FCL = CL[1];
 11285  05C6' 1683               	bsf	3,5	;RP0=1, select bank3
 11286  05C7' 1703               	bsf	3,6	;RP1=1, select bank3
 11287  05C8' 0802'              	movf	((Fuz@CL+1)^(0+384)+2),w
 11288  05C9' 0080'              	movwf	(Fuz@FCL+1)^(0+384)
 11289  05CA' 0802'              	movf	(Fuz@CL^(0+384)+2),w
 11290  05CB' 0080'              	movwf	Fuz@FCL^(0+384)
 11291                           
 11292                           ;./Fuzzy_Lib.h: 179:             }
 11293  05CC' 2800'              	goto	l3218
 11294  05CD'                    l3208:	
 11295  05CD' 1683               	bsf	3,5	;RP0=1, select bank3
 11296  05CE' 1703               	bsf	3,6	;RP1=1, select bank3
 11297  05CF' 0804'              	movf	((Fuz@CL+1)^(0+384)+4),w
 11298  05D0' 3A80               	xorlw	128
 11299  05D1' 1683               	bsf	3,5	;RP0=1, select bank1
 11300  05D2' 1303               	bcf	3,6	;RP1=0, select bank1
 11301  05D3' 0080'              	movwf	??_Fuz^(0+128)
 11302  05D4' 1683               	bsf	3,5	;RP0=1, select bank3
 11303  05D5' 1703               	bsf	3,6	;RP1=1, select bank3
 11304  05D6' 0800'              	movf	(Fuz@CL+1)^(0+384),w
 11305  05D7' 3A80               	xorlw	128
 11306  05D8' 1683               	bsf	3,5	;RP0=1, select bank1
 11307  05D9' 1303               	bcf	3,6	;RP1=0, select bank1
 11308  05DA' 0200'              	subwf	??_Fuz^(0+128),w
 11309  05DB' 1D03               	skipz
 11310  05DC' 2800'              	goto	u5115
 11311  05DD' 1683               	bsf	3,5	;RP0=1, select bank3
 11312  05DE' 1703               	bsf	3,6	;RP1=1, select bank3
 11313  05DF' 0800'              	movf	Fuz@CL^(0+384),w
 11314  05E0' 0204'              	subwf	(Fuz@CL^(0+384)+4),w
 11315  05E1'                    u5115:	
 11316  05E1' 1C03               	skipc
 11317  05E2' 2800'              	goto	u5111
 11318  05E3' 2800'              	goto	u5110
 11319  05E4'                    u5111:	
 11320  05E4' 2800'              	goto	l3216
 11321  05E5'                    u5110:	
 11322  05E5'                    l3210:	
 11323  05E5' 1683               	bsf	3,5	;RP0=1, select bank3
 11324  05E6' 1703               	bsf	3,6	;RP1=1, select bank3
 11325  05E7' 0804'              	movf	((Fuz@CL+1)^(0+384)+4),w
 11326  05E8' 3A80               	xorlw	128
 11327  05E9' 1683               	bsf	3,5	;RP0=1, select bank1
 11328  05EA' 1303               	bcf	3,6	;RP1=0, select bank1
 11329  05EB' 0080'              	movwf	??_Fuz^(0+128)
 11330  05EC' 1683               	bsf	3,5	;RP0=1, select bank3
 11331  05ED' 1703               	bsf	3,6	;RP1=1, select bank3
 11332  05EE' 0802'              	movf	((Fuz@CL+1)^(0+384)+2),w
 11333  05EF' 3A80               	xorlw	128
 11334  05F0' 1683               	bsf	3,5	;RP0=1, select bank1
 11335  05F1' 1303               	bcf	3,6	;RP1=0, select bank1
 11336  05F2' 0200'              	subwf	??_Fuz^(0+128),w
 11337  05F3' 1D03               	skipz
 11338  05F4' 2800'              	goto	u5125
 11339  05F5' 1683               	bsf	3,5	;RP0=1, select bank3
 11340  05F6' 1703               	bsf	3,6	;RP1=1, select bank3
 11341  05F7' 0802'              	movf	(Fuz@CL^(0+384)+2),w
 11342  05F8' 0204'              	subwf	(Fuz@CL^(0+384)+4),w
 11343  05F9'                    u5125:	
 11344  05F9' 1C03               	skipc
 11345  05FA' 2800'              	goto	u5121
 11346  05FB' 2800'              	goto	u5120
 11347  05FC'                    u5121:	
 11348  05FC' 2800'              	goto	l3216
 11349  05FD'                    u5120:	
 11350  05FD'                    l3212:	
 11351  05FD' 1683               	bsf	3,5	;RP0=1, select bank3
 11352  05FE' 1703               	bsf	3,6	;RP1=1, select bank3
 11353  05FF' 0804'              	movf	((Fuz@CL+1)^(0+384)+4),w
 11354  0600' 3A80               	xorlw	128
 11355  0601' 1683               	bsf	3,5	;RP0=1, select bank1
 11356  0602' 1303               	bcf	3,6	;RP1=0, select bank1
 11357  0603' 0080'              	movwf	??_Fuz^(0+128)
 11358  0604' 1683               	bsf	3,5	;RP0=1, select bank3
 11359  0605' 1703               	bsf	3,6	;RP1=1, select bank3
 11360  0606' 0806'              	movf	((Fuz@CL+1)^(0+384)+6),w
 11361  0607' 3A80               	xorlw	128
 11362  0608' 1683               	bsf	3,5	;RP0=1, select bank1
 11363  0609' 1303               	bcf	3,6	;RP1=0, select bank1
 11364  060A' 0200'              	subwf	??_Fuz^(0+128),w
 11365  060B' 1D03               	skipz
 11366  060C' 2800'              	goto	u5135
 11367  060D' 1683               	bsf	3,5	;RP0=1, select bank3
 11368  060E' 1703               	bsf	3,6	;RP1=1, select bank3
 11369  060F' 0806'              	movf	(Fuz@CL^(0+384)+6),w
 11370  0610' 0204'              	subwf	(Fuz@CL^(0+384)+4),w
 11371  0611'                    u5135:	
 11372  0611' 1C03               	skipc
 11373  0612' 2800'              	goto	u5131
 11374  0613' 2800'              	goto	u5130
 11375  0614'                    u5131:	
 11376  0614' 2800'              	goto	l3216
 11377  0615'                    u5130:	
 11378  0615'                    l3214:	
 11379                           
 11380                           ;./Fuzzy_Lib.h: 181:                 FCL = CL[2];
 11381  0615' 1683               	bsf	3,5	;RP0=1, select bank3
 11382  0616' 1703               	bsf	3,6	;RP1=1, select bank3
 11383  0617' 0804'              	movf	((Fuz@CL+1)^(0+384)+4),w
 11384  0618' 0080'              	movwf	(Fuz@FCL+1)^(0+384)
 11385  0619' 0804'              	movf	(Fuz@CL^(0+384)+4),w
 11386  061A' 0080'              	movwf	Fuz@FCL^(0+384)
 11387                           
 11388                           ;./Fuzzy_Lib.h: 182:             }
 11389  061B' 2800'              	goto	l3218
 11390  061C'                    l3216:	
 11391                           
 11392                           ;./Fuzzy_Lib.h: 184:                 FCL = CL[3];
 11393  061C' 1683               	bsf	3,5	;RP0=1, select bank3
 11394  061D' 1703               	bsf	3,6	;RP1=1, select bank3
 11395  061E' 0806'              	movf	((Fuz@CL+1)^(0+384)+6),w
 11396  061F' 0080'              	movwf	(Fuz@FCL+1)^(0+384)
 11397  0620' 0806'              	movf	(Fuz@CL^(0+384)+6),w
 11398  0621' 0080'              	movwf	Fuz@FCL^(0+384)
 11399  0622'                    l3218:	
 11400                           
 11401                           ;./Fuzzy_Lib.h: 187:             N = N + FCL*z;
 11402  0622' 0800'              	movf	(Fuz@FCL+1)^(0+384),w
 11403  0623' 0081'              	movwf	___wmul@multiplier+1
 11404  0624' 0800'              	movf	Fuz@FCL^(0+384),w
 11405  0625' 0080'              	movwf	___wmul@multiplier
 11406  0626' 0800'              	movf	(Fuz@z+1)^(0+384),w
 11407  0627' 0083'              	movwf	___wmul@multiplicand+1
 11408  0628' 0800'              	movf	Fuz@z^(0+384),w
 11409  0629' 0082'              	movwf	___wmul@multiplicand
 11410  062A' 120A' 118A' 2000' 120A' 118A' 	fcall	___wmul
 11411  062F' 1683               	bsf	3,5	;RP0=1, select bank3
 11412  0630' 1703               	bsf	3,6	;RP1=1, select bank3
 11413  0631' 0800'              	movf	Fuz@N^(0+384),w
 11414  0632' 0700'              	addwf	?___wmul,w
 11415  0633' 0080'              	movwf	Fuz@N^(0+384)
 11416  0634' 0800'              	movf	(Fuz@N+1)^(0+384),w
 11417  0635' 1803               	skipnc
 11418  0636' 0A00'              	incf	(Fuz@N+1)^(0+384),w
 11419  0637' 0701'              	addwf	?___wmul+1,w
 11420  0638' 0080'              	movwf	(Fuz@N+1)^(0+384)
 11421  0639'                    l3220:	
 11422                           
 11423                           ;./Fuzzy_Lib.h: 188:             D = D + FCL;
 11424  0639' 0800'              	movf	Fuz@FCL^(0+384),w
 11425  063A' 0700'              	addwf	Fuz@D^(0+384),w
 11426  063B' 0080'              	movwf	Fuz@D^(0+384)
 11427  063C' 0800'              	movf	(Fuz@FCL+1)^(0+384),w
 11428  063D' 1803               	skipnc
 11429  063E' 0A00'              	incf	(Fuz@FCL+1)^(0+384),w
 11430  063F' 0700'              	addwf	(Fuz@D+1)^(0+384),w
 11431  0640' 0080'              	movwf	(Fuz@D+1)^(0+384)
 11432  0641'                    l3222:	
 11433                           
 11434                           ;./Fuzzy_Lib.h: 189:             z=z+step;
 11435  0641' 0800'              	movf	Fuz@z^(0+384),w
 11436  0642' 0089'              	movwf	___xxtofl@val
 11437  0643' 0800'              	movf	(Fuz@z+1)^(0+384),w
 11438  0644' 008A'              	movwf	___xxtofl@val+1
 11439  0645' 3000               	movlw	0
 11440  0646' 1B8A'              	btfsc	___xxtofl@val+1,7
 11441  0647' 30FF               	movlw	255
 11442  0648' 008B'              	movwf	___xxtofl@val+2
 11443  0649' 008C'              	movwf	___xxtofl@val+3
 11444  064A' 3001               	movlw	1
 11445  064B' 120A' 118A' 2000' 120A' 118A' 	fcall	___xxtofl
 11446  0650' 080C'              	movf	?___xxtofl+3,w
 11447  0651' 1283               	bcf	3,5	;RP0=0, select bank0
 11448  0652' 1303               	bcf	3,6	;RP1=0, select bank0
 11449  0653' 00AB'              	movwf	___fladd@a+3
 11450  0654' 080B'              	movf	?___xxtofl+2,w
 11451  0655' 00AA'              	movwf	___fladd@a+2
 11452  0656' 080A'              	movf	?___xxtofl+1,w
 11453  0657' 00A9'              	movwf	___fladd@a+1
 11454  0658' 0809'              	movf	?___xxtofl,w
 11455  0659' 00A8'              	movwf	___fladd@a
 11456  065A' 1683               	bsf	3,5	;RP0=1, select bank3
 11457  065B' 1703               	bsf	3,6	;RP1=1, select bank3
 11458  065C' 0800'              	movf	(Fuz@step+3)^(0+384),w
 11459  065D' 1283               	bcf	3,5	;RP0=0, select bank0
 11460  065E' 1303               	bcf	3,6	;RP1=0, select bank0
 11461  065F' 00A7'              	movwf	___fladd@b+3
 11462  0660' 1683               	bsf	3,5	;RP0=1, select bank3
 11463  0661' 1703               	bsf	3,6	;RP1=1, select bank3
 11464  0662' 0800'              	movf	(Fuz@step+2)^(0+384),w
 11465  0663' 1283               	bcf	3,5	;RP0=0, select bank0
 11466  0664' 1303               	bcf	3,6	;RP1=0, select bank0
 11467  0665' 00A6'              	movwf	___fladd@b+2
 11468  0666' 1683               	bsf	3,5	;RP0=1, select bank3
 11469  0667' 1703               	bsf	3,6	;RP1=1, select bank3
 11470  0668' 0800'              	movf	(Fuz@step+1)^(0+384),w
 11471  0669' 1283               	bcf	3,5	;RP0=0, select bank0
 11472  066A' 1303               	bcf	3,6	;RP1=0, select bank0
 11473  066B' 00A5'              	movwf	___fladd@b+1
 11474  066C' 1683               	bsf	3,5	;RP0=1, select bank3
 11475  066D' 1703               	bsf	3,6	;RP1=1, select bank3
 11476  066E' 0800'              	movf	Fuz@step^(0+384),w
 11477  066F' 1283               	bcf	3,5	;RP0=0, select bank0
 11478  0670' 1303               	bcf	3,6	;RP1=0, select bank0
 11479  0671' 00A4'              	movwf	___fladd@b
 11480  0672' 120A' 118A' 2000' 120A' 118A' 	fcall	___fladd
 11481  0677' 1283               	bcf	3,5	;RP0=0, select bank0
 11482  0678' 1303               	bcf	3,6	;RP1=0, select bank0
 11483  0679' 0827'              	movf	?___fladd+3,w
 11484  067A' 00C3'              	movwf	___fltol@f1+3
 11485  067B' 0826'              	movf	?___fladd+2,w
 11486  067C' 00C2'              	movwf	___fltol@f1+2
 11487  067D' 0825'              	movf	?___fladd+1,w
 11488  067E' 00C1'              	movwf	___fltol@f1+1
 11489  067F' 0824'              	movf	?___fladd,w
 11490  0680' 00C0'              	movwf	___fltol@f1
 11491  0681' 120A' 118A' 2000' 120A' 118A' 	fcall	___fltol
 11492  0686' 1283               	bcf	3,5	;RP0=0, select bank0
 11493  0687' 1303               	bcf	3,6	;RP1=0, select bank0
 11494  0688' 0841'              	movf	?___fltol+1,w
 11495  0689' 1683               	bsf	3,5	;RP0=1, select bank3
 11496  068A' 1703               	bsf	3,6	;RP1=1, select bank3
 11497  068B' 0080'              	movwf	(Fuz@z+1)^(0+384)
 11498  068C' 1283               	bcf	3,5	;RP0=0, select bank0
 11499  068D' 1303               	bcf	3,6	;RP1=0, select bank0
 11500  068E' 0840'              	movf	?___fltol,w
 11501  068F' 1683               	bsf	3,5	;RP0=1, select bank3
 11502  0690' 1703               	bsf	3,6	;RP1=1, select bank3
 11503  0691' 0080'              	movwf	Fuz@z^(0+384)
 11504  0692'                    l3224:	
 11505                           
 11506                           ;./Fuzzy_Lib.h: 190:     }
 11507  0692' 0800'              	movf	Fuz@z^(0+384),w
 11508  0693' 0089'              	movwf	___xxtofl@val
 11509  0694' 0800'              	movf	(Fuz@z+1)^(0+384),w
 11510  0695' 008A'              	movwf	___xxtofl@val+1
 11511  0696' 3000               	movlw	0
 11512  0697' 1B8A'              	btfsc	___xxtofl@val+1,7
 11513  0698' 30FF               	movlw	255
 11514  0699' 008B'              	movwf	___xxtofl@val+2
 11515  069A' 008C'              	movwf	___xxtofl@val+3
 11516  069B' 3001               	movlw	1
 11517  069C' 120A' 118A' 2000' 120A' 118A' 	fcall	___xxtofl
 11518  06A1' 080C'              	movf	?___xxtofl+3,w
 11519  06A2' 1283               	bcf	3,5	;RP0=0, select bank0
 11520  06A3' 1303               	bcf	3,6	;RP1=0, select bank0
 11521  06A4' 00AB'              	movwf	___fladd@a+3
 11522  06A5' 080B'              	movf	?___xxtofl+2,w
 11523  06A6' 00AA'              	movwf	___fladd@a+2
 11524  06A7' 080A'              	movf	?___xxtofl+1,w
 11525  06A8' 00A9'              	movwf	___fladd@a+1
 11526  06A9' 0809'              	movf	?___xxtofl,w
 11527  06AA' 00A8'              	movwf	___fladd@a
 11528  06AB' 1683               	bsf	3,5	;RP0=1, select bank3
 11529  06AC' 1703               	bsf	3,6	;RP1=1, select bank3
 11530  06AD' 0800'              	movf	(Fuz@step+3)^(0+384),w
 11531  06AE' 1283               	bcf	3,5	;RP0=0, select bank0
 11532  06AF' 1303               	bcf	3,6	;RP1=0, select bank0
 11533  06B0' 00A7'              	movwf	___fladd@b+3
 11534  06B1' 1683               	bsf	3,5	;RP0=1, select bank3
 11535  06B2' 1703               	bsf	3,6	;RP1=1, select bank3
 11536  06B3' 0800'              	movf	(Fuz@step+2)^(0+384),w
 11537  06B4' 1283               	bcf	3,5	;RP0=0, select bank0
 11538  06B5' 1303               	bcf	3,6	;RP1=0, select bank0
 11539  06B6' 00A6'              	movwf	___fladd@b+2
 11540  06B7' 1683               	bsf	3,5	;RP0=1, select bank3
 11541  06B8' 1703               	bsf	3,6	;RP1=1, select bank3
 11542  06B9' 0800'              	movf	(Fuz@step+1)^(0+384),w
 11543  06BA' 1283               	bcf	3,5	;RP0=0, select bank0
 11544  06BB' 1303               	bcf	3,6	;RP1=0, select bank0
 11545  06BC' 00A5'              	movwf	___fladd@b+1
 11546  06BD' 1683               	bsf	3,5	;RP0=1, select bank3
 11547  06BE' 1703               	bsf	3,6	;RP1=1, select bank3
 11548  06BF' 0800'              	movf	Fuz@step^(0+384),w
 11549  06C0' 1283               	bcf	3,5	;RP0=0, select bank0
 11550  06C1' 1303               	bcf	3,6	;RP1=0, select bank0
 11551  06C2' 00A4'              	movwf	___fladd@b
 11552  06C3' 120A' 118A' 2000' 120A' 118A' 	fcall	___fladd
 11553  06C8' 1283               	bcf	3,5	;RP0=0, select bank0
 11554  06C9' 1303               	bcf	3,6	;RP1=0, select bank0
 11555  06CA' 0827'              	movf	?___fladd+3,w
 11556  06CB' 00C3'              	movwf	___fltol@f1+3
 11557  06CC' 0826'              	movf	?___fladd+2,w
 11558  06CD' 00C2'              	movwf	___fltol@f1+2
 11559  06CE' 0825'              	movf	?___fladd+1,w
 11560  06CF' 00C1'              	movwf	___fltol@f1+1
 11561  06D0' 0824'              	movf	?___fladd,w
 11562  06D1' 00C0'              	movwf	___fltol@f1
 11563  06D2' 120A' 118A' 2000' 120A' 118A' 	fcall	___fltol
 11564  06D7' 1283               	bcf	3,5	;RP0=0, select bank0
 11565  06D8' 1303               	bcf	3,6	;RP1=0, select bank0
 11566  06D9' 0841'              	movf	?___fltol+1,w
 11567  06DA' 1683               	bsf	3,5	;RP0=1, select bank3
 11568  06DB' 1703               	bsf	3,6	;RP1=1, select bank3
 11569  06DC' 0080'              	movwf	(Fuz@z+1)^(0+384)
 11570  06DD' 1283               	bcf	3,5	;RP0=0, select bank0
 11571  06DE' 1303               	bcf	3,6	;RP1=0, select bank0
 11572  06DF' 0840'              	movf	?___fltol,w
 11573  06E0' 1683               	bsf	3,5	;RP0=1, select bank3
 11574  06E1' 1703               	bsf	3,6	;RP1=1, select bank3
 11575  06E2' 0080'              	movwf	Fuz@z^(0+384)
 11576  06E3'                    l3226:	
 11577  06E3' 0800'              	movf	(Fuz@z+1)^(0+384),w
 11578  06E4' 3A80               	xorlw	128
 11579  06E5' 00FF               	movwf	btemp+1
 11580  06E6' 3080               	movlw	128
 11581  06E7' 027F               	subwf	btemp+1,w
 11582  06E8' 1D03               	skipz
 11583  06E9' 2800'              	goto	u5145
 11584  06EA' 3065               	movlw	101
 11585  06EB' 0200'              	subwf	Fuz@z^(0+384),w
 11586  06EC'                    u5145:	
 11587  06EC' 1C03               	skipc
 11588  06ED' 2800'              	goto	u5141
 11589  06EE' 2800'              	goto	u5140
 11590  06EF'                    u5141:	
 11591  06EF' 2800'              	goto	l3174
 11592  06F0'                    u5140:	
 11593  06F0'                    l3228:	
 11594                           
 11595                           ;./Fuzzy_Lib.h: 191:     f=N/D;
 11596  06F0' 1683               	bsf	3,5	;RP0=1, select bank3
 11597  06F1' 1703               	bsf	3,6	;RP1=1, select bank3
 11598  06F2' 0800'              	movf	(Fuz@N+1)^(0+384),w
 11599  06F3' 0083'              	movwf	___awdiv@dividend+1
 11600  06F4' 0800'              	movf	Fuz@N^(0+384),w
 11601  06F5' 0082'              	movwf	___awdiv@dividend
 11602  06F6' 0800'              	movf	(Fuz@D+1)^(0+384),w
 11603  06F7' 0081'              	movwf	___awdiv@divisor+1
 11604  06F8' 0800'              	movf	Fuz@D^(0+384),w
 11605  06F9' 0080'              	movwf	___awdiv@divisor
 11606  06FA' 120A' 118A' 2000' 120A' 118A' 	fcall	___awdiv
 11607  06FF' 0800'              	movf	?___awdiv,w
 11608  0700' 0089'              	movwf	___xxtofl@val
 11609  0701' 0801'              	movf	?___awdiv+1,w
 11610  0702' 008A'              	movwf	___xxtofl@val+1
 11611  0703' 3000               	movlw	0
 11612  0704' 1B8A'              	btfsc	___xxtofl@val+1,7
 11613  0705' 30FF               	movlw	255
 11614  0706' 008B'              	movwf	___xxtofl@val+2
 11615  0707' 008C'              	movwf	___xxtofl@val+3
 11616  0708' 3001               	movlw	1
 11617  0709' 120A' 118A' 2000' 120A' 118A' 	fcall	___xxtofl
 11618  070E' 080C'              	movf	?___xxtofl+3,w
 11619  070F' 1683               	bsf	3,5	;RP0=1, select bank3
 11620  0710' 1703               	bsf	3,6	;RP1=1, select bank3
 11621  0711' 0080'              	movwf	(_f+3)^(0+384)
 11622  0712' 080B'              	movf	?___xxtofl+2,w
 11623  0713' 0080'              	movwf	(_f+2)^(0+384)
 11624  0714' 080A'              	movf	?___xxtofl+1,w
 11625  0715' 0080'              	movwf	(_f+1)^(0+384)
 11626  0716' 0809'              	movf	?___xxtofl,w
 11627  0717' 0080'              	movwf	_f^(0+384)
 11628                           
 11629                           ;./Fuzzy_Lib.h: 192:     Centroid = (int) f;
 11630  0718' 0800'              	movf	(_f+3)^(0+384),w
 11631  0719' 1283               	bcf	3,5	;RP0=0, select bank0
 11632  071A' 1303               	bcf	3,6	;RP1=0, select bank0
 11633  071B' 00C3'              	movwf	___fltol@f1+3
 11634  071C' 1683               	bsf	3,5	;RP0=1, select bank3
 11635  071D' 1703               	bsf	3,6	;RP1=1, select bank3
 11636  071E' 0800'              	movf	(_f+2)^(0+384),w
 11637  071F' 1283               	bcf	3,5	;RP0=0, select bank0
 11638  0720' 1303               	bcf	3,6	;RP1=0, select bank0
 11639  0721' 00C2'              	movwf	___fltol@f1+2
 11640  0722' 1683               	bsf	3,5	;RP0=1, select bank3
 11641  0723' 1703               	bsf	3,6	;RP1=1, select bank3
 11642  0724' 0800'              	movf	(_f+1)^(0+384),w
 11643  0725' 1283               	bcf	3,5	;RP0=0, select bank0
 11644  0726' 1303               	bcf	3,6	;RP1=0, select bank0
 11645  0727' 00C1'              	movwf	___fltol@f1+1
 11646  0728' 1683               	bsf	3,5	;RP0=1, select bank3
 11647  0729' 1703               	bsf	3,6	;RP1=1, select bank3
 11648  072A' 0800'              	movf	_f^(0+384),w
 11649  072B' 1283               	bcf	3,5	;RP0=0, select bank0
 11650  072C' 1303               	bcf	3,6	;RP1=0, select bank0
 11651  072D' 00C0'              	movwf	___fltol@f1
 11652  072E' 120A' 118A' 2000' 120A' 118A' 	fcall	___fltol
 11653  0733' 1283               	bcf	3,5	;RP0=0, select bank0
 11654  0734' 1303               	bcf	3,6	;RP1=0, select bank0
 11655  0735' 0841'              	movf	?___fltol+1,w
 11656  0736' 1683               	bsf	3,5	;RP0=1, select bank3
 11657  0737' 1703               	bsf	3,6	;RP1=1, select bank3
 11658  0738' 0080'              	movwf	(Fuz@Centroid+1)^(0+384)
 11659  0739' 1283               	bcf	3,5	;RP0=0, select bank0
 11660  073A' 1303               	bcf	3,6	;RP1=0, select bank0
 11661  073B' 0840'              	movf	?___fltol,w
 11662  073C' 1683               	bsf	3,5	;RP0=1, select bank3
 11663  073D' 1703               	bsf	3,6	;RP1=1, select bank3
 11664  073E' 0080'              	movwf	Fuz@Centroid^(0+384)
 11665  073F'                    l3230:	
 11666                           
 11667                           ;./Fuzzy_Lib.h: 194:         return Centroid;
 11668  073F' 0800'              	movf	(Fuz@Centroid+1)^(0+384),w
 11669  0740' 1683               	bsf	3,5	;RP0=1, select bank1
 11670  0741' 1303               	bcf	3,6	;RP1=0, select bank1
 11671  0742' 0080'              	movwf	(?_Fuz+1)^(0+128)
 11672  0743' 1683               	bsf	3,5	;RP0=1, select bank3
 11673  0744' 1703               	bsf	3,6	;RP1=1, select bank3
 11674  0745' 0800'              	movf	Fuz@Centroid^(0+384),w
 11675  0746' 1683               	bsf	3,5	;RP0=1, select bank1
 11676  0747' 1303               	bcf	3,6	;RP1=0, select bank1
 11677  0748' 0080'              	movwf	?_Fuz^(0+128)
 11678  0749'                    l145:	
 11679  0749' 0008               	return
 11680  074A'                    __end_of_Fuz:	
 11681                           
 11682                           	psect	text18_split_2
 11683  0000'                    l2828:	
 11684  0000' 1683               	bsf	3,5	;RP0=1, select bank1
 11685  0001' 1303               	bcf	3,6	;RP1=0, select bank1
 11686  0002' 0800'              	movf	pimf@x^(0+128),w
 11687  0003' 0089'              	movwf	___xxtofl@val
 11688  0004' 0800'              	movf	(pimf@x+1)^(0+128),w
 11689  0005' 008A'              	movwf	___xxtofl@val+1
 11690  0006' 3000               	movlw	0
 11691  0007' 1B8A'              	btfsc	___xxtofl@val+1,7
 11692  0008' 30FF               	movlw	255
 11693  0009' 008B'              	movwf	___xxtofl@val+2
 11694  000A' 008C'              	movwf	___xxtofl@val+3
 11695  000B' 3001               	movlw	1
 11696  000C' 120A' 118A' 2000' 120A' 118A' 	fcall	___xxtofl
 11697  0011' 080C'              	movf	?___xxtofl+3,w
 11698  0012' 1283               	bcf	3,5	;RP0=0, select bank0
 11699  0013' 1303               	bcf	3,6	;RP1=0, select bank0
 11700  0014' 00BB'              	movwf	___flge@ff1+3
 11701  0015' 080B'              	movf	?___xxtofl+2,w
 11702  0016' 00BA'              	movwf	___flge@ff1+2
 11703  0017' 080A'              	movf	?___xxtofl+1,w
 11704  0018' 00B9'              	movwf	___flge@ff1+1
 11705  0019' 0809'              	movf	?___xxtofl,w
 11706  001A' 00B8'              	movwf	___flge@ff1
 11707  001B' 1683               	bsf	3,5	;RP0=1, select bank1
 11708  001C' 1303               	bcf	3,6	;RP1=0, select bank1
 11709  001D' 0800'              	movf	(pimf@a+3)^(0+128),w
 11710  001E' 1283               	bcf	3,5	;RP0=0, select bank0
 11711  001F' 1303               	bcf	3,6	;RP1=0, select bank0
 11712  0020' 00AB'              	movwf	___fladd@a+3
 11713  0021' 1683               	bsf	3,5	;RP0=1, select bank1
 11714  0022' 1303               	bcf	3,6	;RP1=0, select bank1
 11715  0023' 0800'              	movf	(pimf@a+2)^(0+128),w
 11716  0024' 1283               	bcf	3,5	;RP0=0, select bank0
 11717  0025' 1303               	bcf	3,6	;RP1=0, select bank0
 11718  0026' 00AA'              	movwf	___fladd@a+2
 11719  0027' 1683               	bsf	3,5	;RP0=1, select bank1
 11720  0028' 1303               	bcf	3,6	;RP1=0, select bank1
 11721  0029' 0800'              	movf	(pimf@a+1)^(0+128),w
 11722  002A' 1283               	bcf	3,5	;RP0=0, select bank0
 11723  002B' 1303               	bcf	3,6	;RP1=0, select bank0
 11724  002C' 00A9'              	movwf	___fladd@a+1
 11725  002D' 1683               	bsf	3,5	;RP0=1, select bank1
 11726  002E' 1303               	bcf	3,6	;RP1=0, select bank1
 11727  002F' 0800'              	movf	pimf@a^(0+128),w
 11728  0030' 1283               	bcf	3,5	;RP0=0, select bank0
 11729  0031' 1303               	bcf	3,6	;RP1=0, select bank0
 11730  0032' 00A8'              	movwf	___fladd@a
 11731  0033' 1683               	bsf	3,5	;RP0=1, select bank1
 11732  0034' 1303               	bcf	3,6	;RP1=0, select bank1
 11733  0035' 0800'              	movf	(pimf@b+3)^(0+128),w
 11734  0036' 1283               	bcf	3,5	;RP0=0, select bank0
 11735  0037' 1303               	bcf	3,6	;RP1=0, select bank0
 11736  0038' 00A7'              	movwf	___fladd@b+3
 11737  0039' 1683               	bsf	3,5	;RP0=1, select bank1
 11738  003A' 1303               	bcf	3,6	;RP1=0, select bank1
 11739  003B' 0800'              	movf	(pimf@b+2)^(0+128),w
 11740  003C' 1283               	bcf	3,5	;RP0=0, select bank0
 11741  003D' 1303               	bcf	3,6	;RP1=0, select bank0
 11742  003E' 00A6'              	movwf	___fladd@b+2
 11743  003F' 1683               	bsf	3,5	;RP0=1, select bank1
 11744  0040' 1303               	bcf	3,6	;RP1=0, select bank1
 11745  0041' 0800'              	movf	(pimf@b+1)^(0+128),w
 11746  0042' 1283               	bcf	3,5	;RP0=0, select bank0
 11747  0043' 1303               	bcf	3,6	;RP1=0, select bank0
 11748  0044' 00A5'              	movwf	___fladd@b+1
 11749  0045' 1683               	bsf	3,5	;RP0=1, select bank1
 11750  0046' 1303               	bcf	3,6	;RP1=0, select bank1
 11751  0047' 0800'              	movf	pimf@b^(0+128),w
 11752  0048' 1283               	bcf	3,5	;RP0=0, select bank0
 11753  0049' 1303               	bcf	3,6	;RP1=0, select bank0
 11754  004A' 00A4'              	movwf	___fladd@b
 11755  004B' 120A' 118A' 2000' 120A' 118A' 	fcall	___fladd
 11756  0050' 1283               	bcf	3,5	;RP0=0, select bank0
 11757  0051' 1303               	bcf	3,6	;RP1=0, select bank0
 11758  0052' 0827'              	movf	?___fladd+3,w
 11759  0053' 0091'              	movwf	___fldiv@b+3
 11760  0054' 0826'              	movf	?___fladd+2,w
 11761  0055' 0090'              	movwf	___fldiv@b+2
 11762  0056' 0825'              	movf	?___fladd+1,w
 11763  0057' 008F'              	movwf	___fldiv@b+1
 11764  0058' 0824'              	movf	?___fladd,w
 11765  0059' 008E'              	movwf	___fldiv@b
 11766  005A' 3040               	movlw	64
 11767  005B' 008D'              	movwf	___fldiv@a+3
 11768  005C' 3000               	movlw	0
 11769  005D' 008C'              	movwf	___fldiv@a+2
 11770  005E' 3000               	movlw	0
 11771  005F' 008B'              	movwf	___fldiv@a+1
 11772  0060' 3000               	movlw	0
 11773  0061' 008A'              	movwf	___fldiv@a
 11774  0062' 120A' 118A' 2000' 120A' 118A' 	fcall	___fldiv
 11775  0067' 1283               	bcf	3,5	;RP0=0, select bank0
 11776  0068' 1303               	bcf	3,6	;RP1=0, select bank0
 11777  0069' 080D'              	movf	?___fldiv+3,w
 11778  006A' 00BF'              	movwf	___flge@ff2+3
 11779  006B' 080C'              	movf	?___fldiv+2,w
 11780  006C' 00BE'              	movwf	___flge@ff2+2
 11781  006D' 080B'              	movf	?___fldiv+1,w
 11782  006E' 00BD'              	movwf	___flge@ff2+1
 11783  006F' 080A'              	movf	?___fldiv,w
 11784  0070' 00BC'              	movwf	___flge@ff2
 11785  0071' 120A' 118A' 2000' 120A' 118A' 	fcall	___flge
 11786  0076' 1C03               	btfss	3,0
 11787  0077' 2800'              	goto	u4291
 11788  0078' 2800'              	goto	u4290
 11789  0079'                    u4291:	
 11790  0079' 120A' 118A' 2800'  	goto	l2834
 11791  007C'                    u4290:	
 11792  007C'                    l2830:	
 11793  007C' 1683               	bsf	3,5	;RP0=1, select bank1
 11794  007D' 1303               	bcf	3,6	;RP1=0, select bank1
 11795  007E' 0800'              	movf	(pimf@b+3)^(0+128),w
 11796  007F' 1283               	bcf	3,5	;RP0=0, select bank0
 11797  0080' 1303               	bcf	3,6	;RP1=0, select bank0
 11798  0081' 00BB'              	movwf	___flge@ff1+3
 11799  0082' 1683               	bsf	3,5	;RP0=1, select bank1
 11800  0083' 1303               	bcf	3,6	;RP1=0, select bank1
 11801  0084' 0800'              	movf	(pimf@b+2)^(0+128),w
 11802  0085' 1283               	bcf	3,5	;RP0=0, select bank0
 11803  0086' 1303               	bcf	3,6	;RP1=0, select bank0
 11804  0087' 00BA'              	movwf	___flge@ff1+2
 11805  0088' 1683               	bsf	3,5	;RP0=1, select bank1
 11806  0089' 1303               	bcf	3,6	;RP1=0, select bank1
 11807  008A' 0800'              	movf	(pimf@b+1)^(0+128),w
 11808  008B' 1283               	bcf	3,5	;RP0=0, select bank0
 11809  008C' 1303               	bcf	3,6	;RP1=0, select bank0
 11810  008D' 00B9'              	movwf	___flge@ff1+1
 11811  008E' 1683               	bsf	3,5	;RP0=1, select bank1
 11812  008F' 1303               	bcf	3,6	;RP1=0, select bank1
 11813  0090' 0800'              	movf	pimf@b^(0+128),w
 11814  0091' 1283               	bcf	3,5	;RP0=0, select bank0
 11815  0092' 1303               	bcf	3,6	;RP1=0, select bank0
 11816  0093' 00B8'              	movwf	___flge@ff1
 11817  0094' 1683               	bsf	3,5	;RP0=1, select bank1
 11818  0095' 1303               	bcf	3,6	;RP1=0, select bank1
 11819  0096' 0800'              	movf	pimf@x^(0+128),w
 11820  0097' 0089'              	movwf	___xxtofl@val
 11821  0098' 0800'              	movf	(pimf@x+1)^(0+128),w
 11822  0099' 008A'              	movwf	___xxtofl@val+1
 11823  009A' 3000               	movlw	0
 11824  009B' 1B8A'              	btfsc	___xxtofl@val+1,7
 11825  009C' 30FF               	movlw	255
 11826  009D' 008B'              	movwf	___xxtofl@val+2
 11827  009E' 008C'              	movwf	___xxtofl@val+3
 11828  009F' 3001               	movlw	1
 11829  00A0' 120A' 118A' 2000' 120A' 118A' 	fcall	___xxtofl
 11830  00A5' 080C'              	movf	?___xxtofl+3,w
 11831  00A6' 1283               	bcf	3,5	;RP0=0, select bank0
 11832  00A7' 1303               	bcf	3,6	;RP1=0, select bank0
 11833  00A8' 00BF'              	movwf	___flge@ff2+3
 11834  00A9' 080B'              	movf	?___xxtofl+2,w
 11835  00AA' 00BE'              	movwf	___flge@ff2+2
 11836  00AB' 080A'              	movf	?___xxtofl+1,w
 11837  00AC' 00BD'              	movwf	___flge@ff2+1
 11838  00AD' 0809'              	movf	?___xxtofl,w
 11839  00AE' 00BC'              	movwf	___flge@ff2
 11840  00AF' 120A' 118A' 2000' 120A' 118A' 	fcall	___flge
 11841  00B4' 1C03               	btfss	3,0
 11842  00B5' 2800'              	goto	u4301
 11843  00B6' 2800'              	goto	u4300
 11844  00B7'                    u4301:	
 11845  00B7' 2800'              	goto	u4291
 11846  00B8'                    u4300:	
 11847  00B8'                    l2832:	
 11848                           
 11849                           ;./Fuzzy_Lib.h: 36:         f = 100-2*((x-b)/(b-a))*((x-b)/(b-a))*100;
 11850  00B8' 3040               	movlw	64
 11851  00B9' 1283               	bcf	3,5	;RP0=0, select bank0
 11852  00BA' 1303               	bcf	3,6	;RP1=0, select bank0
 11853  00BB' 00C3'              	movwf	___flmul@b+3
 11854  00BC' 3000               	movlw	0
 11855  00BD' 00C2'              	movwf	___flmul@b+2
 11856  00BE' 3000               	movlw	0
 11857  00BF' 00C1'              	movwf	___flmul@b+1
 11858  00C0' 3000               	movlw	0
 11859  00C1' 00C0'              	movwf	___flmul@b
 11860  00C2' 1683               	bsf	3,5	;RP0=1, select bank1
 11861  00C3' 1303               	bcf	3,6	;RP1=0, select bank1
 11862  00C4' 0800'              	movf	(pimf@a+3)^(0+128),w
 11863  00C5' 1283               	bcf	3,5	;RP0=0, select bank0
 11864  00C6' 1303               	bcf	3,6	;RP1=0, select bank0
 11865  00C7' 00BB'              	movwf	___flsub@a+3
 11866  00C8' 1683               	bsf	3,5	;RP0=1, select bank1
 11867  00C9' 1303               	bcf	3,6	;RP1=0, select bank1
 11868  00CA' 0800'              	movf	(pimf@a+2)^(0+128),w
 11869  00CB' 1283               	bcf	3,5	;RP0=0, select bank0
 11870  00CC' 1303               	bcf	3,6	;RP1=0, select bank0
 11871  00CD' 00BA'              	movwf	___flsub@a+2
 11872  00CE' 1683               	bsf	3,5	;RP0=1, select bank1
 11873  00CF' 1303               	bcf	3,6	;RP1=0, select bank1
 11874  00D0' 0800'              	movf	(pimf@a+1)^(0+128),w
 11875  00D1' 1283               	bcf	3,5	;RP0=0, select bank0
 11876  00D2' 1303               	bcf	3,6	;RP1=0, select bank0
 11877  00D3' 00B9'              	movwf	___flsub@a+1
 11878  00D4' 1683               	bsf	3,5	;RP0=1, select bank1
 11879  00D5' 1303               	bcf	3,6	;RP1=0, select bank1
 11880  00D6' 0800'              	movf	pimf@a^(0+128),w
 11881  00D7' 1283               	bcf	3,5	;RP0=0, select bank0
 11882  00D8' 1303               	bcf	3,6	;RP1=0, select bank0
 11883  00D9' 00B8'              	movwf	___flsub@a
 11884  00DA' 1683               	bsf	3,5	;RP0=1, select bank1
 11885  00DB' 1303               	bcf	3,6	;RP1=0, select bank1
 11886  00DC' 0800'              	movf	(pimf@b+3)^(0+128),w
 11887  00DD' 1283               	bcf	3,5	;RP0=0, select bank0
 11888  00DE' 1303               	bcf	3,6	;RP1=0, select bank0
 11889  00DF' 00BF'              	movwf	___flsub@b+3
 11890  00E0' 1683               	bsf	3,5	;RP0=1, select bank1
 11891  00E1' 1303               	bcf	3,6	;RP1=0, select bank1
 11892  00E2' 0800'              	movf	(pimf@b+2)^(0+128),w
 11893  00E3' 1283               	bcf	3,5	;RP0=0, select bank0
 11894  00E4' 1303               	bcf	3,6	;RP1=0, select bank0
 11895  00E5' 00BE'              	movwf	___flsub@b+2
 11896  00E6' 1683               	bsf	3,5	;RP0=1, select bank1
 11897  00E7' 1303               	bcf	3,6	;RP1=0, select bank1
 11898  00E8' 0800'              	movf	(pimf@b+1)^(0+128),w
 11899  00E9' 1283               	bcf	3,5	;RP0=0, select bank0
 11900  00EA' 1303               	bcf	3,6	;RP1=0, select bank0
 11901  00EB' 00BD'              	movwf	___flsub@b+1
 11902  00EC' 1683               	bsf	3,5	;RP0=1, select bank1
 11903  00ED' 1303               	bcf	3,6	;RP1=0, select bank1
 11904  00EE' 0800'              	movf	pimf@b^(0+128),w
 11905  00EF' 1283               	bcf	3,5	;RP0=0, select bank0
 11906  00F0' 1303               	bcf	3,6	;RP1=0, select bank0
 11907  00F1' 00BC'              	movwf	___flsub@b
 11908  00F2' 120A' 118A' 2000' 120A' 118A' 	fcall	___flsub
 11909  00F7' 1283               	bcf	3,5	;RP0=0, select bank0
 11910  00F8' 1303               	bcf	3,6	;RP1=0, select bank0
 11911  00F9' 083B'              	movf	?___flsub+3,w
 11912  00FA' 008D'              	movwf	___fldiv@a+3
 11913  00FB' 083A'              	movf	?___flsub+2,w
 11914  00FC' 008C'              	movwf	___fldiv@a+2
 11915  00FD' 0839'              	movf	?___flsub+1,w
 11916  00FE' 008B'              	movwf	___fldiv@a+1
 11917  00FF' 0838'              	movf	?___flsub,w
 11918  0100' 008A'              	movwf	___fldiv@a
 11919  0101' 1683               	bsf	3,5	;RP0=1, select bank1
 11920  0102' 1303               	bcf	3,6	;RP1=0, select bank1
 11921  0103' 0800'              	movf	(pimf@b+3)^(0+128),w
 11922  0104' 1283               	bcf	3,5	;RP0=0, select bank0
 11923  0105' 1303               	bcf	3,6	;RP1=0, select bank0
 11924  0106' 00BB'              	movwf	___flsub@a+3
 11925  0107' 1683               	bsf	3,5	;RP0=1, select bank1
 11926  0108' 1303               	bcf	3,6	;RP1=0, select bank1
 11927  0109' 0800'              	movf	(pimf@b+2)^(0+128),w
 11928  010A' 1283               	bcf	3,5	;RP0=0, select bank0
 11929  010B' 1303               	bcf	3,6	;RP1=0, select bank0
 11930  010C' 00BA'              	movwf	___flsub@a+2
 11931  010D' 1683               	bsf	3,5	;RP0=1, select bank1
 11932  010E' 1303               	bcf	3,6	;RP1=0, select bank1
 11933  010F' 0800'              	movf	(pimf@b+1)^(0+128),w
 11934  0110' 1283               	bcf	3,5	;RP0=0, select bank0
 11935  0111' 1303               	bcf	3,6	;RP1=0, select bank0
 11936  0112' 00B9'              	movwf	___flsub@a+1
 11937  0113' 1683               	bsf	3,5	;RP0=1, select bank1
 11938  0114' 1303               	bcf	3,6	;RP1=0, select bank1
 11939  0115' 0800'              	movf	pimf@b^(0+128),w
 11940  0116' 1283               	bcf	3,5	;RP0=0, select bank0
 11941  0117' 1303               	bcf	3,6	;RP1=0, select bank0
 11942  0118' 00B8'              	movwf	___flsub@a
 11943  0119' 1683               	bsf	3,5	;RP0=1, select bank1
 11944  011A' 1303               	bcf	3,6	;RP1=0, select bank1
 11945  011B' 0800'              	movf	pimf@x^(0+128),w
 11946  011C' 0089'              	movwf	___xxtofl@val
 11947  011D' 0800'              	movf	(pimf@x+1)^(0+128),w
 11948  011E' 008A'              	movwf	___xxtofl@val+1
 11949  011F' 3000               	movlw	0
 11950  0120' 1B8A'              	btfsc	___xxtofl@val+1,7
 11951  0121' 30FF               	movlw	255
 11952  0122' 008B'              	movwf	___xxtofl@val+2
 11953  0123' 008C'              	movwf	___xxtofl@val+3
 11954  0124' 3001               	movlw	1
 11955  0125' 120A' 118A' 2000' 120A' 118A' 	fcall	___xxtofl
 11956  012A' 080C'              	movf	?___xxtofl+3,w
 11957  012B' 1283               	bcf	3,5	;RP0=0, select bank0
 11958  012C' 1303               	bcf	3,6	;RP1=0, select bank0
 11959  012D' 00BF'              	movwf	___flsub@b+3
 11960  012E' 080B'              	movf	?___xxtofl+2,w
 11961  012F' 00BE'              	movwf	___flsub@b+2
 11962  0130' 080A'              	movf	?___xxtofl+1,w
 11963  0131' 00BD'              	movwf	___flsub@b+1
 11964  0132' 0809'              	movf	?___xxtofl,w
 11965  0133' 00BC'              	movwf	___flsub@b
 11966  0134' 120A' 118A' 2000' 120A' 118A' 	fcall	___flsub
 11967  0139' 1283               	bcf	3,5	;RP0=0, select bank0
 11968  013A' 1303               	bcf	3,6	;RP1=0, select bank0
 11969  013B' 083B'              	movf	?___flsub+3,w
 11970  013C' 0091'              	movwf	___fldiv@b+3
 11971  013D' 083A'              	movf	?___flsub+2,w
 11972  013E' 0090'              	movwf	___fldiv@b+2
 11973  013F' 0839'              	movf	?___flsub+1,w
 11974  0140' 008F'              	movwf	___fldiv@b+1
 11975  0141' 0838'              	movf	?___flsub,w
 11976  0142' 008E'              	movwf	___fldiv@b
 11977  0143' 120A' 118A' 2000' 120A' 118A' 	fcall	___fldiv
 11978  0148' 1283               	bcf	3,5	;RP0=0, select bank0
 11979  0149' 1303               	bcf	3,6	;RP1=0, select bank0
 11980  014A' 080D'              	movf	?___fldiv+3,w
 11981  014B' 00C7'              	movwf	___flmul@a+3
 11982  014C' 080C'              	movf	?___fldiv+2,w
 11983  014D' 00C6'              	movwf	___flmul@a+2
 11984  014E' 080B'              	movf	?___fldiv+1,w
 11985  014F' 00C5'              	movwf	___flmul@a+1
 11986  0150' 080A'              	movf	?___fldiv,w
 11987  0151' 00C4'              	movwf	___flmul@a
 11988  0152' 120A' 118A' 2000' 120A' 118A' 	fcall	___flmul
 11989  0157' 1283               	bcf	3,5	;RP0=0, select bank0
 11990  0158' 1303               	bcf	3,6	;RP1=0, select bank0
 11991  0159' 0843'              	movf	?___flmul+3,w
 11992  015A' 1683               	bsf	3,5	;RP0=1, select bank1
 11993  015B' 1303               	bcf	3,6	;RP1=0, select bank1
 11994  015C' 0080'              	movwf	(_pimf$823+3)^(0+128)
 11995  015D' 1283               	bcf	3,5	;RP0=0, select bank0
 11996  015E' 1303               	bcf	3,6	;RP1=0, select bank0
 11997  015F' 0842'              	movf	?___flmul+2,w
 11998  0160' 1683               	bsf	3,5	;RP0=1, select bank1
 11999  0161' 1303               	bcf	3,6	;RP1=0, select bank1
 12000  0162' 0080'              	movwf	(_pimf$823+2)^(0+128)
 12001  0163' 1283               	bcf	3,5	;RP0=0, select bank0
 12002  0164' 1303               	bcf	3,6	;RP1=0, select bank0
 12003  0165' 0841'              	movf	?___flmul+1,w
 12004  0166' 1683               	bsf	3,5	;RP0=1, select bank1
 12005  0167' 1303               	bcf	3,6	;RP1=0, select bank1
 12006  0168' 0080'              	movwf	(_pimf$823+1)^(0+128)
 12007  0169' 1283               	bcf	3,5	;RP0=0, select bank0
 12008  016A' 1303               	bcf	3,6	;RP1=0, select bank0
 12009  016B' 0840'              	movf	?___flmul,w
 12010  016C' 1683               	bsf	3,5	;RP0=1, select bank1
 12011  016D' 1303               	bcf	3,6	;RP1=0, select bank1
 12012  016E' 0080'              	movwf	_pimf$823^(0+128)
 12013                           
 12014                           ;./Fuzzy_Lib.h: 36:         f = 100-2*((x-b)/(b-a))*((x-b)/(b-a))*100;
 12015  016F' 0800'              	movf	(pimf@a+3)^(0+128),w
 12016  0170' 1283               	bcf	3,5	;RP0=0, select bank0
 12017  0171' 1303               	bcf	3,6	;RP1=0, select bank0
 12018  0172' 00BB'              	movwf	___flsub@a+3
 12019  0173' 1683               	bsf	3,5	;RP0=1, select bank1
 12020  0174' 1303               	bcf	3,6	;RP1=0, select bank1
 12021  0175' 0800'              	movf	(pimf@a+2)^(0+128),w
 12022  0176' 1283               	bcf	3,5	;RP0=0, select bank0
 12023  0177' 1303               	bcf	3,6	;RP1=0, select bank0
 12024  0178' 00BA'              	movwf	___flsub@a+2
 12025  0179' 1683               	bsf	3,5	;RP0=1, select bank1
 12026  017A' 1303               	bcf	3,6	;RP1=0, select bank1
 12027  017B' 0800'              	movf	(pimf@a+1)^(0+128),w
 12028  017C' 1283               	bcf	3,5	;RP0=0, select bank0
 12029  017D' 1303               	bcf	3,6	;RP1=0, select bank0
 12030  017E' 00B9'              	movwf	___flsub@a+1
 12031  017F' 1683               	bsf	3,5	;RP0=1, select bank1
 12032  0180' 1303               	bcf	3,6	;RP1=0, select bank1
 12033  0181' 0800'              	movf	pimf@a^(0+128),w
 12034  0182' 1283               	bcf	3,5	;RP0=0, select bank0
 12035  0183' 1303               	bcf	3,6	;RP1=0, select bank0
 12036  0184' 00B8'              	movwf	___flsub@a
 12037  0185' 1683               	bsf	3,5	;RP0=1, select bank1
 12038  0186' 1303               	bcf	3,6	;RP1=0, select bank1
 12039  0187' 0800'              	movf	(pimf@b+3)^(0+128),w
 12040  0188' 1283               	bcf	3,5	;RP0=0, select bank0
 12041  0189' 1303               	bcf	3,6	;RP1=0, select bank0
 12042  018A' 00BF'              	movwf	___flsub@b+3
 12043  018B' 1683               	bsf	3,5	;RP0=1, select bank1
 12044  018C' 1303               	bcf	3,6	;RP1=0, select bank1
 12045  018D' 0800'              	movf	(pimf@b+2)^(0+128),w
 12046  018E' 1283               	bcf	3,5	;RP0=0, select bank0
 12047  018F' 1303               	bcf	3,6	;RP1=0, select bank0
 12048  0190' 00BE'              	movwf	___flsub@b+2
 12049  0191' 1683               	bsf	3,5	;RP0=1, select bank1
 12050  0192' 1303               	bcf	3,6	;RP1=0, select bank1
 12051  0193' 0800'              	movf	(pimf@b+1)^(0+128),w
 12052  0194' 1283               	bcf	3,5	;RP0=0, select bank0
 12053  0195' 1303               	bcf	3,6	;RP1=0, select bank0
 12054  0196' 00BD'              	movwf	___flsub@b+1
 12055  0197' 1683               	bsf	3,5	;RP0=1, select bank1
 12056  0198' 1303               	bcf	3,6	;RP1=0, select bank1
 12057  0199' 0800'              	movf	pimf@b^(0+128),w
 12058  019A' 1283               	bcf	3,5	;RP0=0, select bank0
 12059  019B' 1303               	bcf	3,6	;RP1=0, select bank0
 12060  019C' 00BC'              	movwf	___flsub@b
 12061  019D' 120A' 118A' 2000' 120A' 118A' 	fcall	___flsub
 12062  01A2' 1283               	bcf	3,5	;RP0=0, select bank0
 12063  01A3' 1303               	bcf	3,6	;RP1=0, select bank0
 12064  01A4' 083B'              	movf	?___flsub+3,w
 12065  01A5' 008D'              	movwf	___fldiv@a+3
 12066  01A6' 083A'              	movf	?___flsub+2,w
 12067  01A7' 008C'              	movwf	___fldiv@a+2
 12068  01A8' 0839'              	movf	?___flsub+1,w
 12069  01A9' 008B'              	movwf	___fldiv@a+1
 12070  01AA' 0838'              	movf	?___flsub,w
 12071  01AB' 008A'              	movwf	___fldiv@a
 12072  01AC' 1683               	bsf	3,5	;RP0=1, select bank1
 12073  01AD' 1303               	bcf	3,6	;RP1=0, select bank1
 12074  01AE' 0800'              	movf	(pimf@b+3)^(0+128),w
 12075  01AF' 1283               	bcf	3,5	;RP0=0, select bank0
 12076  01B0' 1303               	bcf	3,6	;RP1=0, select bank0
 12077  01B1' 00BB'              	movwf	___flsub@a+3
 12078  01B2' 1683               	bsf	3,5	;RP0=1, select bank1
 12079  01B3' 1303               	bcf	3,6	;RP1=0, select bank1
 12080  01B4' 0800'              	movf	(pimf@b+2)^(0+128),w
 12081  01B5' 1283               	bcf	3,5	;RP0=0, select bank0
 12082  01B6' 1303               	bcf	3,6	;RP1=0, select bank0
 12083  01B7' 00BA'              	movwf	___flsub@a+2
 12084  01B8' 1683               	bsf	3,5	;RP0=1, select bank1
 12085  01B9' 1303               	bcf	3,6	;RP1=0, select bank1
 12086  01BA' 0800'              	movf	(pimf@b+1)^(0+128),w
 12087  01BB' 1283               	bcf	3,5	;RP0=0, select bank0
 12088  01BC' 1303               	bcf	3,6	;RP1=0, select bank0
 12089  01BD' 00B9'              	movwf	___flsub@a+1
 12090  01BE' 1683               	bsf	3,5	;RP0=1, select bank1
 12091  01BF' 1303               	bcf	3,6	;RP1=0, select bank1
 12092  01C0' 0800'              	movf	pimf@b^(0+128),w
 12093  01C1' 1283               	bcf	3,5	;RP0=0, select bank0
 12094  01C2' 1303               	bcf	3,6	;RP1=0, select bank0
 12095  01C3' 00B8'              	movwf	___flsub@a
 12096  01C4' 1683               	bsf	3,5	;RP0=1, select bank1
 12097  01C5' 1303               	bcf	3,6	;RP1=0, select bank1
 12098  01C6' 0800'              	movf	pimf@x^(0+128),w
 12099  01C7' 0089'              	movwf	___xxtofl@val
 12100  01C8' 0800'              	movf	(pimf@x+1)^(0+128),w
 12101  01C9' 008A'              	movwf	___xxtofl@val+1
 12102  01CA' 3000               	movlw	0
 12103  01CB' 1B8A'              	btfsc	___xxtofl@val+1,7
 12104  01CC' 30FF               	movlw	255
 12105  01CD' 008B'              	movwf	___xxtofl@val+2
 12106  01CE' 008C'              	movwf	___xxtofl@val+3
 12107  01CF' 3001               	movlw	1
 12108  01D0' 120A' 118A' 2000' 120A' 118A' 	fcall	___xxtofl
 12109  01D5' 080C'              	movf	?___xxtofl+3,w
 12110  01D6' 1283               	bcf	3,5	;RP0=0, select bank0
 12111  01D7' 1303               	bcf	3,6	;RP1=0, select bank0
 12112  01D8' 00BF'              	movwf	___flsub@b+3
 12113  01D9' 080B'              	movf	?___xxtofl+2,w
 12114  01DA' 00BE'              	movwf	___flsub@b+2
 12115  01DB' 080A'              	movf	?___xxtofl+1,w
 12116  01DC' 00BD'              	movwf	___flsub@b+1
 12117  01DD' 0809'              	movf	?___xxtofl,w
 12118  01DE' 00BC'              	movwf	___flsub@b
 12119  01DF' 120A' 118A' 2000' 120A' 118A' 	fcall	___flsub
 12120  01E4' 1283               	bcf	3,5	;RP0=0, select bank0
 12121  01E5' 1303               	bcf	3,6	;RP1=0, select bank0
 12122  01E6' 083B'              	movf	?___flsub+3,w
 12123  01E7' 0091'              	movwf	___fldiv@b+3
 12124  01E8' 083A'              	movf	?___flsub+2,w
 12125  01E9' 0090'              	movwf	___fldiv@b+2
 12126  01EA' 0839'              	movf	?___flsub+1,w
 12127  01EB' 008F'              	movwf	___fldiv@b+1
 12128  01EC' 0838'              	movf	?___flsub,w
 12129  01ED' 008E'              	movwf	___fldiv@b
 12130  01EE' 120A' 118A' 2000' 120A' 118A' 	fcall	___fldiv
 12131  01F3' 1283               	bcf	3,5	;RP0=0, select bank0
 12132  01F4' 1303               	bcf	3,6	;RP1=0, select bank0
 12133  01F5' 080D'              	movf	?___fldiv+3,w
 12134  01F6' 00C3'              	movwf	___flmul@b+3
 12135  01F7' 080C'              	movf	?___fldiv+2,w
 12136  01F8' 00C2'              	movwf	___flmul@b+2
 12137  01F9' 080B'              	movf	?___fldiv+1,w
 12138  01FA' 00C1'              	movwf	___flmul@b+1
 12139  01FB' 080A'              	movf	?___fldiv,w
 12140  01FC' 00C0'              	movwf	___flmul@b
 12141  01FD' 1683               	bsf	3,5	;RP0=1, select bank1
 12142  01FE' 1303               	bcf	3,6	;RP1=0, select bank1
 12143  01FF' 0800'              	movf	(_pimf$823+3)^(0+128),w
 12144  0200' 1283               	bcf	3,5	;RP0=0, select bank0
 12145  0201' 1303               	bcf	3,6	;RP1=0, select bank0
 12146  0202' 00C7'              	movwf	___flmul@a+3
 12147  0203' 1683               	bsf	3,5	;RP0=1, select bank1
 12148  0204' 1303               	bcf	3,6	;RP1=0, select bank1
 12149  0205' 0800'              	movf	(_pimf$823+2)^(0+128),w
 12150  0206' 1283               	bcf	3,5	;RP0=0, select bank0
 12151  0207' 1303               	bcf	3,6	;RP1=0, select bank0
 12152  0208' 00C6'              	movwf	___flmul@a+2
 12153  0209' 1683               	bsf	3,5	;RP0=1, select bank1
 12154  020A' 1303               	bcf	3,6	;RP1=0, select bank1
 12155  020B' 0800'              	movf	(_pimf$823+1)^(0+128),w
 12156  020C' 1283               	bcf	3,5	;RP0=0, select bank0
 12157  020D' 1303               	bcf	3,6	;RP1=0, select bank0
 12158  020E' 00C5'              	movwf	___flmul@a+1
 12159  020F' 1683               	bsf	3,5	;RP0=1, select bank1
 12160  0210' 1303               	bcf	3,6	;RP1=0, select bank1
 12161  0211' 0800'              	movf	_pimf$823^(0+128),w
 12162  0212' 1283               	bcf	3,5	;RP0=0, select bank0
 12163  0213' 1303               	bcf	3,6	;RP1=0, select bank0
 12164  0214' 00C4'              	movwf	___flmul@a
 12165  0215' 120A' 118A' 2000' 120A' 118A' 	fcall	___flmul
 12166  021A' 1283               	bcf	3,5	;RP0=0, select bank0
 12167  021B' 1303               	bcf	3,6	;RP1=0, select bank0
 12168  021C' 0843'              	movf	?___flmul+3,w
 12169  021D' 1683               	bsf	3,5	;RP0=1, select bank1
 12170  021E' 1303               	bcf	3,6	;RP1=0, select bank1
 12171  021F' 0080'              	movwf	(_pimf$824+3)^(0+128)
 12172  0220' 1283               	bcf	3,5	;RP0=0, select bank0
 12173  0221' 1303               	bcf	3,6	;RP1=0, select bank0
 12174  0222' 0842'              	movf	?___flmul+2,w
 12175  0223' 1683               	bsf	3,5	;RP0=1, select bank1
 12176  0224' 1303               	bcf	3,6	;RP1=0, select bank1
 12177  0225' 0080'              	movwf	(_pimf$824+2)^(0+128)
 12178  0226' 1283               	bcf	3,5	;RP0=0, select bank0
 12179  0227' 1303               	bcf	3,6	;RP1=0, select bank0
 12180  0228' 0841'              	movf	?___flmul+1,w
 12181  0229' 1683               	bsf	3,5	;RP0=1, select bank1
 12182  022A' 1303               	bcf	3,6	;RP1=0, select bank1
 12183  022B' 0080'              	movwf	(_pimf$824+1)^(0+128)
 12184  022C' 1283               	bcf	3,5	;RP0=0, select bank0
 12185  022D' 1303               	bcf	3,6	;RP1=0, select bank0
 12186  022E' 0840'              	movf	?___flmul,w
 12187  022F' 1683               	bsf	3,5	;RP0=1, select bank1
 12188  0230' 1303               	bcf	3,6	;RP1=0, select bank1
 12189  0231' 0080'              	movwf	_pimf$824^(0+128)
 12190                           
 12191                           ;./Fuzzy_Lib.h: 36:         f = 100-2*((x-b)/(b-a))*((x-b)/(b-a))*100;
 12192  0232' 3042               	movlw	66
 12193  0233' 1283               	bcf	3,5	;RP0=0, select bank0
 12194  0234' 1303               	bcf	3,6	;RP1=0, select bank0
 12195  0235' 00C3'              	movwf	___flmul@b+3
 12196  0236' 30C8               	movlw	200
 12197  0237' 00C2'              	movwf	___flmul@b+2
 12198  0238' 3000               	movlw	0
 12199  0239' 00C1'              	movwf	___flmul@b+1
 12200  023A' 3000               	movlw	0
 12201  023B' 00C0'              	movwf	___flmul@b
 12202  023C' 1683               	bsf	3,5	;RP0=1, select bank1
 12203  023D' 1303               	bcf	3,6	;RP1=0, select bank1
 12204  023E' 0800'              	movf	(_pimf$824+3)^(0+128),w
 12205  023F' 1283               	bcf	3,5	;RP0=0, select bank0
 12206  0240' 1303               	bcf	3,6	;RP1=0, select bank0
 12207  0241' 00C7'              	movwf	___flmul@a+3
 12208  0242' 1683               	bsf	3,5	;RP0=1, select bank1
 12209  0243' 1303               	bcf	3,6	;RP1=0, select bank1
 12210  0244' 0800'              	movf	(_pimf$824+2)^(0+128),w
 12211  0245' 1283               	bcf	3,5	;RP0=0, select bank0
 12212  0246' 1303               	bcf	3,6	;RP1=0, select bank0
 12213  0247' 00C6'              	movwf	___flmul@a+2
 12214  0248' 1683               	bsf	3,5	;RP0=1, select bank1
 12215  0249' 1303               	bcf	3,6	;RP1=0, select bank1
 12216  024A' 0800'              	movf	(_pimf$824+1)^(0+128),w
 12217  024B' 1283               	bcf	3,5	;RP0=0, select bank0
 12218  024C' 1303               	bcf	3,6	;RP1=0, select bank0
 12219  024D' 00C5'              	movwf	___flmul@a+1
 12220  024E' 1683               	bsf	3,5	;RP0=1, select bank1
 12221  024F' 1303               	bcf	3,6	;RP1=0, select bank1
 12222  0250' 0800'              	movf	_pimf$824^(0+128),w
 12223  0251' 1283               	bcf	3,5	;RP0=0, select bank0
 12224  0252' 1303               	bcf	3,6	;RP1=0, select bank0
 12225  0253' 00C4'              	movwf	___flmul@a
 12226  0254' 120A' 118A' 2000' 120A' 118A' 	fcall	___flmul
 12227  0259' 1283               	bcf	3,5	;RP0=0, select bank0
 12228  025A' 1303               	bcf	3,6	;RP1=0, select bank0
 12229  025B' 0843'              	movf	?___flmul+3,w
 12230  025C' 00BB'              	movwf	___flsub@a+3
 12231  025D' 0842'              	movf	?___flmul+2,w
 12232  025E' 00BA'              	movwf	___flsub@a+2
 12233  025F' 0841'              	movf	?___flmul+1,w
 12234  0260' 00B9'              	movwf	___flsub@a+1
 12235  0261' 0840'              	movf	?___flmul,w
 12236  0262' 00B8'              	movwf	___flsub@a
 12237  0263' 3042               	movlw	66
 12238  0264' 00BF'              	movwf	___flsub@b+3
 12239  0265' 30C8               	movlw	200
 12240  0266' 00BE'              	movwf	___flsub@b+2
 12241  0267' 3000               	movlw	0
 12242  0268' 00BD'              	movwf	___flsub@b+1
 12243  0269' 3000               	movlw	0
 12244  026A' 00BC'              	movwf	___flsub@b
 12245  026B' 120A' 118A' 2000' 120A' 118A' 	fcall	___flsub
 12246  0270' 1283               	bcf	3,5	;RP0=0, select bank0
 12247  0271' 1303               	bcf	3,6	;RP1=0, select bank0
 12248  0272' 083B'              	movf	?___flsub+3,w
 12249  0273' 1683               	bsf	3,5	;RP0=1, select bank3
 12250  0274' 1703               	bsf	3,6	;RP1=1, select bank3
 12251  0275' 0080'              	movwf	(_f+3)^(0+384)
 12252  0276' 1283               	bcf	3,5	;RP0=0, select bank0
 12253  0277' 1303               	bcf	3,6	;RP1=0, select bank0
 12254  0278' 083A'              	movf	?___flsub+2,w
 12255  0279' 1683               	bsf	3,5	;RP0=1, select bank3
 12256  027A' 1703               	bsf	3,6	;RP1=1, select bank3
 12257  027B' 0080'              	movwf	(_f+2)^(0+384)
 12258  027C' 1283               	bcf	3,5	;RP0=0, select bank0
 12259  027D' 1303               	bcf	3,6	;RP1=0, select bank0
 12260  027E' 0839'              	movf	?___flsub+1,w
 12261  027F' 1683               	bsf	3,5	;RP0=1, select bank3
 12262  0280' 1703               	bsf	3,6	;RP1=1, select bank3
 12263  0281' 0080'              	movwf	(_f+1)^(0+384)
 12264  0282' 1283               	bcf	3,5	;RP0=0, select bank0
 12265  0283' 1303               	bcf	3,6	;RP1=0, select bank0
 12266  0284' 0838'              	movf	?___flsub,w
 12267  0285' 1683               	bsf	3,5	;RP0=1, select bank3
 12268  0286' 1703               	bsf	3,6	;RP1=1, select bank3
 12269  0287' 0080'              	movwf	_f^(0+384)
 12270                           
 12271                           ;./Fuzzy_Lib.h: 37:     }
 12272  0288' 120A' 118A' 2800'  	goto	l2856
 12273                           
 12274                           	psect	text18_split_3
 12275  0000'                    l2834:	
 12276  0000' 1683               	bsf	3,5	;RP0=1, select bank1
 12277  0001' 1303               	bcf	3,6	;RP1=0, select bank1
 12278  0002' 0800'              	movf	pimf@x^(0+128),w
 12279  0003' 0089'              	movwf	___xxtofl@val
 12280  0004' 0800'              	movf	(pimf@x+1)^(0+128),w
 12281  0005' 008A'              	movwf	___xxtofl@val+1
 12282  0006' 3000               	movlw	0
 12283  0007' 1B8A'              	btfsc	___xxtofl@val+1,7
 12284  0008' 30FF               	movlw	255
 12285  0009' 008B'              	movwf	___xxtofl@val+2
 12286  000A' 008C'              	movwf	___xxtofl@val+3
 12287  000B' 3001               	movlw	1
 12288  000C' 120A' 118A' 2000' 120A' 118A' 	fcall	___xxtofl
 12289  0011' 080C'              	movf	?___xxtofl+3,w
 12290  0012' 1283               	bcf	3,5	;RP0=0, select bank0
 12291  0013' 1303               	bcf	3,6	;RP1=0, select bank0
 12292  0014' 00BB'              	movwf	___flge@ff1+3
 12293  0015' 080B'              	movf	?___xxtofl+2,w
 12294  0016' 00BA'              	movwf	___flge@ff1+2
 12295  0017' 080A'              	movf	?___xxtofl+1,w
 12296  0018' 00B9'              	movwf	___flge@ff1+1
 12297  0019' 0809'              	movf	?___xxtofl,w
 12298  001A' 00B8'              	movwf	___flge@ff1
 12299  001B' 1683               	bsf	3,5	;RP0=1, select bank1
 12300  001C' 1303               	bcf	3,6	;RP1=0, select bank1
 12301  001D' 0800'              	movf	(pimf@b+3)^(0+128),w
 12302  001E' 1283               	bcf	3,5	;RP0=0, select bank0
 12303  001F' 1303               	bcf	3,6	;RP1=0, select bank0
 12304  0020' 00BF'              	movwf	___flge@ff2+3
 12305  0021' 1683               	bsf	3,5	;RP0=1, select bank1
 12306  0022' 1303               	bcf	3,6	;RP1=0, select bank1
 12307  0023' 0800'              	movf	(pimf@b+2)^(0+128),w
 12308  0024' 1283               	bcf	3,5	;RP0=0, select bank0
 12309  0025' 1303               	bcf	3,6	;RP1=0, select bank0
 12310  0026' 00BE'              	movwf	___flge@ff2+2
 12311  0027' 1683               	bsf	3,5	;RP0=1, select bank1
 12312  0028' 1303               	bcf	3,6	;RP1=0, select bank1
 12313  0029' 0800'              	movf	(pimf@b+1)^(0+128),w
 12314  002A' 1283               	bcf	3,5	;RP0=0, select bank0
 12315  002B' 1303               	bcf	3,6	;RP1=0, select bank0
 12316  002C' 00BD'              	movwf	___flge@ff2+1
 12317  002D' 1683               	bsf	3,5	;RP0=1, select bank1
 12318  002E' 1303               	bcf	3,6	;RP1=0, select bank1
 12319  002F' 0800'              	movf	pimf@b^(0+128),w
 12320  0030' 1283               	bcf	3,5	;RP0=0, select bank0
 12321  0031' 1303               	bcf	3,6	;RP1=0, select bank0
 12322  0032' 00BC'              	movwf	___flge@ff2
 12323  0033' 120A' 118A' 2000' 120A' 118A' 	fcall	___flge
 12324  0038' 1C03               	btfss	3,0
 12325  0039' 2800'              	goto	u4311
 12326  003A' 2800'              	goto	u4310
 12327  003B'                    u4311:	
 12328  003B' 2800'              	goto	l2840
 12329  003C'                    u4310:	
 12330  003C'                    l2836:	
 12331  003C' 1683               	bsf	3,5	;RP0=1, select bank1
 12332  003D' 1303               	bcf	3,6	;RP1=0, select bank1
 12333  003E' 0800'              	movf	(pimf@c+3)^(0+128),w
 12334  003F' 1283               	bcf	3,5	;RP0=0, select bank0
 12335  0040' 1303               	bcf	3,6	;RP1=0, select bank0
 12336  0041' 00BB'              	movwf	___flge@ff1+3
 12337  0042' 1683               	bsf	3,5	;RP0=1, select bank1
 12338  0043' 1303               	bcf	3,6	;RP1=0, select bank1
 12339  0044' 0800'              	movf	(pimf@c+2)^(0+128),w
 12340  0045' 1283               	bcf	3,5	;RP0=0, select bank0
 12341  0046' 1303               	bcf	3,6	;RP1=0, select bank0
 12342  0047' 00BA'              	movwf	___flge@ff1+2
 12343  0048' 1683               	bsf	3,5	;RP0=1, select bank1
 12344  0049' 1303               	bcf	3,6	;RP1=0, select bank1
 12345  004A' 0800'              	movf	(pimf@c+1)^(0+128),w
 12346  004B' 1283               	bcf	3,5	;RP0=0, select bank0
 12347  004C' 1303               	bcf	3,6	;RP1=0, select bank0
 12348  004D' 00B9'              	movwf	___flge@ff1+1
 12349  004E' 1683               	bsf	3,5	;RP0=1, select bank1
 12350  004F' 1303               	bcf	3,6	;RP1=0, select bank1
 12351  0050' 0800'              	movf	pimf@c^(0+128),w
 12352  0051' 1283               	bcf	3,5	;RP0=0, select bank0
 12353  0052' 1303               	bcf	3,6	;RP1=0, select bank0
 12354  0053' 00B8'              	movwf	___flge@ff1
 12355  0054' 1683               	bsf	3,5	;RP0=1, select bank1
 12356  0055' 1303               	bcf	3,6	;RP1=0, select bank1
 12357  0056' 0800'              	movf	pimf@x^(0+128),w
 12358  0057' 0089'              	movwf	___xxtofl@val
 12359  0058' 0800'              	movf	(pimf@x+1)^(0+128),w
 12360  0059' 008A'              	movwf	___xxtofl@val+1
 12361  005A' 3000               	movlw	0
 12362  005B' 1B8A'              	btfsc	___xxtofl@val+1,7
 12363  005C' 30FF               	movlw	255
 12364  005D' 008B'              	movwf	___xxtofl@val+2
 12365  005E' 008C'              	movwf	___xxtofl@val+3
 12366  005F' 3001               	movlw	1
 12367  0060' 120A' 118A' 2000' 120A' 118A' 	fcall	___xxtofl
 12368  0065' 080C'              	movf	?___xxtofl+3,w
 12369  0066' 1283               	bcf	3,5	;RP0=0, select bank0
 12370  0067' 1303               	bcf	3,6	;RP1=0, select bank0
 12371  0068' 00BF'              	movwf	___flge@ff2+3
 12372  0069' 080B'              	movf	?___xxtofl+2,w
 12373  006A' 00BE'              	movwf	___flge@ff2+2
 12374  006B' 080A'              	movf	?___xxtofl+1,w
 12375  006C' 00BD'              	movwf	___flge@ff2+1
 12376  006D' 0809'              	movf	?___xxtofl,w
 12377  006E' 00BC'              	movwf	___flge@ff2
 12378  006F' 120A' 118A' 2000' 120A' 118A' 	fcall	___flge
 12379  0074' 1C03               	btfss	3,0
 12380  0075' 2800'              	goto	u4321
 12381  0076' 2800'              	goto	u4320
 12382  0077'                    u4321:	
 12383  0077' 2800'              	goto	l2840
 12384  0078'                    u4320:	
 12385  0078'                    l2838:	
 12386                           
 12387                           ;./Fuzzy_Lib.h: 39:         f = 100;
 12388  0078' 3042               	movlw	66
 12389  0079' 1683               	bsf	3,5	;RP0=1, select bank3
 12390  007A' 1703               	bsf	3,6	;RP1=1, select bank3
 12391  007B' 0080'              	movwf	(_f+3)^(0+384)
 12392  007C' 30C8               	movlw	200
 12393  007D' 0080'              	movwf	(_f+2)^(0+384)
 12394  007E' 3000               	movlw	0
 12395  007F' 0080'              	movwf	(_f+1)^(0+384)
 12396  0080' 3000               	movlw	0
 12397  0081' 0080'              	movwf	_f^(0+384)
 12398                           
 12399                           ;./Fuzzy_Lib.h: 40:     }
 12400  0082' 2800'              	goto	l2856
 12401  0083'                    l2840:	
 12402  0083' 1683               	bsf	3,5	;RP0=1, select bank1
 12403  0084' 1303               	bcf	3,6	;RP1=0, select bank1
 12404  0085' 0800'              	movf	pimf@x^(0+128),w
 12405  0086' 0089'              	movwf	___xxtofl@val
 12406  0087' 0800'              	movf	(pimf@x+1)^(0+128),w
 12407  0088' 008A'              	movwf	___xxtofl@val+1
 12408  0089' 3000               	movlw	0
 12409  008A' 1B8A'              	btfsc	___xxtofl@val+1,7
 12410  008B' 30FF               	movlw	255
 12411  008C' 008B'              	movwf	___xxtofl@val+2
 12412  008D' 008C'              	movwf	___xxtofl@val+3
 12413  008E' 3001               	movlw	1
 12414  008F' 120A' 118A' 2000' 120A' 118A' 	fcall	___xxtofl
 12415  0094' 080C'              	movf	?___xxtofl+3,w
 12416  0095' 1283               	bcf	3,5	;RP0=0, select bank0
 12417  0096' 1303               	bcf	3,6	;RP1=0, select bank0
 12418  0097' 00BB'              	movwf	___flge@ff1+3
 12419  0098' 080B'              	movf	?___xxtofl+2,w
 12420  0099' 00BA'              	movwf	___flge@ff1+2
 12421  009A' 080A'              	movf	?___xxtofl+1,w
 12422  009B' 00B9'              	movwf	___flge@ff1+1
 12423  009C' 0809'              	movf	?___xxtofl,w
 12424  009D' 00B8'              	movwf	___flge@ff1
 12425  009E' 1683               	bsf	3,5	;RP0=1, select bank1
 12426  009F' 1303               	bcf	3,6	;RP1=0, select bank1
 12427  00A0' 0800'              	movf	(pimf@c+3)^(0+128),w
 12428  00A1' 1283               	bcf	3,5	;RP0=0, select bank0
 12429  00A2' 1303               	bcf	3,6	;RP1=0, select bank0
 12430  00A3' 00BF'              	movwf	___flge@ff2+3
 12431  00A4' 1683               	bsf	3,5	;RP0=1, select bank1
 12432  00A5' 1303               	bcf	3,6	;RP1=0, select bank1
 12433  00A6' 0800'              	movf	(pimf@c+2)^(0+128),w
 12434  00A7' 1283               	bcf	3,5	;RP0=0, select bank0
 12435  00A8' 1303               	bcf	3,6	;RP1=0, select bank0
 12436  00A9' 00BE'              	movwf	___flge@ff2+2
 12437  00AA' 1683               	bsf	3,5	;RP0=1, select bank1
 12438  00AB' 1303               	bcf	3,6	;RP1=0, select bank1
 12439  00AC' 0800'              	movf	(pimf@c+1)^(0+128),w
 12440  00AD' 1283               	bcf	3,5	;RP0=0, select bank0
 12441  00AE' 1303               	bcf	3,6	;RP1=0, select bank0
 12442  00AF' 00BD'              	movwf	___flge@ff2+1
 12443  00B0' 1683               	bsf	3,5	;RP0=1, select bank1
 12444  00B1' 1303               	bcf	3,6	;RP1=0, select bank1
 12445  00B2' 0800'              	movf	pimf@c^(0+128),w
 12446  00B3' 1283               	bcf	3,5	;RP0=0, select bank0
 12447  00B4' 1303               	bcf	3,6	;RP1=0, select bank0
 12448  00B5' 00BC'              	movwf	___flge@ff2
 12449  00B6' 120A' 118A' 2000' 120A' 118A' 	fcall	___flge
 12450  00BB' 1C03               	btfss	3,0
 12451  00BC' 2800'              	goto	u4331
 12452  00BD' 2800'              	goto	u4330
 12453  00BE'                    u4331:	
 12454  00BE' 2800'              	goto	l2846
 12455  00BF'                    u4330:	
 12456  00BF'                    l2842:	
 12457  00BF' 3040               	movlw	64
 12458  00C0' 1283               	bcf	3,5	;RP0=0, select bank0
 12459  00C1' 1303               	bcf	3,6	;RP1=0, select bank0
 12460  00C2' 008D'              	movwf	___fldiv@a+3
 12461  00C3' 3000               	movlw	0
 12462  00C4' 008C'              	movwf	___fldiv@a+2
 12463  00C5' 3000               	movlw	0
 12464  00C6' 008B'              	movwf	___fldiv@a+1
 12465  00C7' 3000               	movlw	0
 12466  00C8' 008A'              	movwf	___fldiv@a
 12467  00C9' 1683               	bsf	3,5	;RP0=1, select bank1
 12468  00CA' 1303               	bcf	3,6	;RP1=0, select bank1
 12469  00CB' 0800'              	movf	(pimf@d+3)^(0+128),w
 12470  00CC' 1283               	bcf	3,5	;RP0=0, select bank0
 12471  00CD' 1303               	bcf	3,6	;RP1=0, select bank0
 12472  00CE' 00A7'              	movwf	___fladd@b+3
 12473  00CF' 1683               	bsf	3,5	;RP0=1, select bank1
 12474  00D0' 1303               	bcf	3,6	;RP1=0, select bank1
 12475  00D1' 0800'              	movf	(pimf@d+2)^(0+128),w
 12476  00D2' 1283               	bcf	3,5	;RP0=0, select bank0
 12477  00D3' 1303               	bcf	3,6	;RP1=0, select bank0
 12478  00D4' 00A6'              	movwf	___fladd@b+2
 12479  00D5' 1683               	bsf	3,5	;RP0=1, select bank1
 12480  00D6' 1303               	bcf	3,6	;RP1=0, select bank1
 12481  00D7' 0800'              	movf	(pimf@d+1)^(0+128),w
 12482  00D8' 1283               	bcf	3,5	;RP0=0, select bank0
 12483  00D9' 1303               	bcf	3,6	;RP1=0, select bank0
 12484  00DA' 00A5'              	movwf	___fladd@b+1
 12485  00DB' 1683               	bsf	3,5	;RP0=1, select bank1
 12486  00DC' 1303               	bcf	3,6	;RP1=0, select bank1
 12487  00DD' 0800'              	movf	pimf@d^(0+128),w
 12488  00DE' 1283               	bcf	3,5	;RP0=0, select bank0
 12489  00DF' 1303               	bcf	3,6	;RP1=0, select bank0
 12490  00E0' 00A4'              	movwf	___fladd@b
 12491  00E1' 1683               	bsf	3,5	;RP0=1, select bank1
 12492  00E2' 1303               	bcf	3,6	;RP1=0, select bank1
 12493  00E3' 0800'              	movf	(pimf@c+3)^(0+128),w
 12494  00E4' 1283               	bcf	3,5	;RP0=0, select bank0
 12495  00E5' 1303               	bcf	3,6	;RP1=0, select bank0
 12496  00E6' 00AB'              	movwf	___fladd@a+3
 12497  00E7' 1683               	bsf	3,5	;RP0=1, select bank1
 12498  00E8' 1303               	bcf	3,6	;RP1=0, select bank1
 12499  00E9' 0800'              	movf	(pimf@c+2)^(0+128),w
 12500  00EA' 1283               	bcf	3,5	;RP0=0, select bank0
 12501  00EB' 1303               	bcf	3,6	;RP1=0, select bank0
 12502  00EC' 00AA'              	movwf	___fladd@a+2
 12503  00ED' 1683               	bsf	3,5	;RP0=1, select bank1
 12504  00EE' 1303               	bcf	3,6	;RP1=0, select bank1
 12505  00EF' 0800'              	movf	(pimf@c+1)^(0+128),w
 12506  00F0' 1283               	bcf	3,5	;RP0=0, select bank0
 12507  00F1' 1303               	bcf	3,6	;RP1=0, select bank0
 12508  00F2' 00A9'              	movwf	___fladd@a+1
 12509  00F3' 1683               	bsf	3,5	;RP0=1, select bank1
 12510  00F4' 1303               	bcf	3,6	;RP1=0, select bank1
 12511  00F5' 0800'              	movf	pimf@c^(0+128),w
 12512  00F6' 1283               	bcf	3,5	;RP0=0, select bank0
 12513  00F7' 1303               	bcf	3,6	;RP1=0, select bank0
 12514  00F8' 00A8'              	movwf	___fladd@a
 12515  00F9' 120A' 118A' 2000' 120A' 118A' 	fcall	___fladd
 12516  00FE' 1283               	bcf	3,5	;RP0=0, select bank0
 12517  00FF' 1303               	bcf	3,6	;RP1=0, select bank0
 12518  0100' 0827'              	movf	?___fladd+3,w
 12519  0101' 0091'              	movwf	___fldiv@b+3
 12520  0102' 0826'              	movf	?___fladd+2,w
 12521  0103' 0090'              	movwf	___fldiv@b+2
 12522  0104' 0825'              	movf	?___fladd+1,w
 12523  0105' 008F'              	movwf	___fldiv@b+1
 12524  0106' 0824'              	movf	?___fladd,w
 12525  0107' 008E'              	movwf	___fldiv@b
 12526  0108' 120A' 118A' 2000' 120A' 118A' 	fcall	___fldiv
 12527  010D' 1283               	bcf	3,5	;RP0=0, select bank0
 12528  010E' 1303               	bcf	3,6	;RP1=0, select bank0
 12529  010F' 080D'              	movf	?___fldiv+3,w
 12530  0110' 00BB'              	movwf	___flge@ff1+3
 12531  0111' 080C'              	movf	?___fldiv+2,w
 12532  0112' 00BA'              	movwf	___flge@ff1+2
 12533  0113' 080B'              	movf	?___fldiv+1,w
 12534  0114' 00B9'              	movwf	___flge@ff1+1
 12535  0115' 080A'              	movf	?___fldiv,w
 12536  0116' 00B8'              	movwf	___flge@ff1
 12537  0117' 1683               	bsf	3,5	;RP0=1, select bank1
 12538  0118' 1303               	bcf	3,6	;RP1=0, select bank1
 12539  0119' 0800'              	movf	pimf@x^(0+128),w
 12540  011A' 0089'              	movwf	___xxtofl@val
 12541  011B' 0800'              	movf	(pimf@x+1)^(0+128),w
 12542  011C' 008A'              	movwf	___xxtofl@val+1
 12543  011D' 3000               	movlw	0
 12544  011E' 1B8A'              	btfsc	___xxtofl@val+1,7
 12545  011F' 30FF               	movlw	255
 12546  0120' 008B'              	movwf	___xxtofl@val+2
 12547  0121' 008C'              	movwf	___xxtofl@val+3
 12548  0122' 3001               	movlw	1
 12549  0123' 120A' 118A' 2000' 120A' 118A' 	fcall	___xxtofl
 12550  0128' 080C'              	movf	?___xxtofl+3,w
 12551  0129' 1283               	bcf	3,5	;RP0=0, select bank0
 12552  012A' 1303               	bcf	3,6	;RP1=0, select bank0
 12553  012B' 00BF'              	movwf	___flge@ff2+3
 12554  012C' 080B'              	movf	?___xxtofl+2,w
 12555  012D' 00BE'              	movwf	___flge@ff2+2
 12556  012E' 080A'              	movf	?___xxtofl+1,w
 12557  012F' 00BD'              	movwf	___flge@ff2+1
 12558  0130' 0809'              	movf	?___xxtofl,w
 12559  0131' 00BC'              	movwf	___flge@ff2
 12560  0132' 120A' 118A' 2000' 120A' 118A' 	fcall	___flge
 12561  0137' 1C03               	btfss	3,0
 12562  0138' 2800'              	goto	u4341
 12563  0139' 2800'              	goto	u4340
 12564  013A'                    u4341:	
 12565  013A' 2800'              	goto	l2846
 12566  013B'                    u4340:	
 12567  013B'                    l2844:	
 12568                           
 12569                           ;./Fuzzy_Lib.h: 42:         f = 100-2*((x-c)/(d-c))*((x-c)/(d-c))*100;
 12570  013B' 3040               	movlw	64
 12571  013C' 1283               	bcf	3,5	;RP0=0, select bank0
 12572  013D' 1303               	bcf	3,6	;RP1=0, select bank0
 12573  013E' 00C3'              	movwf	___flmul@b+3
 12574  013F' 3000               	movlw	0
 12575  0140' 00C2'              	movwf	___flmul@b+2
 12576  0141' 3000               	movlw	0
 12577  0142' 00C1'              	movwf	___flmul@b+1
 12578  0143' 3000               	movlw	0
 12579  0144' 00C0'              	movwf	___flmul@b
 12580  0145' 1683               	bsf	3,5	;RP0=1, select bank1
 12581  0146' 1303               	bcf	3,6	;RP1=0, select bank1
 12582  0147' 0800'              	movf	(pimf@c+3)^(0+128),w
 12583  0148' 1283               	bcf	3,5	;RP0=0, select bank0
 12584  0149' 1303               	bcf	3,6	;RP1=0, select bank0
 12585  014A' 00BB'              	movwf	___flsub@a+3
 12586  014B' 1683               	bsf	3,5	;RP0=1, select bank1
 12587  014C' 1303               	bcf	3,6	;RP1=0, select bank1
 12588  014D' 0800'              	movf	(pimf@c+2)^(0+128),w
 12589  014E' 1283               	bcf	3,5	;RP0=0, select bank0
 12590  014F' 1303               	bcf	3,6	;RP1=0, select bank0
 12591  0150' 00BA'              	movwf	___flsub@a+2
 12592  0151' 1683               	bsf	3,5	;RP0=1, select bank1
 12593  0152' 1303               	bcf	3,6	;RP1=0, select bank1
 12594  0153' 0800'              	movf	(pimf@c+1)^(0+128),w
 12595  0154' 1283               	bcf	3,5	;RP0=0, select bank0
 12596  0155' 1303               	bcf	3,6	;RP1=0, select bank0
 12597  0156' 00B9'              	movwf	___flsub@a+1
 12598  0157' 1683               	bsf	3,5	;RP0=1, select bank1
 12599  0158' 1303               	bcf	3,6	;RP1=0, select bank1
 12600  0159' 0800'              	movf	pimf@c^(0+128),w
 12601  015A' 1283               	bcf	3,5	;RP0=0, select bank0
 12602  015B' 1303               	bcf	3,6	;RP1=0, select bank0
 12603  015C' 00B8'              	movwf	___flsub@a
 12604  015D' 1683               	bsf	3,5	;RP0=1, select bank1
 12605  015E' 1303               	bcf	3,6	;RP1=0, select bank1
 12606  015F' 0800'              	movf	(pimf@d+3)^(0+128),w
 12607  0160' 1283               	bcf	3,5	;RP0=0, select bank0
 12608  0161' 1303               	bcf	3,6	;RP1=0, select bank0
 12609  0162' 00BF'              	movwf	___flsub@b+3
 12610  0163' 1683               	bsf	3,5	;RP0=1, select bank1
 12611  0164' 1303               	bcf	3,6	;RP1=0, select bank1
 12612  0165' 0800'              	movf	(pimf@d+2)^(0+128),w
 12613  0166' 1283               	bcf	3,5	;RP0=0, select bank0
 12614  0167' 1303               	bcf	3,6	;RP1=0, select bank0
 12615  0168' 00BE'              	movwf	___flsub@b+2
 12616  0169' 1683               	bsf	3,5	;RP0=1, select bank1
 12617  016A' 1303               	bcf	3,6	;RP1=0, select bank1
 12618  016B' 0800'              	movf	(pimf@d+1)^(0+128),w
 12619  016C' 1283               	bcf	3,5	;RP0=0, select bank0
 12620  016D' 1303               	bcf	3,6	;RP1=0, select bank0
 12621  016E' 00BD'              	movwf	___flsub@b+1
 12622  016F' 1683               	bsf	3,5	;RP0=1, select bank1
 12623  0170' 1303               	bcf	3,6	;RP1=0, select bank1
 12624  0171' 0800'              	movf	pimf@d^(0+128),w
 12625  0172' 1283               	bcf	3,5	;RP0=0, select bank0
 12626  0173' 1303               	bcf	3,6	;RP1=0, select bank0
 12627  0174' 00BC'              	movwf	___flsub@b
 12628  0175' 120A' 118A' 2000' 120A' 118A' 	fcall	___flsub
 12629  017A' 1283               	bcf	3,5	;RP0=0, select bank0
 12630  017B' 1303               	bcf	3,6	;RP1=0, select bank0
 12631  017C' 083B'              	movf	?___flsub+3,w
 12632  017D' 008D'              	movwf	___fldiv@a+3
 12633  017E' 083A'              	movf	?___flsub+2,w
 12634  017F' 008C'              	movwf	___fldiv@a+2
 12635  0180' 0839'              	movf	?___flsub+1,w
 12636  0181' 008B'              	movwf	___fldiv@a+1
 12637  0182' 0838'              	movf	?___flsub,w
 12638  0183' 008A'              	movwf	___fldiv@a
 12639  0184' 1683               	bsf	3,5	;RP0=1, select bank1
 12640  0185' 1303               	bcf	3,6	;RP1=0, select bank1
 12641  0186' 0800'              	movf	(pimf@c+3)^(0+128),w
 12642  0187' 1283               	bcf	3,5	;RP0=0, select bank0
 12643  0188' 1303               	bcf	3,6	;RP1=0, select bank0
 12644  0189' 00BB'              	movwf	___flsub@a+3
 12645  018A' 1683               	bsf	3,5	;RP0=1, select bank1
 12646  018B' 1303               	bcf	3,6	;RP1=0, select bank1
 12647  018C' 0800'              	movf	(pimf@c+2)^(0+128),w
 12648  018D' 1283               	bcf	3,5	;RP0=0, select bank0
 12649  018E' 1303               	bcf	3,6	;RP1=0, select bank0
 12650  018F' 00BA'              	movwf	___flsub@a+2
 12651  0190' 1683               	bsf	3,5	;RP0=1, select bank1
 12652  0191' 1303               	bcf	3,6	;RP1=0, select bank1
 12653  0192' 0800'              	movf	(pimf@c+1)^(0+128),w
 12654  0193' 1283               	bcf	3,5	;RP0=0, select bank0
 12655  0194' 1303               	bcf	3,6	;RP1=0, select bank0
 12656  0195' 00B9'              	movwf	___flsub@a+1
 12657  0196' 1683               	bsf	3,5	;RP0=1, select bank1
 12658  0197' 1303               	bcf	3,6	;RP1=0, select bank1
 12659  0198' 0800'              	movf	pimf@c^(0+128),w
 12660  0199' 1283               	bcf	3,5	;RP0=0, select bank0
 12661  019A' 1303               	bcf	3,6	;RP1=0, select bank0
 12662  019B' 00B8'              	movwf	___flsub@a
 12663  019C' 1683               	bsf	3,5	;RP0=1, select bank1
 12664  019D' 1303               	bcf	3,6	;RP1=0, select bank1
 12665  019E' 0800'              	movf	pimf@x^(0+128),w
 12666  019F' 0089'              	movwf	___xxtofl@val
 12667  01A0' 0800'              	movf	(pimf@x+1)^(0+128),w
 12668  01A1' 008A'              	movwf	___xxtofl@val+1
 12669  01A2' 3000               	movlw	0
 12670  01A3' 1B8A'              	btfsc	___xxtofl@val+1,7
 12671  01A4' 30FF               	movlw	255
 12672  01A5' 008B'              	movwf	___xxtofl@val+2
 12673  01A6' 008C'              	movwf	___xxtofl@val+3
 12674  01A7' 3001               	movlw	1
 12675  01A8' 120A' 118A' 2000' 120A' 118A' 	fcall	___xxtofl
 12676  01AD' 080C'              	movf	?___xxtofl+3,w
 12677  01AE' 1283               	bcf	3,5	;RP0=0, select bank0
 12678  01AF' 1303               	bcf	3,6	;RP1=0, select bank0
 12679  01B0' 00BF'              	movwf	___flsub@b+3
 12680  01B1' 080B'              	movf	?___xxtofl+2,w
 12681  01B2' 00BE'              	movwf	___flsub@b+2
 12682  01B3' 080A'              	movf	?___xxtofl+1,w
 12683  01B4' 00BD'              	movwf	___flsub@b+1
 12684  01B5' 0809'              	movf	?___xxtofl,w
 12685  01B6' 00BC'              	movwf	___flsub@b
 12686  01B7' 120A' 118A' 2000' 120A' 118A' 	fcall	___flsub
 12687  01BC' 1283               	bcf	3,5	;RP0=0, select bank0
 12688  01BD' 1303               	bcf	3,6	;RP1=0, select bank0
 12689  01BE' 083B'              	movf	?___flsub+3,w
 12690  01BF' 0091'              	movwf	___fldiv@b+3
 12691  01C0' 083A'              	movf	?___flsub+2,w
 12692  01C1' 0090'              	movwf	___fldiv@b+2
 12693  01C2' 0839'              	movf	?___flsub+1,w
 12694  01C3' 008F'              	movwf	___fldiv@b+1
 12695  01C4' 0838'              	movf	?___flsub,w
 12696  01C5' 008E'              	movwf	___fldiv@b
 12697  01C6' 120A' 118A' 2000' 120A' 118A' 	fcall	___fldiv
 12698  01CB' 1283               	bcf	3,5	;RP0=0, select bank0
 12699  01CC' 1303               	bcf	3,6	;RP1=0, select bank0
 12700  01CD' 080D'              	movf	?___fldiv+3,w
 12701  01CE' 00C7'              	movwf	___flmul@a+3
 12702  01CF' 080C'              	movf	?___fldiv+2,w
 12703  01D0' 00C6'              	movwf	___flmul@a+2
 12704  01D1' 080B'              	movf	?___fldiv+1,w
 12705  01D2' 00C5'              	movwf	___flmul@a+1
 12706  01D3' 080A'              	movf	?___fldiv,w
 12707  01D4' 00C4'              	movwf	___flmul@a
 12708  01D5' 120A' 118A' 2000' 120A' 118A' 	fcall	___flmul
 12709  01DA' 1283               	bcf	3,5	;RP0=0, select bank0
 12710  01DB' 1303               	bcf	3,6	;RP1=0, select bank0
 12711  01DC' 0843'              	movf	?___flmul+3,w
 12712  01DD' 1683               	bsf	3,5	;RP0=1, select bank1
 12713  01DE' 1303               	bcf	3,6	;RP1=0, select bank1
 12714  01DF' 0080'              	movwf	(_pimf$823+3)^(0+128)
 12715  01E0' 1283               	bcf	3,5	;RP0=0, select bank0
 12716  01E1' 1303               	bcf	3,6	;RP1=0, select bank0
 12717  01E2' 0842'              	movf	?___flmul+2,w
 12718  01E3' 1683               	bsf	3,5	;RP0=1, select bank1
 12719  01E4' 1303               	bcf	3,6	;RP1=0, select bank1
 12720  01E5' 0080'              	movwf	(_pimf$823+2)^(0+128)
 12721  01E6' 1283               	bcf	3,5	;RP0=0, select bank0
 12722  01E7' 1303               	bcf	3,6	;RP1=0, select bank0
 12723  01E8' 0841'              	movf	?___flmul+1,w
 12724  01E9' 1683               	bsf	3,5	;RP0=1, select bank1
 12725  01EA' 1303               	bcf	3,6	;RP1=0, select bank1
 12726  01EB' 0080'              	movwf	(_pimf$823+1)^(0+128)
 12727  01EC' 1283               	bcf	3,5	;RP0=0, select bank0
 12728  01ED' 1303               	bcf	3,6	;RP1=0, select bank0
 12729  01EE' 0840'              	movf	?___flmul,w
 12730  01EF' 1683               	bsf	3,5	;RP0=1, select bank1
 12731  01F0' 1303               	bcf	3,6	;RP1=0, select bank1
 12732  01F1' 0080'              	movwf	_pimf$823^(0+128)
 12733                           
 12734                           ;./Fuzzy_Lib.h: 42:         f = 100-2*((x-c)/(d-c))*((x-c)/(d-c))*100;
 12735  01F2' 0800'              	movf	(pimf@c+3)^(0+128),w
 12736  01F3' 1283               	bcf	3,5	;RP0=0, select bank0
 12737  01F4' 1303               	bcf	3,6	;RP1=0, select bank0
 12738  01F5' 00BB'              	movwf	___flsub@a+3
 12739  01F6' 1683               	bsf	3,5	;RP0=1, select bank1
 12740  01F7' 1303               	bcf	3,6	;RP1=0, select bank1
 12741  01F8' 0800'              	movf	(pimf@c+2)^(0+128),w
 12742  01F9' 1283               	bcf	3,5	;RP0=0, select bank0
 12743  01FA' 1303               	bcf	3,6	;RP1=0, select bank0
 12744  01FB' 00BA'              	movwf	___flsub@a+2
 12745  01FC' 1683               	bsf	3,5	;RP0=1, select bank1
 12746  01FD' 1303               	bcf	3,6	;RP1=0, select bank1
 12747  01FE' 0800'              	movf	(pimf@c+1)^(0+128),w
 12748  01FF' 1283               	bcf	3,5	;RP0=0, select bank0
 12749  0200' 1303               	bcf	3,6	;RP1=0, select bank0
 12750  0201' 00B9'              	movwf	___flsub@a+1
 12751  0202' 1683               	bsf	3,5	;RP0=1, select bank1
 12752  0203' 1303               	bcf	3,6	;RP1=0, select bank1
 12753  0204' 0800'              	movf	pimf@c^(0+128),w
 12754  0205' 1283               	bcf	3,5	;RP0=0, select bank0
 12755  0206' 1303               	bcf	3,6	;RP1=0, select bank0
 12756  0207' 00B8'              	movwf	___flsub@a
 12757  0208' 1683               	bsf	3,5	;RP0=1, select bank1
 12758  0209' 1303               	bcf	3,6	;RP1=0, select bank1
 12759  020A' 0800'              	movf	(pimf@d+3)^(0+128),w
 12760  020B' 1283               	bcf	3,5	;RP0=0, select bank0
 12761  020C' 1303               	bcf	3,6	;RP1=0, select bank0
 12762  020D' 00BF'              	movwf	___flsub@b+3
 12763  020E' 1683               	bsf	3,5	;RP0=1, select bank1
 12764  020F' 1303               	bcf	3,6	;RP1=0, select bank1
 12765  0210' 0800'              	movf	(pimf@d+2)^(0+128),w
 12766  0211' 1283               	bcf	3,5	;RP0=0, select bank0
 12767  0212' 1303               	bcf	3,6	;RP1=0, select bank0
 12768  0213' 00BE'              	movwf	___flsub@b+2
 12769  0214' 1683               	bsf	3,5	;RP0=1, select bank1
 12770  0215' 1303               	bcf	3,6	;RP1=0, select bank1
 12771  0216' 0800'              	movf	(pimf@d+1)^(0+128),w
 12772  0217' 1283               	bcf	3,5	;RP0=0, select bank0
 12773  0218' 1303               	bcf	3,6	;RP1=0, select bank0
 12774  0219' 00BD'              	movwf	___flsub@b+1
 12775  021A' 1683               	bsf	3,5	;RP0=1, select bank1
 12776  021B' 1303               	bcf	3,6	;RP1=0, select bank1
 12777  021C' 0800'              	movf	pimf@d^(0+128),w
 12778  021D' 1283               	bcf	3,5	;RP0=0, select bank0
 12779  021E' 1303               	bcf	3,6	;RP1=0, select bank0
 12780  021F' 00BC'              	movwf	___flsub@b
 12781  0220' 120A' 118A' 2000' 120A' 118A' 	fcall	___flsub
 12782  0225' 1283               	bcf	3,5	;RP0=0, select bank0
 12783  0226' 1303               	bcf	3,6	;RP1=0, select bank0
 12784  0227' 083B'              	movf	?___flsub+3,w
 12785  0228' 008D'              	movwf	___fldiv@a+3
 12786  0229' 083A'              	movf	?___flsub+2,w
 12787  022A' 008C'              	movwf	___fldiv@a+2
 12788  022B' 0839'              	movf	?___flsub+1,w
 12789  022C' 008B'              	movwf	___fldiv@a+1
 12790  022D' 0838'              	movf	?___flsub,w
 12791  022E' 008A'              	movwf	___fldiv@a
 12792  022F' 1683               	bsf	3,5	;RP0=1, select bank1
 12793  0230' 1303               	bcf	3,6	;RP1=0, select bank1
 12794  0231' 0800'              	movf	(pimf@c+3)^(0+128),w
 12795  0232' 1283               	bcf	3,5	;RP0=0, select bank0
 12796  0233' 1303               	bcf	3,6	;RP1=0, select bank0
 12797  0234' 00BB'              	movwf	___flsub@a+3
 12798  0235' 1683               	bsf	3,5	;RP0=1, select bank1
 12799  0236' 1303               	bcf	3,6	;RP1=0, select bank1
 12800  0237' 0800'              	movf	(pimf@c+2)^(0+128),w
 12801  0238' 1283               	bcf	3,5	;RP0=0, select bank0
 12802  0239' 1303               	bcf	3,6	;RP1=0, select bank0
 12803  023A' 00BA'              	movwf	___flsub@a+2
 12804  023B' 1683               	bsf	3,5	;RP0=1, select bank1
 12805  023C' 1303               	bcf	3,6	;RP1=0, select bank1
 12806  023D' 0800'              	movf	(pimf@c+1)^(0+128),w
 12807  023E' 1283               	bcf	3,5	;RP0=0, select bank0
 12808  023F' 1303               	bcf	3,6	;RP1=0, select bank0
 12809  0240' 00B9'              	movwf	___flsub@a+1
 12810  0241' 1683               	bsf	3,5	;RP0=1, select bank1
 12811  0242' 1303               	bcf	3,6	;RP1=0, select bank1
 12812  0243' 0800'              	movf	pimf@c^(0+128),w
 12813  0244' 1283               	bcf	3,5	;RP0=0, select bank0
 12814  0245' 1303               	bcf	3,6	;RP1=0, select bank0
 12815  0246' 00B8'              	movwf	___flsub@a
 12816  0247' 1683               	bsf	3,5	;RP0=1, select bank1
 12817  0248' 1303               	bcf	3,6	;RP1=0, select bank1
 12818  0249' 0800'              	movf	pimf@x^(0+128),w
 12819  024A' 0089'              	movwf	___xxtofl@val
 12820  024B' 0800'              	movf	(pimf@x+1)^(0+128),w
 12821  024C' 008A'              	movwf	___xxtofl@val+1
 12822  024D' 3000               	movlw	0
 12823  024E' 1B8A'              	btfsc	___xxtofl@val+1,7
 12824  024F' 30FF               	movlw	255
 12825  0250' 008B'              	movwf	___xxtofl@val+2
 12826  0251' 008C'              	movwf	___xxtofl@val+3
 12827  0252' 3001               	movlw	1
 12828  0253' 120A' 118A' 2000' 120A' 118A' 	fcall	___xxtofl
 12829  0258' 080C'              	movf	?___xxtofl+3,w
 12830  0259' 1283               	bcf	3,5	;RP0=0, select bank0
 12831  025A' 1303               	bcf	3,6	;RP1=0, select bank0
 12832  025B' 00BF'              	movwf	___flsub@b+3
 12833  025C' 080B'              	movf	?___xxtofl+2,w
 12834  025D' 00BE'              	movwf	___flsub@b+2
 12835  025E' 080A'              	movf	?___xxtofl+1,w
 12836  025F' 00BD'              	movwf	___flsub@b+1
 12837  0260' 0809'              	movf	?___xxtofl,w
 12838  0261' 00BC'              	movwf	___flsub@b
 12839  0262' 120A' 118A' 2000' 120A' 118A' 	fcall	___flsub
 12840  0267' 1283               	bcf	3,5	;RP0=0, select bank0
 12841  0268' 1303               	bcf	3,6	;RP1=0, select bank0
 12842  0269' 083B'              	movf	?___flsub+3,w
 12843  026A' 0091'              	movwf	___fldiv@b+3
 12844  026B' 083A'              	movf	?___flsub+2,w
 12845  026C' 0090'              	movwf	___fldiv@b+2
 12846  026D' 0839'              	movf	?___flsub+1,w
 12847  026E' 008F'              	movwf	___fldiv@b+1
 12848  026F' 0838'              	movf	?___flsub,w
 12849  0270' 008E'              	movwf	___fldiv@b
 12850  0271' 120A' 118A' 2000' 120A' 118A' 	fcall	___fldiv
 12851  0276' 1283               	bcf	3,5	;RP0=0, select bank0
 12852  0277' 1303               	bcf	3,6	;RP1=0, select bank0
 12853  0278' 080D'              	movf	?___fldiv+3,w
 12854  0279' 00C3'              	movwf	___flmul@b+3
 12855  027A' 080C'              	movf	?___fldiv+2,w
 12856  027B' 00C2'              	movwf	___flmul@b+2
 12857  027C' 080B'              	movf	?___fldiv+1,w
 12858  027D' 00C1'              	movwf	___flmul@b+1
 12859  027E' 080A'              	movf	?___fldiv,w
 12860  027F' 00C0'              	movwf	___flmul@b
 12861  0280' 1683               	bsf	3,5	;RP0=1, select bank1
 12862  0281' 1303               	bcf	3,6	;RP1=0, select bank1
 12863  0282' 0800'              	movf	(_pimf$823+3)^(0+128),w
 12864  0283' 1283               	bcf	3,5	;RP0=0, select bank0
 12865  0284' 1303               	bcf	3,6	;RP1=0, select bank0
 12866  0285' 00C7'              	movwf	___flmul@a+3
 12867  0286' 1683               	bsf	3,5	;RP0=1, select bank1
 12868  0287' 1303               	bcf	3,6	;RP1=0, select bank1
 12869  0288' 0800'              	movf	(_pimf$823+2)^(0+128),w
 12870  0289' 1283               	bcf	3,5	;RP0=0, select bank0
 12871  028A' 1303               	bcf	3,6	;RP1=0, select bank0
 12872  028B' 00C6'              	movwf	___flmul@a+2
 12873  028C' 1683               	bsf	3,5	;RP0=1, select bank1
 12874  028D' 1303               	bcf	3,6	;RP1=0, select bank1
 12875  028E' 0800'              	movf	(_pimf$823+1)^(0+128),w
 12876  028F' 1283               	bcf	3,5	;RP0=0, select bank0
 12877  0290' 1303               	bcf	3,6	;RP1=0, select bank0
 12878  0291' 00C5'              	movwf	___flmul@a+1
 12879  0292' 1683               	bsf	3,5	;RP0=1, select bank1
 12880  0293' 1303               	bcf	3,6	;RP1=0, select bank1
 12881  0294' 0800'              	movf	_pimf$823^(0+128),w
 12882  0295' 1283               	bcf	3,5	;RP0=0, select bank0
 12883  0296' 1303               	bcf	3,6	;RP1=0, select bank0
 12884  0297' 00C4'              	movwf	___flmul@a
 12885  0298' 120A' 118A' 2000' 120A' 118A' 	fcall	___flmul
 12886  029D' 1283               	bcf	3,5	;RP0=0, select bank0
 12887  029E' 1303               	bcf	3,6	;RP1=0, select bank0
 12888  029F' 0843'              	movf	?___flmul+3,w
 12889  02A0' 1683               	bsf	3,5	;RP0=1, select bank1
 12890  02A1' 1303               	bcf	3,6	;RP1=0, select bank1
 12891  02A2' 0080'              	movwf	(_pimf$824+3)^(0+128)
 12892  02A3' 1283               	bcf	3,5	;RP0=0, select bank0
 12893  02A4' 1303               	bcf	3,6	;RP1=0, select bank0
 12894  02A5' 0842'              	movf	?___flmul+2,w
 12895  02A6' 1683               	bsf	3,5	;RP0=1, select bank1
 12896  02A7' 1303               	bcf	3,6	;RP1=0, select bank1
 12897  02A8' 0080'              	movwf	(_pimf$824+2)^(0+128)
 12898  02A9' 1283               	bcf	3,5	;RP0=0, select bank0
 12899  02AA' 1303               	bcf	3,6	;RP1=0, select bank0
 12900  02AB' 0841'              	movf	?___flmul+1,w
 12901  02AC' 1683               	bsf	3,5	;RP0=1, select bank1
 12902  02AD' 1303               	bcf	3,6	;RP1=0, select bank1
 12903  02AE' 0080'              	movwf	(_pimf$824+1)^(0+128)
 12904  02AF' 1283               	bcf	3,5	;RP0=0, select bank0
 12905  02B0' 1303               	bcf	3,6	;RP1=0, select bank0
 12906  02B1' 0840'              	movf	?___flmul,w
 12907  02B2' 1683               	bsf	3,5	;RP0=1, select bank1
 12908  02B3' 1303               	bcf	3,6	;RP1=0, select bank1
 12909  02B4' 0080'              	movwf	_pimf$824^(0+128)
 12910                           
 12911                           ;./Fuzzy_Lib.h: 42:         f = 100-2*((x-c)/(d-c))*((x-c)/(d-c))*100;
 12912  02B5' 3042               	movlw	66
 12913  02B6' 1283               	bcf	3,5	;RP0=0, select bank0
 12914  02B7' 1303               	bcf	3,6	;RP1=0, select bank0
 12915  02B8' 00C3'              	movwf	___flmul@b+3
 12916  02B9' 30C8               	movlw	200
 12917  02BA' 00C2'              	movwf	___flmul@b+2
 12918  02BB' 3000               	movlw	0
 12919  02BC' 00C1'              	movwf	___flmul@b+1
 12920  02BD' 3000               	movlw	0
 12921  02BE' 00C0'              	movwf	___flmul@b
 12922  02BF' 1683               	bsf	3,5	;RP0=1, select bank1
 12923  02C0' 1303               	bcf	3,6	;RP1=0, select bank1
 12924  02C1' 0800'              	movf	(_pimf$824+3)^(0+128),w
 12925  02C2' 1283               	bcf	3,5	;RP0=0, select bank0
 12926  02C3' 1303               	bcf	3,6	;RP1=0, select bank0
 12927  02C4' 00C7'              	movwf	___flmul@a+3
 12928  02C5' 1683               	bsf	3,5	;RP0=1, select bank1
 12929  02C6' 1303               	bcf	3,6	;RP1=0, select bank1
 12930  02C7' 0800'              	movf	(_pimf$824+2)^(0+128),w
 12931  02C8' 1283               	bcf	3,5	;RP0=0, select bank0
 12932  02C9' 1303               	bcf	3,6	;RP1=0, select bank0
 12933  02CA' 00C6'              	movwf	___flmul@a+2
 12934  02CB' 1683               	bsf	3,5	;RP0=1, select bank1
 12935  02CC' 1303               	bcf	3,6	;RP1=0, select bank1
 12936  02CD' 0800'              	movf	(_pimf$824+1)^(0+128),w
 12937  02CE' 1283               	bcf	3,5	;RP0=0, select bank0
 12938  02CF' 1303               	bcf	3,6	;RP1=0, select bank0
 12939  02D0' 00C5'              	movwf	___flmul@a+1
 12940  02D1' 1683               	bsf	3,5	;RP0=1, select bank1
 12941  02D2' 1303               	bcf	3,6	;RP1=0, select bank1
 12942  02D3' 0800'              	movf	_pimf$824^(0+128),w
 12943  02D4' 1283               	bcf	3,5	;RP0=0, select bank0
 12944  02D5' 1303               	bcf	3,6	;RP1=0, select bank0
 12945  02D6' 00C4'              	movwf	___flmul@a
 12946  02D7' 120A' 118A' 2000' 120A' 118A' 	fcall	___flmul
 12947  02DC' 1283               	bcf	3,5	;RP0=0, select bank0
 12948  02DD' 1303               	bcf	3,6	;RP1=0, select bank0
 12949  02DE' 0843'              	movf	?___flmul+3,w
 12950  02DF' 00BB'              	movwf	___flsub@a+3
 12951  02E0' 0842'              	movf	?___flmul+2,w
 12952  02E1' 00BA'              	movwf	___flsub@a+2
 12953  02E2' 0841'              	movf	?___flmul+1,w
 12954  02E3' 00B9'              	movwf	___flsub@a+1
 12955  02E4' 0840'              	movf	?___flmul,w
 12956  02E5' 00B8'              	movwf	___flsub@a
 12957  02E6' 3042               	movlw	66
 12958  02E7' 00BF'              	movwf	___flsub@b+3
 12959  02E8' 30C8               	movlw	200
 12960  02E9' 00BE'              	movwf	___flsub@b+2
 12961  02EA' 3000               	movlw	0
 12962  02EB' 00BD'              	movwf	___flsub@b+1
 12963  02EC' 3000               	movlw	0
 12964  02ED' 00BC'              	movwf	___flsub@b
 12965  02EE' 120A' 118A' 2000' 120A' 118A' 	fcall	___flsub
 12966  02F3' 1283               	bcf	3,5	;RP0=0, select bank0
 12967  02F4' 1303               	bcf	3,6	;RP1=0, select bank0
 12968  02F5' 083B'              	movf	?___flsub+3,w
 12969  02F6' 1683               	bsf	3,5	;RP0=1, select bank3
 12970  02F7' 1703               	bsf	3,6	;RP1=1, select bank3
 12971  02F8' 0080'              	movwf	(_f+3)^(0+384)
 12972  02F9' 1283               	bcf	3,5	;RP0=0, select bank0
 12973  02FA' 1303               	bcf	3,6	;RP1=0, select bank0
 12974  02FB' 083A'              	movf	?___flsub+2,w
 12975  02FC' 1683               	bsf	3,5	;RP0=1, select bank3
 12976  02FD' 1703               	bsf	3,6	;RP1=1, select bank3
 12977  02FE' 0080'              	movwf	(_f+2)^(0+384)
 12978  02FF' 1283               	bcf	3,5	;RP0=0, select bank0
 12979  0300' 1303               	bcf	3,6	;RP1=0, select bank0
 12980  0301' 0839'              	movf	?___flsub+1,w
 12981  0302' 1683               	bsf	3,5	;RP0=1, select bank3
 12982  0303' 1703               	bsf	3,6	;RP1=1, select bank3
 12983  0304' 0080'              	movwf	(_f+1)^(0+384)
 12984  0305' 1283               	bcf	3,5	;RP0=0, select bank0
 12985  0306' 1303               	bcf	3,6	;RP1=0, select bank0
 12986  0307' 0838'              	movf	?___flsub,w
 12987  0308' 1683               	bsf	3,5	;RP0=1, select bank3
 12988  0309' 1703               	bsf	3,6	;RP1=1, select bank3
 12989  030A' 0080'              	movwf	_f^(0+384)
 12990                           
 12991                           ;./Fuzzy_Lib.h: 43:     }
 12992  030B' 2800'              	goto	l2856
 12993  030C'                    l2846:	
 12994  030C' 1683               	bsf	3,5	;RP0=1, select bank1
 12995  030D' 1303               	bcf	3,6	;RP1=0, select bank1
 12996  030E' 0800'              	movf	pimf@x^(0+128),w
 12997  030F' 0089'              	movwf	___xxtofl@val
 12998  0310' 0800'              	movf	(pimf@x+1)^(0+128),w
 12999  0311' 008A'              	movwf	___xxtofl@val+1
 13000  0312' 3000               	movlw	0
 13001  0313' 1B8A'              	btfsc	___xxtofl@val+1,7
 13002  0314' 30FF               	movlw	255
 13003  0315' 008B'              	movwf	___xxtofl@val+2
 13004  0316' 008C'              	movwf	___xxtofl@val+3
 13005  0317' 3001               	movlw	1
 13006  0318' 120A' 118A' 2000' 120A' 118A' 	fcall	___xxtofl
 13007  031D' 080C'              	movf	?___xxtofl+3,w
 13008  031E' 1283               	bcf	3,5	;RP0=0, select bank0
 13009  031F' 1303               	bcf	3,6	;RP1=0, select bank0
 13010  0320' 00BB'              	movwf	___flge@ff1+3
 13011  0321' 080B'              	movf	?___xxtofl+2,w
 13012  0322' 00BA'              	movwf	___flge@ff1+2
 13013  0323' 080A'              	movf	?___xxtofl+1,w
 13014  0324' 00B9'              	movwf	___flge@ff1+1
 13015  0325' 0809'              	movf	?___xxtofl,w
 13016  0326' 00B8'              	movwf	___flge@ff1
 13017  0327' 1683               	bsf	3,5	;RP0=1, select bank1
 13018  0328' 1303               	bcf	3,6	;RP1=0, select bank1
 13019  0329' 0800'              	movf	(pimf@c+3)^(0+128),w
 13020  032A' 1283               	bcf	3,5	;RP0=0, select bank0
 13021  032B' 1303               	bcf	3,6	;RP1=0, select bank0
 13022  032C' 00AB'              	movwf	___fladd@a+3
 13023  032D' 1683               	bsf	3,5	;RP0=1, select bank1
 13024  032E' 1303               	bcf	3,6	;RP1=0, select bank1
 13025  032F' 0800'              	movf	(pimf@c+2)^(0+128),w
 13026  0330' 1283               	bcf	3,5	;RP0=0, select bank0
 13027  0331' 1303               	bcf	3,6	;RP1=0, select bank0
 13028  0332' 00AA'              	movwf	___fladd@a+2
 13029  0333' 1683               	bsf	3,5	;RP0=1, select bank1
 13030  0334' 1303               	bcf	3,6	;RP1=0, select bank1
 13031  0335' 0800'              	movf	(pimf@c+1)^(0+128),w
 13032  0336' 1283               	bcf	3,5	;RP0=0, select bank0
 13033  0337' 1303               	bcf	3,6	;RP1=0, select bank0
 13034  0338' 00A9'              	movwf	___fladd@a+1
 13035  0339' 1683               	bsf	3,5	;RP0=1, select bank1
 13036  033A' 1303               	bcf	3,6	;RP1=0, select bank1
 13037  033B' 0800'              	movf	pimf@c^(0+128),w
 13038  033C' 1283               	bcf	3,5	;RP0=0, select bank0
 13039  033D' 1303               	bcf	3,6	;RP1=0, select bank0
 13040  033E' 00A8'              	movwf	___fladd@a
 13041  033F' 1683               	bsf	3,5	;RP0=1, select bank1
 13042  0340' 1303               	bcf	3,6	;RP1=0, select bank1
 13043  0341' 0800'              	movf	(pimf@d+3)^(0+128),w
 13044  0342' 1283               	bcf	3,5	;RP0=0, select bank0
 13045  0343' 1303               	bcf	3,6	;RP1=0, select bank0
 13046  0344' 00A7'              	movwf	___fladd@b+3
 13047  0345' 1683               	bsf	3,5	;RP0=1, select bank1
 13048  0346' 1303               	bcf	3,6	;RP1=0, select bank1
 13049  0347' 0800'              	movf	(pimf@d+2)^(0+128),w
 13050  0348' 1283               	bcf	3,5	;RP0=0, select bank0
 13051  0349' 1303               	bcf	3,6	;RP1=0, select bank0
 13052  034A' 00A6'              	movwf	___fladd@b+2
 13053  034B' 1683               	bsf	3,5	;RP0=1, select bank1
 13054  034C' 1303               	bcf	3,6	;RP1=0, select bank1
 13055  034D' 0800'              	movf	(pimf@d+1)^(0+128),w
 13056  034E' 1283               	bcf	3,5	;RP0=0, select bank0
 13057  034F' 1303               	bcf	3,6	;RP1=0, select bank0
 13058  0350' 00A5'              	movwf	___fladd@b+1
 13059  0351' 1683               	bsf	3,5	;RP0=1, select bank1
 13060  0352' 1303               	bcf	3,6	;RP1=0, select bank1
 13061  0353' 0800'              	movf	pimf@d^(0+128),w
 13062  0354' 1283               	bcf	3,5	;RP0=0, select bank0
 13063  0355' 1303               	bcf	3,6	;RP1=0, select bank0
 13064  0356' 00A4'              	movwf	___fladd@b
 13065  0357' 120A' 118A' 2000' 120A' 118A' 	fcall	___fladd
 13066  035C' 1283               	bcf	3,5	;RP0=0, select bank0
 13067  035D' 1303               	bcf	3,6	;RP1=0, select bank0
 13068  035E' 0827'              	movf	?___fladd+3,w
 13069  035F' 0091'              	movwf	___fldiv@b+3
 13070  0360' 0826'              	movf	?___fladd+2,w
 13071  0361' 0090'              	movwf	___fldiv@b+2
 13072  0362' 0825'              	movf	?___fladd+1,w
 13073  0363' 008F'              	movwf	___fldiv@b+1
 13074  0364' 0824'              	movf	?___fladd,w
 13075  0365' 008E'              	movwf	___fldiv@b
 13076  0366' 3040               	movlw	64
 13077  0367' 008D'              	movwf	___fldiv@a+3
 13078  0368' 3000               	movlw	0
 13079  0369' 008C'              	movwf	___fldiv@a+2
 13080  036A' 3000               	movlw	0
 13081  036B' 008B'              	movwf	___fldiv@a+1
 13082  036C' 3000               	movlw	0
 13083  036D' 008A'              	movwf	___fldiv@a
 13084  036E' 120A' 118A' 2000' 120A' 118A' 	fcall	___fldiv
 13085  0373' 1283               	bcf	3,5	;RP0=0, select bank0
 13086  0374' 1303               	bcf	3,6	;RP1=0, select bank0
 13087  0375' 080D'              	movf	?___fldiv+3,w
 13088  0376' 00BF'              	movwf	___flge@ff2+3
 13089  0377' 080C'              	movf	?___fldiv+2,w
 13090  0378' 00BE'              	movwf	___flge@ff2+2
 13091  0379' 080B'              	movf	?___fldiv+1,w
 13092  037A' 00BD'              	movwf	___flge@ff2+1
 13093  037B' 080A'              	movf	?___fldiv,w
 13094  037C' 00BC'              	movwf	___flge@ff2
 13095  037D' 120A' 118A' 2000' 120A' 118A' 	fcall	___flge
 13096  0382' 1C03               	btfss	3,0
 13097  0383' 2800'              	goto	u4351
 13098  0384' 2800'              	goto	u4350
 13099  0385'                    u4351:	
 13100  0385' 2800'              	goto	l2852
 13101  0386'                    u4350:	
 13102  0386'                    l2848:	
 13103  0386' 1683               	bsf	3,5	;RP0=1, select bank1
 13104  0387' 1303               	bcf	3,6	;RP1=0, select bank1
 13105  0388' 0800'              	movf	(pimf@d+3)^(0+128),w
 13106  0389' 1283               	bcf	3,5	;RP0=0, select bank0
 13107  038A' 1303               	bcf	3,6	;RP1=0, select bank0
 13108  038B' 00BB'              	movwf	___flge@ff1+3
 13109  038C' 1683               	bsf	3,5	;RP0=1, select bank1
 13110  038D' 1303               	bcf	3,6	;RP1=0, select bank1
 13111  038E' 0800'              	movf	(pimf@d+2)^(0+128),w
 13112  038F' 1283               	bcf	3,5	;RP0=0, select bank0
 13113  0390' 1303               	bcf	3,6	;RP1=0, select bank0
 13114  0391' 00BA'              	movwf	___flge@ff1+2
 13115  0392' 1683               	bsf	3,5	;RP0=1, select bank1
 13116  0393' 1303               	bcf	3,6	;RP1=0, select bank1
 13117  0394' 0800'              	movf	(pimf@d+1)^(0+128),w
 13118  0395' 1283               	bcf	3,5	;RP0=0, select bank0
 13119  0396' 1303               	bcf	3,6	;RP1=0, select bank0
 13120  0397' 00B9'              	movwf	___flge@ff1+1
 13121  0398' 1683               	bsf	3,5	;RP0=1, select bank1
 13122  0399' 1303               	bcf	3,6	;RP1=0, select bank1
 13123  039A' 0800'              	movf	pimf@d^(0+128),w
 13124  039B' 1283               	bcf	3,5	;RP0=0, select bank0
 13125  039C' 1303               	bcf	3,6	;RP1=0, select bank0
 13126  039D' 00B8'              	movwf	___flge@ff1
 13127  039E' 1683               	bsf	3,5	;RP0=1, select bank1
 13128  039F' 1303               	bcf	3,6	;RP1=0, select bank1
 13129  03A0' 0800'              	movf	pimf@x^(0+128),w
 13130  03A1' 0089'              	movwf	___xxtofl@val
 13131  03A2' 0800'              	movf	(pimf@x+1)^(0+128),w
 13132  03A3' 008A'              	movwf	___xxtofl@val+1
 13133  03A4' 3000               	movlw	0
 13134  03A5' 1B8A'              	btfsc	___xxtofl@val+1,7
 13135  03A6' 30FF               	movlw	255
 13136  03A7' 008B'              	movwf	___xxtofl@val+2
 13137  03A8' 008C'              	movwf	___xxtofl@val+3
 13138  03A9' 3001               	movlw	1
 13139  03AA' 120A' 118A' 2000' 120A' 118A' 	fcall	___xxtofl
 13140  03AF' 080C'              	movf	?___xxtofl+3,w
 13141  03B0' 1283               	bcf	3,5	;RP0=0, select bank0
 13142  03B1' 1303               	bcf	3,6	;RP1=0, select bank0
 13143  03B2' 00BF'              	movwf	___flge@ff2+3
 13144  03B3' 080B'              	movf	?___xxtofl+2,w
 13145  03B4' 00BE'              	movwf	___flge@ff2+2
 13146  03B5' 080A'              	movf	?___xxtofl+1,w
 13147  03B6' 00BD'              	movwf	___flge@ff2+1
 13148  03B7' 0809'              	movf	?___xxtofl,w
 13149  03B8' 00BC'              	movwf	___flge@ff2
 13150  03B9' 120A' 118A' 2000' 120A' 118A' 	fcall	___flge
 13151  03BE' 1C03               	btfss	3,0
 13152  03BF' 2800'              	goto	u4361
 13153  03C0' 2800'              	goto	u4360
 13154  03C1'                    u4361:	
 13155  03C1' 2800'              	goto	l2852
 13156  03C2'                    u4360:	
 13157  03C2'                    l2850:	
 13158                           
 13159                           ;./Fuzzy_Lib.h: 45:         f = 2*((x-c)/(d-c))*((x-c)/(d-c))*100;
 13160  03C2' 3040               	movlw	64
 13161  03C3' 1283               	bcf	3,5	;RP0=0, select bank0
 13162  03C4' 1303               	bcf	3,6	;RP1=0, select bank0
 13163  03C5' 00C3'              	movwf	___flmul@b+3
 13164  03C6' 3000               	movlw	0
 13165  03C7' 00C2'              	movwf	___flmul@b+2
 13166  03C8' 3000               	movlw	0
 13167  03C9' 00C1'              	movwf	___flmul@b+1
 13168  03CA' 3000               	movlw	0
 13169  03CB' 00C0'              	movwf	___flmul@b
 13170  03CC' 1683               	bsf	3,5	;RP0=1, select bank1
 13171  03CD' 1303               	bcf	3,6	;RP1=0, select bank1
 13172  03CE' 0800'              	movf	(pimf@c+3)^(0+128),w
 13173  03CF' 1283               	bcf	3,5	;RP0=0, select bank0
 13174  03D0' 1303               	bcf	3,6	;RP1=0, select bank0
 13175  03D1' 00BB'              	movwf	___flsub@a+3
 13176  03D2' 1683               	bsf	3,5	;RP0=1, select bank1
 13177  03D3' 1303               	bcf	3,6	;RP1=0, select bank1
 13178  03D4' 0800'              	movf	(pimf@c+2)^(0+128),w
 13179  03D5' 1283               	bcf	3,5	;RP0=0, select bank0
 13180  03D6' 1303               	bcf	3,6	;RP1=0, select bank0
 13181  03D7' 00BA'              	movwf	___flsub@a+2
 13182  03D8' 1683               	bsf	3,5	;RP0=1, select bank1
 13183  03D9' 1303               	bcf	3,6	;RP1=0, select bank1
 13184  03DA' 0800'              	movf	(pimf@c+1)^(0+128),w
 13185  03DB' 1283               	bcf	3,5	;RP0=0, select bank0
 13186  03DC' 1303               	bcf	3,6	;RP1=0, select bank0
 13187  03DD' 00B9'              	movwf	___flsub@a+1
 13188  03DE' 1683               	bsf	3,5	;RP0=1, select bank1
 13189  03DF' 1303               	bcf	3,6	;RP1=0, select bank1
 13190  03E0' 0800'              	movf	pimf@c^(0+128),w
 13191  03E1' 1283               	bcf	3,5	;RP0=0, select bank0
 13192  03E2' 1303               	bcf	3,6	;RP1=0, select bank0
 13193  03E3' 00B8'              	movwf	___flsub@a
 13194  03E4' 1683               	bsf	3,5	;RP0=1, select bank1
 13195  03E5' 1303               	bcf	3,6	;RP1=0, select bank1
 13196  03E6' 0800'              	movf	(pimf@d+3)^(0+128),w
 13197  03E7' 1283               	bcf	3,5	;RP0=0, select bank0
 13198  03E8' 1303               	bcf	3,6	;RP1=0, select bank0
 13199  03E9' 00BF'              	movwf	___flsub@b+3
 13200  03EA' 1683               	bsf	3,5	;RP0=1, select bank1
 13201  03EB' 1303               	bcf	3,6	;RP1=0, select bank1
 13202  03EC' 0800'              	movf	(pimf@d+2)^(0+128),w
 13203  03ED' 1283               	bcf	3,5	;RP0=0, select bank0
 13204  03EE' 1303               	bcf	3,6	;RP1=0, select bank0
 13205  03EF' 00BE'              	movwf	___flsub@b+2
 13206  03F0' 1683               	bsf	3,5	;RP0=1, select bank1
 13207  03F1' 1303               	bcf	3,6	;RP1=0, select bank1
 13208  03F2' 0800'              	movf	(pimf@d+1)^(0+128),w
 13209  03F3' 1283               	bcf	3,5	;RP0=0, select bank0
 13210  03F4' 1303               	bcf	3,6	;RP1=0, select bank0
 13211  03F5' 00BD'              	movwf	___flsub@b+1
 13212  03F6' 1683               	bsf	3,5	;RP0=1, select bank1
 13213  03F7' 1303               	bcf	3,6	;RP1=0, select bank1
 13214  03F8' 0800'              	movf	pimf@d^(0+128),w
 13215  03F9' 1283               	bcf	3,5	;RP0=0, select bank0
 13216  03FA' 1303               	bcf	3,6	;RP1=0, select bank0
 13217  03FB' 00BC'              	movwf	___flsub@b
 13218  03FC' 120A' 118A' 2000' 120A' 118A' 	fcall	___flsub
 13219  0401' 1283               	bcf	3,5	;RP0=0, select bank0
 13220  0402' 1303               	bcf	3,6	;RP1=0, select bank0
 13221  0403' 083B'              	movf	?___flsub+3,w
 13222  0404' 008D'              	movwf	___fldiv@a+3
 13223  0405' 083A'              	movf	?___flsub+2,w
 13224  0406' 008C'              	movwf	___fldiv@a+2
 13225  0407' 0839'              	movf	?___flsub+1,w
 13226  0408' 008B'              	movwf	___fldiv@a+1
 13227  0409' 0838'              	movf	?___flsub,w
 13228  040A' 008A'              	movwf	___fldiv@a
 13229  040B' 1683               	bsf	3,5	;RP0=1, select bank1
 13230  040C' 1303               	bcf	3,6	;RP1=0, select bank1
 13231  040D' 0800'              	movf	(pimf@c+3)^(0+128),w
 13232  040E' 1283               	bcf	3,5	;RP0=0, select bank0
 13233  040F' 1303               	bcf	3,6	;RP1=0, select bank0
 13234  0410' 00BB'              	movwf	___flsub@a+3
 13235  0411' 1683               	bsf	3,5	;RP0=1, select bank1
 13236  0412' 1303               	bcf	3,6	;RP1=0, select bank1
 13237  0413' 0800'              	movf	(pimf@c+2)^(0+128),w
 13238  0414' 1283               	bcf	3,5	;RP0=0, select bank0
 13239  0415' 1303               	bcf	3,6	;RP1=0, select bank0
 13240  0416' 00BA'              	movwf	___flsub@a+2
 13241  0417' 1683               	bsf	3,5	;RP0=1, select bank1
 13242  0418' 1303               	bcf	3,6	;RP1=0, select bank1
 13243  0419' 0800'              	movf	(pimf@c+1)^(0+128),w
 13244  041A' 1283               	bcf	3,5	;RP0=0, select bank0
 13245  041B' 1303               	bcf	3,6	;RP1=0, select bank0
 13246  041C' 00B9'              	movwf	___flsub@a+1
 13247  041D' 1683               	bsf	3,5	;RP0=1, select bank1
 13248  041E' 1303               	bcf	3,6	;RP1=0, select bank1
 13249  041F' 0800'              	movf	pimf@c^(0+128),w
 13250  0420' 1283               	bcf	3,5	;RP0=0, select bank0
 13251  0421' 1303               	bcf	3,6	;RP1=0, select bank0
 13252  0422' 00B8'              	movwf	___flsub@a
 13253  0423' 1683               	bsf	3,5	;RP0=1, select bank1
 13254  0424' 1303               	bcf	3,6	;RP1=0, select bank1
 13255  0425' 0800'              	movf	pimf@x^(0+128),w
 13256  0426' 0089'              	movwf	___xxtofl@val
 13257  0427' 0800'              	movf	(pimf@x+1)^(0+128),w
 13258  0428' 008A'              	movwf	___xxtofl@val+1
 13259  0429' 3000               	movlw	0
 13260  042A' 1B8A'              	btfsc	___xxtofl@val+1,7
 13261  042B' 30FF               	movlw	255
 13262  042C' 008B'              	movwf	___xxtofl@val+2
 13263  042D' 008C'              	movwf	___xxtofl@val+3
 13264  042E' 3001               	movlw	1
 13265  042F' 120A' 118A' 2000' 120A' 118A' 	fcall	___xxtofl
 13266  0434' 080C'              	movf	?___xxtofl+3,w
 13267  0435' 1283               	bcf	3,5	;RP0=0, select bank0
 13268  0436' 1303               	bcf	3,6	;RP1=0, select bank0
 13269  0437' 00BF'              	movwf	___flsub@b+3
 13270  0438' 080B'              	movf	?___xxtofl+2,w
 13271  0439' 00BE'              	movwf	___flsub@b+2
 13272  043A' 080A'              	movf	?___xxtofl+1,w
 13273  043B' 00BD'              	movwf	___flsub@b+1
 13274  043C' 0809'              	movf	?___xxtofl,w
 13275  043D' 00BC'              	movwf	___flsub@b
 13276  043E' 120A' 118A' 2000' 120A' 118A' 	fcall	___flsub
 13277  0443' 1283               	bcf	3,5	;RP0=0, select bank0
 13278  0444' 1303               	bcf	3,6	;RP1=0, select bank0
 13279  0445' 083B'              	movf	?___flsub+3,w
 13280  0446' 0091'              	movwf	___fldiv@b+3
 13281  0447' 083A'              	movf	?___flsub+2,w
 13282  0448' 0090'              	movwf	___fldiv@b+2
 13283  0449' 0839'              	movf	?___flsub+1,w
 13284  044A' 008F'              	movwf	___fldiv@b+1
 13285  044B' 0838'              	movf	?___flsub,w
 13286  044C' 008E'              	movwf	___fldiv@b
 13287  044D' 120A' 118A' 2000' 120A' 118A' 	fcall	___fldiv
 13288  0452' 1283               	bcf	3,5	;RP0=0, select bank0
 13289  0453' 1303               	bcf	3,6	;RP1=0, select bank0
 13290  0454' 080D'              	movf	?___fldiv+3,w
 13291  0455' 00C7'              	movwf	___flmul@a+3
 13292  0456' 080C'              	movf	?___fldiv+2,w
 13293  0457' 00C6'              	movwf	___flmul@a+2
 13294  0458' 080B'              	movf	?___fldiv+1,w
 13295  0459' 00C5'              	movwf	___flmul@a+1
 13296  045A' 080A'              	movf	?___fldiv,w
 13297  045B' 00C4'              	movwf	___flmul@a
 13298  045C' 120A' 118A' 2000' 120A' 118A' 	fcall	___flmul
 13299  0461' 1283               	bcf	3,5	;RP0=0, select bank0
 13300  0462' 1303               	bcf	3,6	;RP1=0, select bank0
 13301  0463' 0843'              	movf	?___flmul+3,w
 13302  0464' 1683               	bsf	3,5	;RP0=1, select bank1
 13303  0465' 1303               	bcf	3,6	;RP1=0, select bank1
 13304  0466' 0080'              	movwf	(_pimf$823+3)^(0+128)
 13305  0467' 1283               	bcf	3,5	;RP0=0, select bank0
 13306  0468' 1303               	bcf	3,6	;RP1=0, select bank0
 13307  0469' 0842'              	movf	?___flmul+2,w
 13308  046A' 1683               	bsf	3,5	;RP0=1, select bank1
 13309  046B' 1303               	bcf	3,6	;RP1=0, select bank1
 13310  046C' 0080'              	movwf	(_pimf$823+2)^(0+128)
 13311  046D' 1283               	bcf	3,5	;RP0=0, select bank0
 13312  046E' 1303               	bcf	3,6	;RP1=0, select bank0
 13313  046F' 0841'              	movf	?___flmul+1,w
 13314  0470' 1683               	bsf	3,5	;RP0=1, select bank1
 13315  0471' 1303               	bcf	3,6	;RP1=0, select bank1
 13316  0472' 0080'              	movwf	(_pimf$823+1)^(0+128)
 13317  0473' 1283               	bcf	3,5	;RP0=0, select bank0
 13318  0474' 1303               	bcf	3,6	;RP1=0, select bank0
 13319  0475' 0840'              	movf	?___flmul,w
 13320  0476' 1683               	bsf	3,5	;RP0=1, select bank1
 13321  0477' 1303               	bcf	3,6	;RP1=0, select bank1
 13322  0478' 0080'              	movwf	_pimf$823^(0+128)
 13323                           
 13324                           ;./Fuzzy_Lib.h: 45:         f = 2*((x-c)/(d-c))*((x-c)/(d-c))*100;
 13325  0479' 0800'              	movf	(pimf@c+3)^(0+128),w
 13326  047A' 1283               	bcf	3,5	;RP0=0, select bank0
 13327  047B' 1303               	bcf	3,6	;RP1=0, select bank0
 13328  047C' 00BB'              	movwf	___flsub@a+3
 13329  047D' 1683               	bsf	3,5	;RP0=1, select bank1
 13330  047E' 1303               	bcf	3,6	;RP1=0, select bank1
 13331  047F' 0800'              	movf	(pimf@c+2)^(0+128),w
 13332  0480' 1283               	bcf	3,5	;RP0=0, select bank0
 13333  0481' 1303               	bcf	3,6	;RP1=0, select bank0
 13334  0482' 00BA'              	movwf	___flsub@a+2
 13335  0483' 1683               	bsf	3,5	;RP0=1, select bank1
 13336  0484' 1303               	bcf	3,6	;RP1=0, select bank1
 13337  0485' 0800'              	movf	(pimf@c+1)^(0+128),w
 13338  0486' 1283               	bcf	3,5	;RP0=0, select bank0
 13339  0487' 1303               	bcf	3,6	;RP1=0, select bank0
 13340  0488' 00B9'              	movwf	___flsub@a+1
 13341  0489' 1683               	bsf	3,5	;RP0=1, select bank1
 13342  048A' 1303               	bcf	3,6	;RP1=0, select bank1
 13343  048B' 0800'              	movf	pimf@c^(0+128),w
 13344  048C' 1283               	bcf	3,5	;RP0=0, select bank0
 13345  048D' 1303               	bcf	3,6	;RP1=0, select bank0
 13346  048E' 00B8'              	movwf	___flsub@a
 13347  048F' 1683               	bsf	3,5	;RP0=1, select bank1
 13348  0490' 1303               	bcf	3,6	;RP1=0, select bank1
 13349  0491' 0800'              	movf	(pimf@d+3)^(0+128),w
 13350  0492' 1283               	bcf	3,5	;RP0=0, select bank0
 13351  0493' 1303               	bcf	3,6	;RP1=0, select bank0
 13352  0494' 00BF'              	movwf	___flsub@b+3
 13353  0495' 1683               	bsf	3,5	;RP0=1, select bank1
 13354  0496' 1303               	bcf	3,6	;RP1=0, select bank1
 13355  0497' 0800'              	movf	(pimf@d+2)^(0+128),w
 13356  0498' 1283               	bcf	3,5	;RP0=0, select bank0
 13357  0499' 1303               	bcf	3,6	;RP1=0, select bank0
 13358  049A' 00BE'              	movwf	___flsub@b+2
 13359  049B' 1683               	bsf	3,5	;RP0=1, select bank1
 13360  049C' 1303               	bcf	3,6	;RP1=0, select bank1
 13361  049D' 0800'              	movf	(pimf@d+1)^(0+128),w
 13362  049E' 1283               	bcf	3,5	;RP0=0, select bank0
 13363  049F' 1303               	bcf	3,6	;RP1=0, select bank0
 13364  04A0' 00BD'              	movwf	___flsub@b+1
 13365  04A1' 1683               	bsf	3,5	;RP0=1, select bank1
 13366  04A2' 1303               	bcf	3,6	;RP1=0, select bank1
 13367  04A3' 0800'              	movf	pimf@d^(0+128),w
 13368  04A4' 1283               	bcf	3,5	;RP0=0, select bank0
 13369  04A5' 1303               	bcf	3,6	;RP1=0, select bank0
 13370  04A6' 00BC'              	movwf	___flsub@b
 13371  04A7' 120A' 118A' 2000' 120A' 118A' 	fcall	___flsub
 13372  04AC' 1283               	bcf	3,5	;RP0=0, select bank0
 13373  04AD' 1303               	bcf	3,6	;RP1=0, select bank0
 13374  04AE' 083B'              	movf	?___flsub+3,w
 13375  04AF' 008D'              	movwf	___fldiv@a+3
 13376  04B0' 083A'              	movf	?___flsub+2,w
 13377  04B1' 008C'              	movwf	___fldiv@a+2
 13378  04B2' 0839'              	movf	?___flsub+1,w
 13379  04B3' 008B'              	movwf	___fldiv@a+1
 13380  04B4' 0838'              	movf	?___flsub,w
 13381  04B5' 008A'              	movwf	___fldiv@a
 13382  04B6' 1683               	bsf	3,5	;RP0=1, select bank1
 13383  04B7' 1303               	bcf	3,6	;RP1=0, select bank1
 13384  04B8' 0800'              	movf	(pimf@c+3)^(0+128),w
 13385  04B9' 1283               	bcf	3,5	;RP0=0, select bank0
 13386  04BA' 1303               	bcf	3,6	;RP1=0, select bank0
 13387  04BB' 00BB'              	movwf	___flsub@a+3
 13388  04BC' 1683               	bsf	3,5	;RP0=1, select bank1
 13389  04BD' 1303               	bcf	3,6	;RP1=0, select bank1
 13390  04BE' 0800'              	movf	(pimf@c+2)^(0+128),w
 13391  04BF' 1283               	bcf	3,5	;RP0=0, select bank0
 13392  04C0' 1303               	bcf	3,6	;RP1=0, select bank0
 13393  04C1' 00BA'              	movwf	___flsub@a+2
 13394  04C2' 1683               	bsf	3,5	;RP0=1, select bank1
 13395  04C3' 1303               	bcf	3,6	;RP1=0, select bank1
 13396  04C4' 0800'              	movf	(pimf@c+1)^(0+128),w
 13397  04C5' 1283               	bcf	3,5	;RP0=0, select bank0
 13398  04C6' 1303               	bcf	3,6	;RP1=0, select bank0
 13399  04C7' 00B9'              	movwf	___flsub@a+1
 13400  04C8' 1683               	bsf	3,5	;RP0=1, select bank1
 13401  04C9' 1303               	bcf	3,6	;RP1=0, select bank1
 13402  04CA' 0800'              	movf	pimf@c^(0+128),w
 13403  04CB' 1283               	bcf	3,5	;RP0=0, select bank0
 13404  04CC' 1303               	bcf	3,6	;RP1=0, select bank0
 13405  04CD' 00B8'              	movwf	___flsub@a
 13406  04CE' 1683               	bsf	3,5	;RP0=1, select bank1
 13407  04CF' 1303               	bcf	3,6	;RP1=0, select bank1
 13408  04D0' 0800'              	movf	pimf@x^(0+128),w
 13409  04D1' 0089'              	movwf	___xxtofl@val
 13410  04D2' 0800'              	movf	(pimf@x+1)^(0+128),w
 13411  04D3' 008A'              	movwf	___xxtofl@val+1
 13412  04D4' 3000               	movlw	0
 13413  04D5' 1B8A'              	btfsc	___xxtofl@val+1,7
 13414  04D6' 30FF               	movlw	255
 13415  04D7' 008B'              	movwf	___xxtofl@val+2
 13416  04D8' 008C'              	movwf	___xxtofl@val+3
 13417  04D9' 3001               	movlw	1
 13418  04DA' 120A' 118A' 2000' 120A' 118A' 	fcall	___xxtofl
 13419  04DF' 080C'              	movf	?___xxtofl+3,w
 13420  04E0' 1283               	bcf	3,5	;RP0=0, select bank0
 13421  04E1' 1303               	bcf	3,6	;RP1=0, select bank0
 13422  04E2' 00BF'              	movwf	___flsub@b+3
 13423  04E3' 080B'              	movf	?___xxtofl+2,w
 13424  04E4' 00BE'              	movwf	___flsub@b+2
 13425  04E5' 080A'              	movf	?___xxtofl+1,w
 13426  04E6' 00BD'              	movwf	___flsub@b+1
 13427  04E7' 0809'              	movf	?___xxtofl,w
 13428  04E8' 00BC'              	movwf	___flsub@b
 13429  04E9' 120A' 118A' 2000' 120A' 118A' 	fcall	___flsub
 13430  04EE' 1283               	bcf	3,5	;RP0=0, select bank0
 13431  04EF' 1303               	bcf	3,6	;RP1=0, select bank0
 13432  04F0' 083B'              	movf	?___flsub+3,w
 13433  04F1' 0091'              	movwf	___fldiv@b+3
 13434  04F2' 083A'              	movf	?___flsub+2,w
 13435  04F3' 0090'              	movwf	___fldiv@b+2
 13436  04F4' 0839'              	movf	?___flsub+1,w
 13437  04F5' 008F'              	movwf	___fldiv@b+1
 13438  04F6' 0838'              	movf	?___flsub,w
 13439  04F7' 008E'              	movwf	___fldiv@b
 13440  04F8' 120A' 118A' 2000' 120A' 118A' 	fcall	___fldiv
 13441  04FD' 1283               	bcf	3,5	;RP0=0, select bank0
 13442  04FE' 1303               	bcf	3,6	;RP1=0, select bank0
 13443  04FF' 080D'              	movf	?___fldiv+3,w
 13444  0500' 00C3'              	movwf	___flmul@b+3
 13445  0501' 080C'              	movf	?___fldiv+2,w
 13446  0502' 00C2'              	movwf	___flmul@b+2
 13447  0503' 080B'              	movf	?___fldiv+1,w
 13448  0504' 00C1'              	movwf	___flmul@b+1
 13449  0505' 080A'              	movf	?___fldiv,w
 13450  0506' 00C0'              	movwf	___flmul@b
 13451  0507' 1683               	bsf	3,5	;RP0=1, select bank1
 13452  0508' 1303               	bcf	3,6	;RP1=0, select bank1
 13453  0509' 0800'              	movf	(_pimf$823+3)^(0+128),w
 13454  050A' 1283               	bcf	3,5	;RP0=0, select bank0
 13455  050B' 1303               	bcf	3,6	;RP1=0, select bank0
 13456  050C' 00C7'              	movwf	___flmul@a+3
 13457  050D' 1683               	bsf	3,5	;RP0=1, select bank1
 13458  050E' 1303               	bcf	3,6	;RP1=0, select bank1
 13459  050F' 0800'              	movf	(_pimf$823+2)^(0+128),w
 13460  0510' 1283               	bcf	3,5	;RP0=0, select bank0
 13461  0511' 1303               	bcf	3,6	;RP1=0, select bank0
 13462  0512' 00C6'              	movwf	___flmul@a+2
 13463  0513' 1683               	bsf	3,5	;RP0=1, select bank1
 13464  0514' 1303               	bcf	3,6	;RP1=0, select bank1
 13465  0515' 0800'              	movf	(_pimf$823+1)^(0+128),w
 13466  0516' 1283               	bcf	3,5	;RP0=0, select bank0
 13467  0517' 1303               	bcf	3,6	;RP1=0, select bank0
 13468  0518' 00C5'              	movwf	___flmul@a+1
 13469  0519' 1683               	bsf	3,5	;RP0=1, select bank1
 13470  051A' 1303               	bcf	3,6	;RP1=0, select bank1
 13471  051B' 0800'              	movf	_pimf$823^(0+128),w
 13472  051C' 1283               	bcf	3,5	;RP0=0, select bank0
 13473  051D' 1303               	bcf	3,6	;RP1=0, select bank0
 13474  051E' 00C4'              	movwf	___flmul@a
 13475  051F' 120A' 118A' 2000' 120A' 118A' 	fcall	___flmul
 13476  0524' 1283               	bcf	3,5	;RP0=0, select bank0
 13477  0525' 1303               	bcf	3,6	;RP1=0, select bank0
 13478  0526' 0843'              	movf	?___flmul+3,w
 13479  0527' 1683               	bsf	3,5	;RP0=1, select bank1
 13480  0528' 1303               	bcf	3,6	;RP1=0, select bank1
 13481  0529' 0080'              	movwf	(_pimf$824+3)^(0+128)
 13482  052A' 1283               	bcf	3,5	;RP0=0, select bank0
 13483  052B' 1303               	bcf	3,6	;RP1=0, select bank0
 13484  052C' 0842'              	movf	?___flmul+2,w
 13485  052D' 1683               	bsf	3,5	;RP0=1, select bank1
 13486  052E' 1303               	bcf	3,6	;RP1=0, select bank1
 13487  052F' 0080'              	movwf	(_pimf$824+2)^(0+128)
 13488  0530' 1283               	bcf	3,5	;RP0=0, select bank0
 13489  0531' 1303               	bcf	3,6	;RP1=0, select bank0
 13490  0532' 0841'              	movf	?___flmul+1,w
 13491  0533' 1683               	bsf	3,5	;RP0=1, select bank1
 13492  0534' 1303               	bcf	3,6	;RP1=0, select bank1
 13493  0535' 0080'              	movwf	(_pimf$824+1)^(0+128)
 13494  0536' 1283               	bcf	3,5	;RP0=0, select bank0
 13495  0537' 1303               	bcf	3,6	;RP1=0, select bank0
 13496  0538' 0840'              	movf	?___flmul,w
 13497  0539' 1683               	bsf	3,5	;RP0=1, select bank1
 13498  053A' 1303               	bcf	3,6	;RP1=0, select bank1
 13499  053B' 0080'              	movwf	_pimf$824^(0+128)
 13500                           
 13501                           ;./Fuzzy_Lib.h: 45:         f = 2*((x-c)/(d-c))*((x-c)/(d-c))*100;
 13502  053C' 3042               	movlw	66
 13503  053D' 1283               	bcf	3,5	;RP0=0, select bank0
 13504  053E' 1303               	bcf	3,6	;RP1=0, select bank0
 13505  053F' 00C3'              	movwf	___flmul@b+3
 13506  0540' 30C8               	movlw	200
 13507  0541' 00C2'              	movwf	___flmul@b+2
 13508  0542' 3000               	movlw	0
 13509  0543' 00C1'              	movwf	___flmul@b+1
 13510  0544' 3000               	movlw	0
 13511  0545' 00C0'              	movwf	___flmul@b
 13512  0546' 1683               	bsf	3,5	;RP0=1, select bank1
 13513  0547' 1303               	bcf	3,6	;RP1=0, select bank1
 13514  0548' 0800'              	movf	(_pimf$824+3)^(0+128),w
 13515  0549' 1283               	bcf	3,5	;RP0=0, select bank0
 13516  054A' 1303               	bcf	3,6	;RP1=0, select bank0
 13517  054B' 00C7'              	movwf	___flmul@a+3
 13518  054C' 1683               	bsf	3,5	;RP0=1, select bank1
 13519  054D' 1303               	bcf	3,6	;RP1=0, select bank1
 13520  054E' 0800'              	movf	(_pimf$824+2)^(0+128),w
 13521  054F' 1283               	bcf	3,5	;RP0=0, select bank0
 13522  0550' 1303               	bcf	3,6	;RP1=0, select bank0
 13523  0551' 00C6'              	movwf	___flmul@a+2
 13524  0552' 1683               	bsf	3,5	;RP0=1, select bank1
 13525  0553' 1303               	bcf	3,6	;RP1=0, select bank1
 13526  0554' 0800'              	movf	(_pimf$824+1)^(0+128),w
 13527  0555' 1283               	bcf	3,5	;RP0=0, select bank0
 13528  0556' 1303               	bcf	3,6	;RP1=0, select bank0
 13529  0557' 00C5'              	movwf	___flmul@a+1
 13530  0558' 1683               	bsf	3,5	;RP0=1, select bank1
 13531  0559' 1303               	bcf	3,6	;RP1=0, select bank1
 13532  055A' 0800'              	movf	_pimf$824^(0+128),w
 13533  055B' 1283               	bcf	3,5	;RP0=0, select bank0
 13534  055C' 1303               	bcf	3,6	;RP1=0, select bank0
 13535  055D' 00C4'              	movwf	___flmul@a
 13536  055E' 120A' 118A' 2000' 120A' 118A' 	fcall	___flmul
 13537  0563' 1283               	bcf	3,5	;RP0=0, select bank0
 13538  0564' 1303               	bcf	3,6	;RP1=0, select bank0
 13539  0565' 0843'              	movf	?___flmul+3,w
 13540  0566' 1683               	bsf	3,5	;RP0=1, select bank3
 13541  0567' 1703               	bsf	3,6	;RP1=1, select bank3
 13542  0568' 0080'              	movwf	(_f+3)^(0+384)
 13543  0569' 1283               	bcf	3,5	;RP0=0, select bank0
 13544  056A' 1303               	bcf	3,6	;RP1=0, select bank0
 13545  056B' 0842'              	movf	?___flmul+2,w
 13546  056C' 1683               	bsf	3,5	;RP0=1, select bank3
 13547  056D' 1703               	bsf	3,6	;RP1=1, select bank3
 13548  056E' 0080'              	movwf	(_f+2)^(0+384)
 13549  056F' 1283               	bcf	3,5	;RP0=0, select bank0
 13550  0570' 1303               	bcf	3,6	;RP1=0, select bank0
 13551  0571' 0841'              	movf	?___flmul+1,w
 13552  0572' 1683               	bsf	3,5	;RP0=1, select bank3
 13553  0573' 1703               	bsf	3,6	;RP1=1, select bank3
 13554  0574' 0080'              	movwf	(_f+1)^(0+384)
 13555  0575' 1283               	bcf	3,5	;RP0=0, select bank0
 13556  0576' 1303               	bcf	3,6	;RP1=0, select bank0
 13557  0577' 0840'              	movf	?___flmul,w
 13558  0578' 1683               	bsf	3,5	;RP0=1, select bank3
 13559  0579' 1703               	bsf	3,6	;RP1=1, select bank3
 13560  057A' 0080'              	movwf	_f^(0+384)
 13561                           
 13562                           ;./Fuzzy_Lib.h: 46:     }
 13563  057B' 2800'              	goto	l2856
 13564  057C'                    l2852:	
 13565  057C' 1683               	bsf	3,5	;RP0=1, select bank1
 13566  057D' 1303               	bcf	3,6	;RP1=0, select bank1
 13567  057E' 0800'              	movf	pimf@x^(0+128),w
 13568  057F' 0089'              	movwf	___xxtofl@val
 13569  0580' 0800'              	movf	(pimf@x+1)^(0+128),w
 13570  0581' 008A'              	movwf	___xxtofl@val+1
 13571  0582' 3000               	movlw	0
 13572  0583' 1B8A'              	btfsc	___xxtofl@val+1,7
 13573  0584' 30FF               	movlw	255
 13574  0585' 008B'              	movwf	___xxtofl@val+2
 13575  0586' 008C'              	movwf	___xxtofl@val+3
 13576  0587' 3001               	movlw	1
 13577  0588' 120A' 118A' 2000' 120A' 118A' 	fcall	___xxtofl
 13578  058D' 080C'              	movf	?___xxtofl+3,w
 13579  058E' 1283               	bcf	3,5	;RP0=0, select bank0
 13580  058F' 1303               	bcf	3,6	;RP1=0, select bank0
 13581  0590' 00BB'              	movwf	___flge@ff1+3
 13582  0591' 080B'              	movf	?___xxtofl+2,w
 13583  0592' 00BA'              	movwf	___flge@ff1+2
 13584  0593' 080A'              	movf	?___xxtofl+1,w
 13585  0594' 00B9'              	movwf	___flge@ff1+1
 13586  0595' 0809'              	movf	?___xxtofl,w
 13587  0596' 00B8'              	movwf	___flge@ff1
 13588  0597' 1683               	bsf	3,5	;RP0=1, select bank1
 13589  0598' 1303               	bcf	3,6	;RP1=0, select bank1
 13590  0599' 0800'              	movf	(pimf@d+3)^(0+128),w
 13591  059A' 1283               	bcf	3,5	;RP0=0, select bank0
 13592  059B' 1303               	bcf	3,6	;RP1=0, select bank0
 13593  059C' 00BF'              	movwf	___flge@ff2+3
 13594  059D' 1683               	bsf	3,5	;RP0=1, select bank1
 13595  059E' 1303               	bcf	3,6	;RP1=0, select bank1
 13596  059F' 0800'              	movf	(pimf@d+2)^(0+128),w
 13597  05A0' 1283               	bcf	3,5	;RP0=0, select bank0
 13598  05A1' 1303               	bcf	3,6	;RP1=0, select bank0
 13599  05A2' 00BE'              	movwf	___flge@ff2+2
 13600  05A3' 1683               	bsf	3,5	;RP0=1, select bank1
 13601  05A4' 1303               	bcf	3,6	;RP1=0, select bank1
 13602  05A5' 0800'              	movf	(pimf@d+1)^(0+128),w
 13603  05A6' 1283               	bcf	3,5	;RP0=0, select bank0
 13604  05A7' 1303               	bcf	3,6	;RP1=0, select bank0
 13605  05A8' 00BD'              	movwf	___flge@ff2+1
 13606  05A9' 1683               	bsf	3,5	;RP0=1, select bank1
 13607  05AA' 1303               	bcf	3,6	;RP1=0, select bank1
 13608  05AB' 0800'              	movf	pimf@d^(0+128),w
 13609  05AC' 1283               	bcf	3,5	;RP0=0, select bank0
 13610  05AD' 1303               	bcf	3,6	;RP1=0, select bank0
 13611  05AE' 00BC'              	movwf	___flge@ff2
 13612  05AF' 120A' 118A' 2000' 120A' 118A' 	fcall	___flge
 13613  05B4' 1C03               	btfss	3,0
 13614  05B5' 2800'              	goto	u4371
 13615  05B6' 2800'              	goto	u4370
 13616  05B7'                    u4371:	
 13617  05B7' 2800'              	goto	l86
 13618  05B8'                    u4370:	
 13619  05B8'                    l2854:	
 13620                           
 13621                           ;./Fuzzy_Lib.h: 48:         f = 0;
 13622  05B8' 3000               	movlw	0
 13623  05B9' 1683               	bsf	3,5	;RP0=1, select bank3
 13624  05BA' 1703               	bsf	3,6	;RP1=1, select bank3
 13625  05BB' 0080'              	movwf	(_f+3)^(0+384)
 13626  05BC' 3000               	movlw	0
 13627  05BD' 0080'              	movwf	(_f+2)^(0+384)
 13628  05BE' 3000               	movlw	0
 13629  05BF' 0080'              	movwf	(_f+1)^(0+384)
 13630  05C0' 3000               	movlw	0
 13631  05C1' 0080'              	movwf	_f^(0+384)
 13632  05C2' 2800'              	goto	l2856
 13633  05C3'                    l86:	
 13634  05C3'                    l2856:	
 13635                           
 13636                           ;./Fuzzy_Lib.h: 50:     P =(int) f;
 13637  05C3' 1683               	bsf	3,5	;RP0=1, select bank3
 13638  05C4' 1703               	bsf	3,6	;RP1=1, select bank3
 13639  05C5' 0800'              	movf	(_f+3)^(0+384),w
 13640  05C6' 1283               	bcf	3,5	;RP0=0, select bank0
 13641  05C7' 1303               	bcf	3,6	;RP1=0, select bank0
 13642  05C8' 00C3'              	movwf	___fltol@f1+3
 13643  05C9' 1683               	bsf	3,5	;RP0=1, select bank3
 13644  05CA' 1703               	bsf	3,6	;RP1=1, select bank3
 13645  05CB' 0800'              	movf	(_f+2)^(0+384),w
 13646  05CC' 1283               	bcf	3,5	;RP0=0, select bank0
 13647  05CD' 1303               	bcf	3,6	;RP1=0, select bank0
 13648  05CE' 00C2'              	movwf	___fltol@f1+2
 13649  05CF' 1683               	bsf	3,5	;RP0=1, select bank3
 13650  05D0' 1703               	bsf	3,6	;RP1=1, select bank3
 13651  05D1' 0800'              	movf	(_f+1)^(0+384),w
 13652  05D2' 1283               	bcf	3,5	;RP0=0, select bank0
 13653  05D3' 1303               	bcf	3,6	;RP1=0, select bank0
 13654  05D4' 00C1'              	movwf	___fltol@f1+1
 13655  05D5' 1683               	bsf	3,5	;RP0=1, select bank3
 13656  05D6' 1703               	bsf	3,6	;RP1=1, select bank3
 13657  05D7' 0800'              	movf	_f^(0+384),w
 13658  05D8' 1283               	bcf	3,5	;RP0=0, select bank0
 13659  05D9' 1303               	bcf	3,6	;RP1=0, select bank0
 13660  05DA' 00C0'              	movwf	___fltol@f1
 13661  05DB' 120A' 118A' 2000' 120A' 118A' 	fcall	___fltol
 13662  05E0' 1283               	bcf	3,5	;RP0=0, select bank0
 13663  05E1' 1303               	bcf	3,6	;RP1=0, select bank0
 13664  05E2' 0841'              	movf	?___fltol+1,w
 13665  05E3' 1683               	bsf	3,5	;RP0=1, select bank1
 13666  05E4' 1303               	bcf	3,6	;RP1=0, select bank1
 13667  05E5' 0080'              	movwf	(_P+1)^(0+128)
 13668  05E6' 1283               	bcf	3,5	;RP0=0, select bank0
 13669  05E7' 1303               	bcf	3,6	;RP1=0, select bank0
 13670  05E8' 0840'              	movf	?___fltol,w
 13671  05E9' 1683               	bsf	3,5	;RP0=1, select bank1
 13672  05EA' 1303               	bcf	3,6	;RP1=0, select bank1
 13673  05EB' 0080'              	movwf	_P^(0+128)
 13674  05EC'                    l2858:	
 13675                           
 13676                           ;./Fuzzy_Lib.h: 51:     return P;
 13677  05EC' 0800'              	movf	(_P+1)^(0+128),w
 13678  05ED' 0080'              	movwf	(?_pimf+1)^(0+128)
 13679  05EE' 0800'              	movf	_P^(0+128),w
 13680  05EF' 0080'              	movwf	?_pimf^(0+128)
 13681  05F0'                    l92:	
 13682  05F0' 0008               	return
 13683  05F1'                    __end_of_pimf:	


Data Sizes:
    Strings     35
    Constant    0
    Data        0
    BSS         98
    Persistent  0
    Stack       0

Auto Spaces:
    Space          Size  Autos    Used
    COMMON           14     14      14
    BANK0            80     80      80
    BANK1            80     72      80
    BANK3            96     84      96
    BANK2            96      0      78

Pointer List with Targets:

    frexp@eptr	PTR int  size(1) Largest target is 2
		 -> trunc@expon(BANK1[2]), 

    utoa@buf	PTR unsigned char  size(1) Largest target is 5
		 -> velo(BANK2[5]), centi(BANK2[3]), 

    sp__utoa	PTR unsigned char  size(1) Largest target is 5
		 -> velo(BANK2[5]), centi(BANK2[3]), 

    itoa@buf	PTR unsigned char  size(1) Largest target is 5
		 -> velo(BANK2[5]), centi(BANK2[3]), 

    itoa@cp	PTR unsigned char  size(1) Largest target is 5
		 -> velo(BANK2[5]), centi(BANK2[3]), 

    sp__itoa	PTR unsigned char  size(1) Largest target is 5
		 -> velo(BANK2[5]), centi(BANK2[3]), 

    lcd_write_s@st	PTR const unsigned char  size(2) Largest target is 18
		 -> STR_3(CODE[17]), velo(BANK2[5]), STR_2(CODE[18]), centi(BANK2[3]), 
		 -> STR_1(CODE[18]), 


Critical Paths under _main in COMMON

    _main->_itoa
    _trunc->_frexp
    _frexp->___fleq
    _lcd_write_s->_lcd_write_c
    _lcd_pos->_lcd_cmd
    _lcd_ini->_lcd_cmd
    _itoa->_utoa
    _utoa->___lwdiv
    _distancia->___xxtofl
    ___xxtofl->___awdiv
    ___flsub->_frexp
    ___fladd->___xxtofl
    ___flge->___xxtofl
    ___fldiv->___xxtofl

Critical Paths under _main in BANK0

    _round->_trunc
    _trunc->___fltol
    _itoa->_utoa
    _distancia->___fladd
    _pimf->___flmul
    ___fltol->___flsub
    ___flsub->___fladd
    ___fladd->___fldiv
    ___flmul->___flsub
    ___flge->___fladd
    ___fldiv->___xxtofl

Critical Paths under _main in BANK1

    _main->_Fuz
    _round->_trunc
    _Fuz->_pimf
    _pimf->___flmul

Critical Paths under _main in BANK3

    _main->_Fuz

Critical Paths under _main in BANK2

    None.

Call Graph Tables:

 ---------------------------------------------------------------------------------
 (Depth) Function   	        Calls       Base Space   Used Autos Params    Refs
 ---------------------------------------------------------------------------------
 (0) _main                                                22    22      0   86049
                                             50 BANK1     22    22      0
                                _Fuz
                            ___awdiv
                            ___fladd
                            ___fldiv
                            ___flsub
                            ___fltol
                             ___wmul
                           ___xxtofl
                                _abs
                          _distancia
                               _itoa
                            _lcd_cmd
                            _lcd_ini
                            _lcd_pos
                        _lcd_write_s
                              _round
                              _setup
 ---------------------------------------------------------------------------------
 (1) _setup                                                3     3      0       0
                                              0 COMMON     3     3      0
 ---------------------------------------------------------------------------------
 (1) _round                                                8     4      4   14535
                                              6 BANK1      8     4      4
                            ___fladd
                            ___fldiv (ARG)
                            ___flsub
                              _trunc
 ---------------------------------------------------------------------------------
 (2) _trunc                                               11     7      4    4178
                                             75 BANK0      5     1      4
                                              0 BANK1      6     6      0
                            ___flsub (ARG)
                            ___fltol
                           ___xxtofl
                              _frexp
 ---------------------------------------------------------------------------------
 (3) _frexp                                                7     2      5     728
                                             12 COMMON     2     2      0
                                              0 BANK0      5     0      5
                             ___fleq
 ---------------------------------------------------------------------------------
 (4) ___fleq                                              12     4      8     368
                                              0 COMMON    12     4      8
 ---------------------------------------------------------------------------------
 (1) _lcd_write_s                                          2     0      2     469
                                              3 COMMON     2     0      2
                        _lcd_write_c
 ---------------------------------------------------------------------------------
 (2) _lcd_write_c                                          3     3      0      44
                                              0 COMMON     3     3      0
 ---------------------------------------------------------------------------------
 (1) _lcd_pos                                              4     0      4    1652
                                              4 COMMON     4     0      4
                            _lcd_cmd
 ---------------------------------------------------------------------------------
 (1) _lcd_ini                                              2     2      0     804
                                              4 COMMON     2     2      0
                            _lcd_cmd
 ---------------------------------------------------------------------------------
 (2) _lcd_cmd                                              4     2      2     804
                                              0 COMMON     4     2      2
 ---------------------------------------------------------------------------------
 (1) _itoa                                                 7     3      4    1797
                                             13 COMMON     1     1      0
                                              4 BANK0      6     2      4
                               _utoa
 ---------------------------------------------------------------------------------
 (2) _utoa                                                 9     5      4    1264
                                              8 COMMON     5     1      4
                                              0 BANK0      4     4      0
                            ___lwdiv
                            ___lwmod
 ---------------------------------------------------------------------------------
 (3) ___lwmod                                              6     2      4     311
                                              0 COMMON     6     2      4
 ---------------------------------------------------------------------------------
 (3) ___lwdiv                                              8     4      4     466
                                              0 COMMON     8     4      4
 ---------------------------------------------------------------------------------
 (1) _distancia                                            2     2      0    6786
                                             56 BANK0      2     2      0
                            ___awdiv
                            ___fladd
                           ___xxtofl
 ---------------------------------------------------------------------------------
 (1) _abs                                                  4     2      2     142
                                              0 COMMON     4     2      2
 ---------------------------------------------------------------------------------
 (1) _Fuz                                                 95    91      4   41164
                                             39 BANK1     11     7      4
                                              0 BANK3     84    84      0
                            ___awdiv
                            ___fladd
                            ___fltol
                             ___wmul
                           ___xxtofl
                               _pimf
 ---------------------------------------------------------------------------------
 (2) _pimf                                                26     8     18   28762
                                             13 BANK1     26     8     18
                            ___fladd
                            ___fldiv
                             ___flge
                            ___flmul
                            ___flsub
                            ___fltol
                           ___xxtofl
 ---------------------------------------------------------------------------------
 (3) ___xxtofl                                            14    10      4    2374
                                              9 COMMON     4     0      4
                                              0 BANK0     10    10      0
                            ___awdiv (ARG)
 ---------------------------------------------------------------------------------
 (3) ___fltol                                             11     7      4     761
                                             64 BANK0     11     7      4
                            ___fladd (ARG)
                            ___fldiv (ARG)
                            ___flsub (ARG)
                           ___xxtofl (ARG)
 ---------------------------------------------------------------------------------
 (2) ___flsub                                              8     0      8    6589
                                             56 BANK0      8     0      8
                          __Umul8_16 (ARG)
                            ___fladd
                            ___fldiv (ARG)
                             ___fleq (ARG)
                           ___xxtofl (ARG)
                              _frexp (ARG)
 ---------------------------------------------------------------------------------
 (3) ___fladd                                             20    12      8    3504
                                             36 BANK0     20    12      8
                            ___fldiv (ARG)
                           ___xxtofl (ARG)
 ---------------------------------------------------------------------------------
 (3) ___flmul                                             26    18      8    4089
                                             64 BANK0     13     5      8
                                              0 BANK1     13    13      0
                          __Umul8_16
                            ___fldiv (ARG)
                            ___flsub (ARG)
                           ___xxtofl (ARG)
 ---------------------------------------------------------------------------------
 (4) __Umul8_16                                            9     7      2     799
                                              0 COMMON     9     7      2
 ---------------------------------------------------------------------------------
 (3) ___flge                                              12     4      8    2132
                                             56 BANK0     12     4      8
                            ___fladd (ARG)
                            ___fldiv (ARG)
                           ___xxtofl (ARG)
 ---------------------------------------------------------------------------------
 (1) ___fldiv                                             26    18      8    3249
                                             10 BANK0     26    18      8
                           ___xxtofl (ARG)
 ---------------------------------------------------------------------------------
 (1) ___wmul                                               6     2      4     396
                                              0 COMMON     6     2      4
 ---------------------------------------------------------------------------------
 (2) ___awdiv                                              9     5      4     908
                                              0 COMMON     9     5      4
 ---------------------------------------------------------------------------------
 Estimated maximum stack depth 4
 ---------------------------------------------------------------------------------

 Call Graph Graphs:

 _main (ROOT)
   _Fuz
     ___awdiv
     ___fladd
       ___fldiv (ARG)
         ___xxtofl (ARG)
           ___awdiv (ARG)
       ___xxtofl (ARG)
         ___awdiv (ARG)
     ___fltol
       ___fladd (ARG)
         ___fldiv (ARG)
           ___xxtofl (ARG)
             ___awdiv (ARG)
         ___xxtofl (ARG)
           ___awdiv (ARG)
       ___fldiv (ARG)
         ___xxtofl (ARG)
           ___awdiv (ARG)
       ___flsub (ARG)
         __Umul8_16 (ARG)
         ___fladd (ARG)
           ___fldiv (ARG)
             ___xxtofl (ARG)
               ___awdiv (ARG)
           ___xxtofl (ARG)
             ___awdiv (ARG)
         ___fldiv (ARG)
           ___xxtofl (ARG)
             ___awdiv (ARG)
         ___fleq (ARG)
         ___xxtofl (ARG)
           ___awdiv (ARG)
         _frexp (ARG)
           ___fleq
       ___xxtofl (ARG)
         ___awdiv (ARG)
     ___wmul
     ___xxtofl
       ___awdiv (ARG)
     _pimf
       ___fladd
         ___fldiv (ARG)
           ___xxtofl (ARG)
             ___awdiv (ARG)
         ___xxtofl (ARG)
           ___awdiv (ARG)
       ___fldiv
         ___xxtofl (ARG)
           ___awdiv (ARG)
       ___flge
         ___fladd (ARG)
           ___fldiv (ARG)
             ___xxtofl (ARG)
               ___awdiv (ARG)
           ___xxtofl (ARG)
             ___awdiv (ARG)
         ___fldiv (ARG)
           ___xxtofl (ARG)
             ___awdiv (ARG)
         ___xxtofl (ARG)
           ___awdiv (ARG)
       ___flmul
         __Umul8_16
         ___fldiv (ARG)
           ___xxtofl (ARG)
             ___awdiv (ARG)
         ___flsub (ARG)
           __Umul8_16 (ARG)
           ___fladd (ARG)
             ___fldiv (ARG)
               ___xxtofl (ARG)
                 ___awdiv (ARG)
             ___xxtofl (ARG)
               ___awdiv (ARG)
           ___fldiv (ARG)
             ___xxtofl (ARG)
               ___awdiv (ARG)
           ___fleq (ARG)
           ___xxtofl (ARG)
             ___awdiv (ARG)
           _frexp (ARG)
             ___fleq
         ___xxtofl (ARG)
           ___awdiv (ARG)
       ___flsub
         __Umul8_16 (ARG)
         ___fladd (ARG)
           ___fldiv (ARG)
             ___xxtofl (ARG)
               ___awdiv (ARG)
           ___xxtofl (ARG)
             ___awdiv (ARG)
         ___fldiv (ARG)
           ___xxtofl (ARG)
             ___awdiv (ARG)
         ___fleq (ARG)
         ___xxtofl (ARG)
           ___awdiv (ARG)
         _frexp (ARG)
           ___fleq
       ___fltol
         ___fladd (ARG)
           ___fldiv (ARG)
             ___xxtofl (ARG)
               ___awdiv (ARG)
           ___xxtofl (ARG)
             ___awdiv (ARG)
         ___fldiv (ARG)
           ___xxtofl (ARG)
             ___awdiv (ARG)
         ___flsub (ARG)
           __Umul8_16 (ARG)
           ___fladd (ARG)
             ___fldiv (ARG)
               ___xxtofl (ARG)
                 ___awdiv (ARG)
             ___xxtofl (ARG)
               ___awdiv (ARG)
           ___fldiv (ARG)
             ___xxtofl (ARG)
               ___awdiv (ARG)
           ___fleq (ARG)
           ___xxtofl (ARG)
             ___awdiv (ARG)
           _frexp (ARG)
             ___fleq
         ___xxtofl (ARG)
           ___awdiv (ARG)
       ___xxtofl
         ___awdiv (ARG)
   ___awdiv
   ___fladd
     ___fldiv (ARG)
       ___xxtofl (ARG)
         ___awdiv (ARG)
     ___xxtofl (ARG)
       ___awdiv (ARG)
   ___fldiv
     ___xxtofl (ARG)
       ___awdiv (ARG)
   ___flsub
     __Umul8_16 (ARG)
     ___fladd (ARG)
       ___fldiv (ARG)
         ___xxtofl (ARG)
           ___awdiv (ARG)
       ___xxtofl (ARG)
         ___awdiv (ARG)
     ___fldiv (ARG)
       ___xxtofl (ARG)
         ___awdiv (ARG)
     ___fleq (ARG)
     ___xxtofl (ARG)
       ___awdiv (ARG)
     _frexp (ARG)
       ___fleq
   ___fltol
     ___fladd (ARG)
       ___fldiv (ARG)
         ___xxtofl (ARG)
           ___awdiv (ARG)
       ___xxtofl (ARG)
         ___awdiv (ARG)
     ___fldiv (ARG)
       ___xxtofl (ARG)
         ___awdiv (ARG)
     ___flsub (ARG)
       __Umul8_16 (ARG)
       ___fladd (ARG)
         ___fldiv (ARG)
           ___xxtofl (ARG)
             ___awdiv (ARG)
         ___xxtofl (ARG)
           ___awdiv (ARG)
       ___fldiv (ARG)
         ___xxtofl (ARG)
           ___awdiv (ARG)
       ___fleq (ARG)
       ___xxtofl (ARG)
         ___awdiv (ARG)
       _frexp (ARG)
         ___fleq
     ___xxtofl (ARG)
       ___awdiv (ARG)
   ___wmul
   ___xxtofl
     ___awdiv (ARG)
   _abs
   _distancia
     ___awdiv
     ___fladd
       ___fldiv (ARG)
         ___xxtofl (ARG)
           ___awdiv (ARG)
       ___xxtofl (ARG)
         ___awdiv (ARG)
     ___xxtofl
       ___awdiv (ARG)
   _itoa
     _utoa
       ___lwdiv
       ___lwmod
   _lcd_cmd
   _lcd_ini
     _lcd_cmd
   _lcd_pos
     _lcd_cmd
   _lcd_write_s
     _lcd_write_c
   _round
     ___fladd
       ___fldiv (ARG)
         ___xxtofl (ARG)
           ___awdiv (ARG)
       ___xxtofl (ARG)
         ___awdiv (ARG)
     ___fldiv (ARG)
       ___xxtofl (ARG)
         ___awdiv (ARG)
     ___flsub (ARG)
       __Umul8_16 (ARG)
       ___fladd (ARG)
         ___fldiv (ARG)
           ___xxtofl (ARG)
             ___awdiv (ARG)
         ___xxtofl (ARG)
           ___awdiv (ARG)
       ___fldiv (ARG)
         ___xxtofl (ARG)
           ___awdiv (ARG)
       ___fleq (ARG)
       ___xxtofl (ARG)
         ___awdiv (ARG)
       _frexp (ARG)
         ___fleq
     _trunc (ARG)
       ___flsub (ARG)
         __Umul8_16 (ARG)
         ___fladd (ARG)
           ___fldiv (ARG)
             ___xxtofl (ARG)
               ___awdiv (ARG)
           ___xxtofl (ARG)
             ___awdiv (ARG)
         ___fldiv (ARG)
           ___xxtofl (ARG)
             ___awdiv (ARG)
         ___fleq (ARG)
         ___xxtofl (ARG)
           ___awdiv (ARG)
         _frexp (ARG)
           ___fleq
       ___fltol (ARG)
         ___fladd (ARG)
           ___fldiv (ARG)
             ___xxtofl (ARG)
               ___awdiv (ARG)
           ___xxtofl (ARG)
             ___awdiv (ARG)
         ___fldiv (ARG)
           ___xxtofl (ARG)
             ___awdiv (ARG)
         ___flsub (ARG)
           __Umul8_16 (ARG)
           ___fladd (ARG)
             ___fldiv (ARG)
               ___xxtofl (ARG)
                 ___awdiv (ARG)
             ___xxtofl (ARG)
               ___awdiv (ARG)
           ___fldiv (ARG)
             ___xxtofl (ARG)
               ___awdiv (ARG)
           ___fleq (ARG)
           ___xxtofl (ARG)
             ___awdiv (ARG)
           _frexp (ARG)
             ___fleq
         ___xxtofl (ARG)
           ___awdiv (ARG)
       ___xxtofl (ARG)
         ___awdiv (ARG)
       _frexp (ARG)
         ___fleq
   _setup

 Address spaces:
Name               Size   Autos  Total    Cost      Usage
BITCOMMON            E      0       0       0        0.0%
EEDATA             100      0       0       0        0.0%
NULL                 0      0       0       0        0.0%
CODE                 0      0       0       0        0.0%
COMMON               E      E       E       1      100.0%
BITSFR0              0      0       0       1        0.0%
SFR0                 0      0       0       1        0.0%
BITSFR1              0      0       0       2        0.0%
SFR1                 0      0       0       2        0.0%
STACK                0      0       0       2        0.0%
ABS                  0      0     15C       3        0.0%
BITBANK0            50      0       0       4        0.0%
BITSFR3              0      0       0       4        0.0%
SFR3                 0      0       0       4        0.0%
BANK0               50     50      50       5      100.0%
BITSFR2              0      0       0       5        0.0%
SFR2                 0      0       0       5        0.0%
BITBANK1            50      0       0       6        0.0%
BANK1               50     48      50       7      100.0%
BITBANK3            60      0       0       8        0.0%
BANK3               60     54      60       9      100.0%
BITBANK2            60      0       0      10        0.0%
BANK2               60      0      4E      11       81.3%
DATA                 0      0     15C      12        0.0%


Microchip Technology PIC Macro Assembler V2.10 build 88905656 
Symbol Table                                                                                   Wed Oct 02 23:24:58 2019

                       _P 0006              ___fldiv@aexp 0023                         _V 0000  
            ___fldiv@bexp 0022                         _f 0004                         pc 0002  
            ___fldiv@sign 001B               __CFG_CP$OFF 0000                        l53 005A  
                      l56 0028                        l72 0027                        l65 0025  
                      l59 0029                        l92 05F0                        l86 05C3  
                      _d1 003E                        _d2 003A              ___awdiv@sign 0006  
                      _cm 0004                        _us 0002                        fsr 0004  
     ___wmul@multiplicand 0002              ?_lcd_write_c 0000              ?_lcd_write_s 0003  
     __Umul8_16@word_mpld 0006               Fuz@Centroid 0004                       l110 00F3  
                     l122 02CF                       l116 01E4                       l145 0749  
                     l182 0017                       l176 002A                       l601 0259  
                     l274 000C                       l610 0287                       l186 0024  
                     l427 0066                       l451 008A                       l179 0011  
                     l443 001C                       l276 0024                       l452 00A3  
                     l460 007B                       l188 00C1                       l444 0038  
                     l613 0023                       l701 0024                       l445 004D  
                     l470 007B                       l623 005C                       l703 00BB  
                     l448 001E                       l720 0010                       l625 01DC  
                     l609 027B                       l714 0085                       l546 0043  
                     l571 010A                       l467 0066                       l715 0091  
                     l707 0069                       l580 0287                       l556 0039  
                     l732 005A                       l645 01C0                       l573 00E1  
                     l750 0014                       l734 0071                       l726 0025  
                     l647 01D0                       l639 014E                       l663 0528  
                     l567 0063                       l719 0010                       l752 0026  
                     l592 01F9                       l745 006D                       l675 050A  
                     l739 00DA                       l588 01D5                       l669 045C  
                     l598 021B                       l758 0053                       _RD0 0040  
                     _RD1 0041                       _RD2 0042                       _RD3 0043  
                     _PR2 0092              __CFG_CPD$OFF 0000                       _Fuz 0000  
                     _abs 0000                       _cmf 0042                       fsr0 0004  
                     indf 0000              __CFG_IESO$ON 0000              ___flmul@aexp 0005  
            ___flmul@bexp 0006              ___flmul@sign 0000              ___flmul@temp 000B  
            ___flmul@prod 0007              __CFG_LVP$OFF 0000               lcd_pos@fila 0004  
                    ?_Fuz 0027              ___fltol@exp1 004A                      ?_abs 0000  
                    l2200 00A5                      l3000 001A                      l2120 004A  
                    l2210 00E5                      l2202 00A9                      l2130 000D  
                    l3010 0025                      l3002 0000                      l2122 004C  
                    l2114 0000                      l2300 0255                      l2220 00FE  
                    l2212 00EE                      l2204 00AD                      l2140 0024  
                    l2132 0011                      l3100 0139                      l3020 002D  
                    l3012 0025                      l3004 0011                      l2116 0014  
                    l2310 0271                      l2302 025E                      l2230 011C  
                    l2214 00F0                      l2222 0102                      l2206 00AE  
                    l2150 003A                      l2142 0025                      l2134 0012  
                    l2126 0000                      l3110 018F                      l3102 0140  
                    l3030 009F                      l3022 002F                      l3014 0025  
                    l3006 0015                      l2118 0030                      l2320 0001  
                    l2312 0275                      l2304 0263                      l2240 0146  
                    l2232 0133                      l2224 010E                      l2216 00F4  
                    l2208 00C5                      l2160 004B                      l2152 003B  
                    l2136 0017                      l2144 0027                      l2128 0007  
                    l3200 057E                      l3120 01FA                      l3112 01A7  
                    l3104 0158                      l3040 01B2                      l3032 00D6  
                    l3024 0031                      l3016 0025                      l3008 001D  
                    l2400 0016                      l2330 0022                      l2322 0003  
                    l2314 0277                      l2306 026B                      l2250 016F  
                    l2242 014A                      l2234 0137                      l2226 0113  
                    l2218 00F5                      l2170 0069                      l2162 0050  
                    l2154 0041                      l2146 002F                      l2138 001C  
                    l3210 05E5                      l3202 0596                      l3130 0261  
                    l3122 0212                      l3114 01BF                      l3106 0170  
                    l3050 01FF                      l3042 01E9                      l3034 010D  
                    l3026 0031                      l3018 0025                      l2410 0039  
                    l2402 001A                      l2500 009D                      l2340 003A  
                    l2324 000A                      l2316 0282                      l2308 0270  
                    l2260 01DD                      l2252 01AD                      l2244 014B  
                    l2236 013B                      l2180 007D                      l2172 006D  
                    l2164 0058                      l2156 0045                      l2148 0034  
                    l3220 0639                      l3212 05FD                      l3204 05AE  
                    l3132 0279                      l3124 022A                      l3116 01D7  
                    l3108 0188                      l3060 0273                      l3044 01EB  
                    l3036 0144                      l3028 0068                      l2404 002B  
                    l2412 003F                      l2420 0009                      l3300 0012  
                    l2510 00BC                      l2502 00A5                      l2350 00A2  
                    l2342 003E                      l2334 0000                      l2326 000E  
                    l2318 0286                      l2270 01F8                      l2262 01E2  
                    l2254 01B3                      l2246 0154                      l2238 0144  
                    l2190 0091                      l2182 0081                      l2174 0071  
                    l2166 0059                      l2158 0046                      l3230 073F  
                    l3222 0641                      l3214 0615                      l3206 05C6  
                    l3150 031C                      l3142 02C9                      l3134 0280  
                    l3126 0231                      l3118 01DE                      l3062 027B  
                    l3054 020D                      l3070 0000                      l3038 017B  
                    l2406 0031                      l2430 0028                      l2422 0010  
                    l3302 0017                      l3310 0027                      l2520 00EE  
                    l2512 00CE                      l2504 00AD                      l2344 0062  
                    l2336 0016                      l2328 001D                      l2600 0032  
                    l2272 01FD                      l2280 0209                      l2256 01B8  
                    l2248 0159                      l2192 0095                      l2184 0085  
                    l2176 0075                      l2168 005B                      l2440 0004  
                    l2360 0016                      l3224 0692                      l3216 061C  
                    l3208 05CD                      l3160 0383                      l3152 0334  
                    l3144 02E5                      l3136 0298                      l3128 0249  
                    l3080 0067                      l3072 0018                      l3056 0238  
                    l3048 01FB                      l2408 0032                      l2432 002F  
                    l2424 0014                      l2416 0000                      l3240 0008  
                    l3320 004F                      l3312 0031                      l2530 010F  
                    l2522 00EF                      l2514 00D2                      l2506 00B5  
                    l2450 0011                      l2346 0066                      l2338 0032  
                    l2610 0056                      l2602 0035                      l2274 0200  
                    l2266 01EB                      l2258 01C7                      l2282 020D  
                    l2194 0099                      l2186 0089                      l2178 0079  
                    l2370 003A                      l2362 002B                      l2354 0000  
                    l3226 06E3                      l3218 0622                      l3162 039B  
                    l3154 034C                      l3146 02FD                      l3138 02B0  
                    l3090 00CE                      l3082 007F                      l3074 0030  
                    l3058 0256                      l3066 0282                      l2426 0018  
                    l2418 0006                      l2434 0035                      l3250 0015  
                    l3242 0009                      l3234 0000                      l3330 0142  
                    l3322 0059                      l3314 0036                      l3306 0000  
                    l2540 0128                      l2532 0111                      l2524 00FD  
                    l2516 00D3                      l2508 00B7                      l2460 0025  
                    l2452 0012                      l2444 0000                      l2348 00A0  
                    l2700 047A                      l2620 0072                      l2612 0059  
                    l2604 003F                      l2292 0220                      l2284 020E  
                    l2276 0202                      l2268 01F4                      l2196 009D  
                    l2188 008D                      l2364 002C                      l2356 000D  
                    l3228 06F0                      l3164 03B3                      l3156 0364  
                    l3148 0315                      l3092 00E6                      l3084 0097  
                    l3076 0048                      l3260 000D                      l2428 0022  
                    l3252 0019                      l3244 000D                      l3236 0004  
                    l3340 01CE                      l3332 0169                      l3324 0063  
                    l3316 0040                      l3308 001E                      l2550 014B  
                    l2534 011A                      l2542 012E                      l2518 00DC  
                    l2526 0101                      l2470 003E                      l2454 0017  
                    l2462 0027                      l2446 0007                      l2710 04DC  
                    l2702 04AF                      l2630 0093                      l2622 007C  
                    l2614 0060                      l2606 0046                      l2294 0225  
                    l2286 0212                      l2278 0207                      l2198 00A1  
                    l2438 0000                      l2366 0034                      l3182 04C0  
                    l3174 03C2                      l3166 03BA                      l3158 036B  
                    l3094 00ED                      l3086 009E                      l3078 004F  
                    l3270 002E                      l3262 0010                      l2390 0000  
                    l3254 001D                      l3246 0011                      l3238 0005  
                    l3350 023F                      l3342 01E7                      l3334 0178  
                    l3326 00B7                      l3318 004A                      l2560 016A  
                    l2544 0132                      l2536 011E                      l2528 0107  
                    l2480 0052                      l2472 003F                      l2464 002F  
                    l2456 001C                      l2448 000D                      l2720 04FF  
                    l2712 04E6                      l2704 04B5                      l2640 0163  
                    l2632 00A5                      l2624 0083                      l2616 0065  
                    l2608 0050                      l2296 0233                      l2288 0218  
                    l2384 005B                      l2376 0042                      l2368 0036  
                    l3184 04EB                      l3192 052F                      l3176 04B0  
                    l3168 03C0                      l3096 0109                      l3088 00B6  
                    l3272 0038                      l3264 0015                      l3256 0000  
                    l2392 0002                      l2800 0027                      l3280 005C  
                    l3248 0013                      l3360 027E                      l3352 024A  
                    l3344 01FE                      l3336 0191                      l3328 012B  
                    l2570 01B3                      l2562 0183                      l2554 0153  
                    l2546 0133                      l2538 011F                      l2474 0044  
                    l2482 0054                      l2466 0034                      l2458 0024  
                    l2722 0512                      l2714 04E8                      l2706 04C2  
                    l2650 0217                      l2642 0193                      l2634 00C2  
                    l2626 0088                      l2618 006F                      l2298 0237  
                    l2386 006B                      l2378 0054                      l2730 000C  
                    l3194 0547                      l3186 0509                      l3178 04B2  
                    l3098 0121                      l3274 004B                      l3266 001B  
                    l3258 0003                      l2394 0008                      l2810 0017  
                    l2802 0001                      l3282 00A7                      l3362 028A  
                    l3354 0253                      l3346 0225                      l3338 01BB  
                    l2900 002F                      l2580 01CC                      l2572 01B7  
                    l2556 0158                      l2564 0189                      l2548 0137  
                    l2484 0064                      l2492 007D                      l2476 0049  
                    l2468 003A                      l2716 04FA                      l2708 04CD  
                    l2660 02F9                      l2652 0229                      l2644 01C3  
                    l2636 00F1                      l2388 0070                      l2740 003A  
                    l2732 001C                      l2820 003C                      l3196 055F  
                    l3188 0526                      l3276 0071                      l3268 0025  
                    l2396 000B                      l3292 0003                      l2812 0018  
                    l2804 0004                      l3364 0293                      l3356 025F  
                    l3348 0229                      l2910 0052                      l2902 0033  
                    l2574 01BF                      l2566 0196                      l2558 0166  
                    l2494 0082                      l2486 0070                      l2478 0051  
                    l2718 04FE                      l2670 03E7                      l2662 030B  
                    l2654 025E                      l2646 01D2                      l2638 0121  
                    l2590 0013                      l2750 0070                      l2742 0047  
                    l2734 002C                      l2726 0003                      l2830 007C  
                    l2822 0049                      l3198 0577                      l3286 0000  
                    l2398 0012                      l3294 0003                      l2814 0027  
                    l2806 000D                      l3278 0000                      l3366 02A0  
                    l3358 0268                      l2904 0044                      l2912 0058  
                    l2576 01C6                      l2568 01A4                      l2488 0074  
                    l2680 0424                      l2672 03FF                      l2664 0352  
                    l2656 027D                      l2648 01E2                      l2592 0019  
                    l2760 00A9                      l2752 007B                      l2744 004E  
                    l2728 0008                      l2840 0083                      l2832 00B8  
                    l2824 0087                      l3288 0004                      l2920 0003  
                    l3296 0007                      l2816 0028                      l2808 0016  
                    l2914 005D                      l2906 004A                      l2578 01CA  
                    l2498 008B                      l2690 0457                      l2674 040E  
                    l2682 042C                      l2666 0390                      l2658 02B2  
                    l2594 001C                      l2586 0000                      l2762 00AE  
                    l2754 007F                      l2746 0052                      l2738 0035  
                    l2850 03C2                      l2842 00BF                      l2834 0000  
                    l2826 0103                      l2818 0000                      l2930 0028  
                    l2922 0007                      l3298 000E                      l2770 0000  
                    l2916 0062                      l2908 004B                      l2684 0430  
                    l2676 0414                      l2668 03D8                      l2596 0023  
                    l2588 0009                      l2764 00B2                      l2756 0089  
                    l2748 0060                      l2852 057C                      l2844 013B  
                    l2836 003C                      l2828 0000                      l2940 005E  
                    l2932 002A                      l2924 001A                      l2780 004E  
                    l2772 001B                      l2870 001A                      l2862 0000  
                    l2694 0463                      l2686 0431                      l2678 0415  
                    l2598 0028                      l2766 00B3                      l2758 0093  
                    l2854 05B8                      l2846 030C                      l2838 0078  
                    l2942 0065                      l2934 003D                      l2926 001E  
                    l2790 000C                      l2782 0052                      l2950 0000  
                    l2880 0005                      l2872 0020                      l2864 0002  
                    l2696 0468                      l2688 0435                      l2848 0386  
                    l2856 05C3                      l2944 0067                      l2936 004E  
                    l2928 0024                      l2792 0015                      l2776 0024  
                    l2960 002D                      l2952 0013                      l2890 0019  
                    l2882 000A                      l2866 0006                      l2698 0476  
                    l2858 05EC                      l2946 006D                      l2938 0056  
                    l2794 0016                      l2786 0000                      l2970 0009  
                    l2778 0041                      l2962 002E                      l2954 0019  
                    l2892 001B                      l2884 000C                      l2876 0000  
                    l2868 0013                      l2796 0017                      l2788 0003  
                    l2980 003F                      l2972 0012                      l2964 0057  
                    l2894 0021                      l2886 0010                      l2878 0001  
                    l2798 0026                      l2982 0048                      l2974 0024  
                    l2990 000F                      l2958 0024                      l2896 0024  
                    l2888 0015                      l2984 0051                      l2976 002D  
                    l2968 0000                      l2992 0015                      l2898 002B  
                    l2978 0036                      l2994 0000                      l2986 0000  
                    l2996 0006                      l2988 0001                      l2998 0014  
                    STR_1 0010                      STR_2 0010                      STR_3 0022  
                    u3000 021F                      u3001 021E                      u3010 0225  
                    u3011 0224                      u3100 000E                      u3020 0237  
                    u3101 000D                      u3021 0236                      u3030 0246  
                    u3120 0022                      u4000 0435                      u3040 0255  
                    u3200 000D                      u3121 0021                      u4001 0434  
                    u3041 0254                      u3201 000C                      u3130 0016  
                    u4010 0457                      u3050 025E                      u3210 0024  
                    u3131 0015                      u3115 0015                      u4011 0456  
                    u3051 025D                      u3035 0241                      u3140 0032  
                    u4020 0462                      u3060 0263                      u3220 003A  
                    u4100 000C                      u3300 0008                      u3141 0031  
                    u4021 0461                      u3061 0262                      u3221 0039  
                    u4101 000B                      u3301 0007                      u3150 003E  
                    u4030 0468                      u3070 0270                      u3230 0041  
                    u4110 002C                      u3151 003D                      u4031 0467  
                    u3071 026F                      u3231 0040                      u3215 001F  
                    u4111 002B                      u4040 047A                      u3080 0275  
                    u4200 009E                      u5000 0383                      u3320 001A  
                    u3400 0022                      u3161 004D                      u4041 0479  
                    u3081 0274                      u5001 0382                      u3321 0019  
                    u3401 0021                      u3170 0066                      u3162 004E  
                    u4050 0497                      u3090 0286                      u3250 0053  
                    u4210 00AE                      u4130 004D                      u5010 039B  
                    u2610 0014                      u3171 0065                      u3163 0053  
                    u3091 0285                      u3251 0052                      u4211 00AD  
                    u4131 004C                      u5011 039A                      u3315 000C  
                    u2611 0013                      u3500 0082                      u3164 0054  
                    u4060 04C2                      u2700 0050                      u3260 005A  
                    u4220 00B2                      u4300 00B8                      u5100 05C6  
                    u5020 03B3                      u3340 002B                      u3420 0035  
                    u2620 0030                      u3501 0081                      u3181 0075  
                    u3165 0059                      u4061 04C1                      u2701 004F  
                    u3261 0059                      u3245 0043                      u4221 00B1  
                    u4205 0099                      u4125 003F                      u4301 00B7  
                    u5101 05C5                      u5021 03B2                      u5005 037F  
                    u3341 002A                      u3421 0034                      u3405 001E  
                    u2621 002F                      u3510 00BC                      u3430 0011  
                    u3190 00A0                      u3182 0076                      u3166 005A  
                    u4070 04DC                      u2710 0069                      u4150 006F  
                    u4310 003C                      u5110 05E5                      u5030 04BF  
                    u2630 004A                      u4230 001B                      u3511 00BB  
                    u3431 0010                      u3191 009F                      u3183 007B  
                    u4071 04DB                      u4055 0492                      u2711 0068  
                    u4151 006E                      u4311 003B                      u5111 05E4  
                    u5031 04BE                      u5015 0397                      u3335 001B  
                    u3415 0029                      u2631 0049                      u4231 001A  
                    u3600 011E                      u3440 0017                      u3184 007C  
                    u4080 04FE                      u2800 010E                      u2720 006D  
                    u2640 0011                      u3280 006B                      u4320 0078  
                    u5120 05FD                      u5040 04EB                      u3360 003F  
                    u5200 0007                      u3601 011D                      u3441 0016  
                    u3185 0081                      u4081 04FD                      u4065 04BE  
                    u2801 010D                      u2721 006C                      u2641 0010  
                    u3281 006A                      u4145 0061                      u4321 0077  
                    u5121 05FC                      u5105 05C2                      u5041 04EA  
                    u5025 03AF                      u3361 003E                      u3345 0027  
                    u5201 0006                      u4410 0020                      u3450 001C  
                    u3186 0082                      u2810 0113                      u2730 00C5  
                    u2650 0017                      u3290 0070                      u4170 007F  
                    u4090 0008                      u4330 00BF                      u5130 0615  
                    u5050 0547                      u3370 0006                      u4411 001F  
                    u3451 001B                      u3195 009C                      u4075 04D8  
                    u2811 0112                      u2731 00C4                      u2651 0016  
                    u3291 006F                      u3275 005D                      u4171 007E  
                    u4091 0007                      u4331 00BE                      u5131 0614  
                    u5115 05E1                      u5051 0546                      u5035 04BB  
                    u3355 0033                      u3371 0005                      u2635 0046  
                    u4500 0058                      u4420 0005                      u3700 01B3  
                    u3620 0132                      u3540 00D2                      u3460 003E  
                    u2900 01B8                      u2740 00D0                      u2660 001C  
                    u4180 0085                      u4340 013B                      u4260 003C  
                    u5140 06F0                      u5060 055F                      u4501 0057  
                    u4421 0004                      u4405 0014                      u3701 01B2  
                    u3621 0131                      u3541 00D1                      u3525 00BE  
                    u3461 003D                      u2901 01B7                      u2821 0125  
                    u2741 00CE                      u2661 001B                      u4181 0084  
                    u4165 0074                      u4341 013A                      u4261 003B  
                    u5141 06EF                      u5125 05F9                      u5061 055E  
                    u5045 04E7                      u4245 001A                      u4510 005D  
                    u4430 0010                      u3710 01CA                      u3630 0137  
                    u3470 0044                      u2910 01DD                      u2830 0137  
                    u2822 012C                      u2750 00D1                      u2670 003A  
                    u4190 0089                      u4350 0386                      u4270 0087  
                    u5070 0577                      u5150 0015                      u3390 0018  
                    u4511 005C                      u4431 000F                      u3711 01C9  
                    u3631 0136                      u3615 0121                      u3535 00C7  
                    u3471 0043                      u2911 01DC                      u2831 0136  
                    u2823 0133                      u2735 00C1                      u2671 0039  
                    u4191 0088                      u4351 0385                      u4271 0084  
                    u5135 0611                      u5071 0576                      u5055 0543  
                    u5151 0014                      u3391 0017                      u4255 001B  
                    u4440 0021                      u3640 014B                      u3560 00EE  
                    u3480 0049                      u3720 0019                      u2920 01E2  
                    u2840 013B                      u2760 00E5                      u2680 0045  
                    u4360 03C2                      u4280 0103                      u5080 0596  
                    u4600 0004                      u5160 001B                      u4520 0024  
                    u4441 0020                      u3705 01AF                      u3641 014A  
                    u3561 00ED                      u3481 0048                      u3801 0107  
                    u3721 0018                      u2921 01E1                      u2841 013A  
                    u2761 00E4                      u2681 0044                      u4361 03C1  
                    u4281 0102                      u5145 06EC                      u5081 0595  
                    u5065 055B                      u5161 001A                      u3385 000A  
                    u4521 0023                      u5217 0046                      u3650 0152  
                    u3570 0107                      u3490 0064                      u3802 0112  
                    u3730 0023                      u2850 014A                      u2770 00F4  
                    u2690 004B                      u4370 05B8                      u4290 007C  
                    u5090 05AE                      u4610 000D                      u5170 0024  
                    u4530 0056                      u3651 0151                      u3571 0106  
                    u3555 00D5                      u3491 0063                      u3811 0137  
                    u3803 011D                      u3731 0022                      u2851 0149  
                    u2771 00F3                      u2691 004A                      u4371 05B7  
                    u4291 0079                      u5091 05AD                      u5075 0573  
                    u5171 0023                      u4531 0055                      u5227 0023  
                    u4460 0033                      u4380 0006                      u3660 0158  
                    u3580 010F                      u3812 0142                      u3740 0028  
                    u2940 01F8                      u4700 0067                      u4620 0019  
                    u5180 002E                      u4540 006D                      u4461 0032  
                    u4381 0005                      u3661 0157                      u3581 010E  
                    u3565 00EA                      u3901 0326                      u3821 0179  
                    u3813 014D                      u3741 0027                      u2941 01F7  
                    u5085 0592                      u4701 0066                      u5181 002D  
                    u4541 006C                      u5237 0008                      u3670 016A  
                    u3910 0364                      u3902 0331                      u3822 0184  
                    u3750 0056                      u2950 01FD                      u2870 016F  
                    u2790 010A                      u4710 007F                      u4630 0021  
                    u5190 0004                      u4550 0019                      u4455 0025  
                    u3671 0169                      u3903 033C                      u3831 01A9  
                    u3823 018F                      u3751 0055                      u2951 01FC  
                    u2935 01ED                      u2871 016E                      u2791 0109  
                    u5095 05AA                      u4711 007E                      u5191 0003  
                    u5247 0004                      u4551 0018                      u4480 0044  
                    u3680 0179                      u3832 01B4                      u3760 0060  
                    u2960 0207                      u4800 0170                      u4720 0097  
                    u4640 01F8                      u4560 002D                      u4481 0043  
                    u3921 0376                      u3833 01BF                      u3761 005F  
                    u2961 0206                      u2881 0186                      u2873 016B  
                    u2865 014D                      u2785 00F7                      u4801 016F  
                    u4721 0096                      u4705 0063                      u4641 01F7  
                    u5257 0016                      u4561 002C                      u3690 0196  
                    u3930 03AC                      u3922 0381                      u3770 0065  
                    u2970 020D                      u2890 019A                      u2882 0187  
                    u4810 0188                      u4730 00B6                      u4650 020C  
                    u4570 0025                      u4475 0034                      u4395 000D  
                    u3691 0195                      u3595 0113                      u3923 038C  
                    u3915 035F                      u3851 01FD                      u3771 0064  
                    u2971 020C                      u2891 019B                      u2883 018C  
                    u4811 0187                      u4731 00B5                      u4715 007B  
                    u4651 020B                      u5267 0028                      u4571 0024  
                    u3852 0208                      u3780 0083                      u2980 0212  
                    u2892 01A0                      u2884 018D                      u4900 0279  
                    u4820 01A7                      u4740 00CE                      u4660 0238  
                    u4580 0006                      u4485 0040                      u3685 0174  
                    u3941 03BE                      u3861 0244                      u3853 0213  
                    u3845 01C7                      u3781 0082                      u2981 0211  
                    u2893 01A1                      u2885 0192                      u4901 0278  
                    u4821 01A6                      u4805 016C                      u4741 00CD  
                    u4725 0093                      u4661 0237                      u4645 01F4  
                    u5277 0007                      u4581 0005                      _DUTY 000A  
                    u3942 03C9                      u3862 024F                      u3790 0088  
                    u2990 0218                      u2886 0193                      u4910 0298  
                    u4830 01BF                      u4750 00E6                      u4670 0018  
                    u4590 001A                      u4495 004C                      u3695 0192  
                    u3943 03D4                      u3935 03A7                      u3863 025A  
                    u3791 0087                      u2991 0217                      u4911 0297  
                    u4831 01BE                      u4815 0184                      u4751 00E5  
                    u4735 00B2                      u4671 0017                      u4655 0208  
                    u5287 0009                      u4591 0019                      u4920 02B0  
                    u4840 01D7                      u4760 0109                      u4680 0030  
                    u3881 0298                      u4921 02AF                      u4905 0275  
                    u4841 01D6                      u4825 01A3                      u4761 0108  
                    u4745 00CA                      u4681 002F                      u4665 0234  
                    u3970 0414                      u3882 02A3                      u4930 02C8  
                    u4850 01FA                      u4770 0121                      u4690 0048  
                    u3971 0413                      u3955 03DC                      u3891 02DF  
                    u3883 02AE                      u3875 0262                      u4931 02C7  
                    u4915 0294                      u4851 01F9                      u4835 01BB  
                    u4771 0120                      u4755 00E2                      u4691 0047  
                    u4675 0014                      u3892 02EA                      u4940 02E5  
                    u4860 0212                      u4780 0139                      u3965 0403  
                    u3893 02F5                      u4941 02E4                      u4925 02AC  
                    u4861 0211                      u4845 01D3                      u4781 0138  
                    u4765 0105                      u4685 002C                      u3990 0430  
                    u4950 02FD                      u4870 022A                      u4790 0158  
                    u3991 042F                      u4951 02FC                      u4935 02C4  
                    u4871 0229                      u4855 01F6                      u4791 0157  
                    u4775 011D                      u4695 0044                      u4960 0315  
                    u4880 0249                      u3985 0419                      u4961 0314  
                    u4945 02E1                      u4881 0248                      u4865 020E  
                    u4785 0135                      u4970 0334                      u4890 0261  
                    u4971 0333                      u4955 02F9                      u4891 0260  
                    u4875 0226                      u4795 0154                      u4980 034C  
                    u4981 034B                      u4965 0311                      u4885 0245  
                    u4990 0364                      u4991 0363                      u4975 0330  
                    u4895 025D                      u4985 0348                      u4995 0360  
                    _TMR1 000E                      Fuz@A 0012                      Fuz@B 0048  
                    Fuz@D 000E                      Fuz@N 000C                      Fuz@X 0027  
                    Fuz@Y 0029                      Fuz@i 001C                      Fuz@j 001A  
                    Fuz@n 000A                      Fuz@z 0052              __CFG_WRT$OFF 0000  
           __CFG_FCMEN$ON 0000                      abs@a 0000                      _main 0000  
                    _itoa 0000                      _pimf 0000                      _velo 0046  
                    btemp 007E                      _utoa 0000             __CFG_BOREN$ON 0000  
                    start 0000*          ___fldiv@new_exp 001C             __CFG_MCLRE$ON 0000  
                   ??_Fuz 002B                     ??_abs 0002             ___fltol@sign1 0049  
         __end_of___fladd 0288                     ?_main 0000           __end_of___fldiv 01DD  
                   ?_itoa 0004           __end_of___awdiv 0067                     ?_pimf 000D  
           __CFG_WDTE$OFF 0000           __end_of___flmul 0529           __end_of___flsub 0024  
         __end_of___fltol 007C                     ?_utoa 0008           ___awdiv@divisor 0000  
                   _T1CON 0010                     _T2CON 0012           __end_of___lwdiv 0044  
         __end_of___lwmod 003A           ___awdiv@counter 0005                     _TMR1H 000F  
                   _TMR1L 000E                     _PORTC 0007                     _PORTD 0008  
                   Fuz@CL 001E                     _TRISC 0087                     _TRISD 0088  
                   Fuz@ii 0050             __CFG_PWRTE$ON 0000           __end_of_lcd_cmd 0029  
         __end_of_lcd_ini 005B           __end_of_lcd_pos 0028                     _centi 004B  
                   _frexp 0000                     _errno 0008                     _setup 0000  
                   _round 0000                     _trunc 0000                     pclath 000A  
                   pimf@a 000F                     pimf@b 0013                     pimf@c 0017  
                   pimf@d 001B                     pimf@x 000D                     utoa@c 0002  
                   utoa@v 0000                     status 0003                     wtemp0 007E  
         __initialization 0000              __end_of_main 02AD              __end_of_itoa 0026  
            __end_of_pimf 05F1              __end_of_utoa 0072                    ??_main 0032  
                  ??_itoa 000D                    ??_pimf 000E                    ??_utoa 000C  
                  ?_frexp 0000                    _CCPR2L 001B          ___awdiv@dividend 0002  
                  ?_setup 0000                    ?_round 0006                    ?_trunc 004B  
                  _OSCCON 008F                    _TMR1ON 0080                    Fuz@FCL 0010  
        __end_of___xxtofl 00BC                    Fuz@Min 0028                    ___flge 0000  
                  ___fleq 0000                 ??___fladd 002C                    ___wmul 0000  
               ??___fldiv 0012                 ??___awdiv 0004                 ??___flmul 0048  
               ??___flsub 000E                 ??___fltol 0044                 ??___lwdiv 0004  
               ??___lwmod 0004          ___awdiv@quotient 0007                    _tiempo 0000  
               ??_lcd_cmd 0002                 ??_lcd_ini 0004                 ??_lcd_pos 0008  
    __size_of_lcd_write_c 002A      __size_of_lcd_write_s 0026        __size_of__Umul8_16 0027  
                  round@f 000A                    round@x 0006                    trunc@i 0000  
                  trunc@x 004B                ___flge@ff1 0038                ___flge@ff2 003C  
            ___xxtofl@arg 0006              ___xxtofl@exp 0005              ___xxtofl@val 0009  
              ___fleq@ff1 0000                ___fleq@ff2 0004   __end_of__initialization 001A  
              ___fltol@f1 0040             lcd_write_c@ch 0002             lcd_write_s@st 0003  
          __pcstackCOMMON 0000             __end_of_frexp 0054             __end_of_setup 002B  
           __end_of_round 00DB             __end_of_trunc 006E        __size_of_distancia 00C2  
                 ??_frexp 000C                   ??_setup 0000                   ??_round 000E  
                 ??_trunc 004F                __pbssBANK1 0000                __pbssBANK2 0000  
              __pbssBANK3 0000            lcd_pos@columna 0006         __end_of__Umul8_16 0027  
              __pmaintext 0000                   ?___flge 0038                   ?___fleq 0000  
                 ?___wmul 0000                   _CCP2CON 001D                 ?___xxtofl 0009  
              __stringtab 0000                   Fuz@step 0006           __size_of___flge 00A4  
         __size_of___fleq 004E                   ___fladd 0000         __end_of_distancia 00C2  
                 ___fldiv 0000                   ___awdiv 0000                   ___flmul 0000  
                 ___flsub 0000                   ___fltol 0000           __size_of___wmul 0025  
                 ___lwdiv 0000                   ___lwmod 0000                   __ptext1 0000  
                 __ptext2 0000                   __ptext3 0000                   __ptext4 0000  
                 __ptext5 0000                   __ptext6 0000                   __ptext7 0000  
                 __ptext8 0000                   __ptext9 0000                   _lcd_cmd 0000  
                 _lcd_ini 0000                   _lcd_pos 0000              __size_of_Fuz 0000  
            __size_of_abs 0011                ??___xxtofl 0000                   clrloop0 0001  
    end_of_initialization 001A                   itoa@buf 0009                   itoa@val 0004  
                 psplit$0 1D0029                   psplit$1 1E002A                   psplit$2 2A002B  
                 utoa@buf 0003                   utoa@val 0008               ___fladd@grs 0037  
           ___xxtofl@sign 0004                lcd_cmd@cmd 0000               ___fldiv@grs 001E  
             ___fldiv@rem 0017               ___flmul@grs 0001            __end_of___flge 00A4  
          __end_of___fleq 004E            __end_of___wmul 0025             ??_lcd_write_c 0000  
           ??_lcd_write_s 0005       start_initialization 0000               __end_of_Fuz 074A  
             __end_of_abs 0011                frexp@value 0000  __CFG_FOSC$INTRC_NOCLKOUT 0000  
                ??___flge 0040                  ??___fleq 0008                  ??___wmul 0004  
               __Umul8_16 0000                 ___fladd@a 0028                 ___fladd@b 0024  
               ___fldiv@a 000A                 ___fldiv@b 000E                 ___flmul@a 0044  
               ___flmul@b 0040                 ___flsub@a 0038                 ___flsub@b 003C  
               ___latbits 0002       __end_of_lcd_write_c 002A       __end_of_lcd_write_s 0026  
           __pcstackBANK0 0000             __pcstackBANK1 0000             __pcstackBANK3 0000  
       __size_of___xxtofl 00BC          ___lwdiv@dividend 0002                  ?___fladd 0024  
                ?___fldiv 000A                  ?___awdiv 0000                  ?___flmul 0040  
                ?___flsub 0038                  ?___fltol 0040                ?__Umul8_16 0000  
                ?___lwdiv 0000                  ?___lwmod 0000                 __pstrings 0000  
               _distancia 0000                  ?_lcd_cmd 0000                  ?_lcd_ini 0000  
                ?_lcd_pos 0004          ___lwdiv@quotient 0005                pnum$text17 001D  
              pnum$text18 001E            __size_of_frexp 0054            __size_of_setup 002B  
          __size_of_round 00DB            __size_of_trunc 006E            ___wmul@product 0004  
               clear_ram0 0000                  Fuz@F1580 0020                  Fuz@F1573 0032  
                Fuz@F1575 002A                  Fuz@F1578 0000               _lcd_write_c 0000  
             _lcd_write_s 0000                ?_distancia 0000               __stringbase 000F  
       ___wmul@multiplier 0000                 frexp@eptr 0004               ??__Umul8_16 0002  
        __size_of___fladd 0288          __size_of___fldiv 01DD          __size_of___awdiv 0067  
        __size_of___flmul 0529          __size_of___flsub 0024          __size_of___fltol 007C  
        __size_of___lwdiv 0044          __size_of___lwmod 003A        __end_of__stringtab 0010  
        __size_of_lcd_cmd 0029          __size_of_lcd_ini 005B          __size_of_lcd_pos 0028  
                ___xxtofl 0000                  _main$825 0034                  _main$826 0038  
                _main$827 003C                  _main$828 0040                  _main$829 0044  
         ___lwdiv@divisor 0000           ___lwdiv@counter 0007                  __ptext10 0000  
                __ptext11 0000                  __ptext20 0000                  __ptext12 0000  
                __ptext21 0000                  __ptext13 0000                  __ptext22 0000  
                __ptext14 0000                  __ptext23 0000                  __ptext15 0000  
                __ptext24 0000                  __ptext16 0000                  __ptext25 0000  
                __ptext17 0000                  __ptext26 0000                  __ptext18 0000  
                __ptext27 0000                  __ptext19 0000                  __ptext28 0000  
       __CFG_BOR4V$BOR40V 0000                  _pimf$823 001F                  _pimf$824 0023  
              trunc@expon 0004             __size_of_main 02AD             __size_of_itoa 0026  
           __size_of_pimf 0000             __size_of_utoa 0072               ??_distancia 0038  
      pnum$text17_split_1 0029        pnum$text18_split_2 002A        pnum$text18_split_3 002B  
                itoa@base 0006          ___lwmod@dividend 0002                 stringcode 000A  
                utoa@base 000A    __Umul8_16@multiplicand 0000           ___lwmod@divisor 0000  
         ___lwmod@counter 0005                  stringdir 000A                  stringtab 0000  
           ___fladd@signs 0034              ___fladd@aexp 0035              ___fladd@bexp 0036  
    __Umul8_16@multiplier 0008         __Umul8_16@product 0004  
