

Microchip MPLAB XC8 Assembler V2.10 build 88905656 
                                                                                               Sat Sep 07 22:58:33 2019

Microchip MPLAB XC8 C Compiler v2.10 (Free license) build 20190730164152 Og1 
     1                           	processor	16F887
     2                           	opt	pw 120
     3                           	opt	flic
     4                           	psect	stringtext,global,reloc=256,class=STRCODE,delta=2
     5                           	psect	cinit,global,class=CODE,merge=1,delta=2
     6                           	psect	bssBANK0,global,class=BANK0,space=1,delta=1
     7                           	psect	cstackCOMMON,global,class=COMMON,space=1,delta=1
     8                           	psect	maintext,global,class=CODE,split=1,delta=2
     9                           	psect	text1,local,class=CODE,merge=1,delta=2
    10                           	psect	text2,local,class=CODE,merge=1,delta=2
    11                           	psect	text3,local,class=CODE,merge=1,delta=2
    12                           	psect	text4,local,class=CODE,merge=1,delta=2
    13                           	psect	text5,local,class=CODE,merge=1,delta=2
    14                           	psect	text6,local,class=CODE,merge=1,delta=2
    15                           	psect	text7,local,class=CODE,merge=1,delta=2
    16                           	psect	text8,local,class=CODE,merge=1,delta=2
    17                           	psect	text9,local,class=CODE,merge=1,delta=2
    18                           	psect	text10,local,class=CODE,merge=1,delta=2
    19                           	psect	text11,local,class=CODE,merge=1,delta=2
    20                           	psect	text12,local,class=CODE,merge=1,delta=2
    21                           	dabs	1,0x7E,2
    22  0000                     
    23                           ; Version 2.10
    24                           ; Generated 31/07/2019 GMT
    25                           ; 
    26                           ; Copyright © 2019, Microchip Technology Inc. and its subsidiaries ("Microchip")
    27                           ; All rights reserved.
    28                           ; 
    29                           ; This software is developed by Microchip Technology Inc. and its subsidiaries ("Microch
      +                          ip").
    30                           ; 
    31                           ; Redistribution and use in source and binary forms, with or without modification, are
    32                           ; permitted provided that the following conditions are met:
    33                           ; 
    34                           ;     1. Redistributions of source code must retain the above copyright notice, this lis
      +                          t of
    35                           ;        conditions and the following disclaimer.
    36                           ; 
    37                           ;     2. Redistributions in binary form must reproduce the above copyright notice, this 
      +                          list
    38                           ;        of conditions and the following disclaimer in the documentation and/or other
    39                           ;        materials provided with the distribution.
    40                           ; 
    41                           ;     3. Microchip's name may not be used to endorse or promote products derived from th
      +                          is
    42                           ;        software without specific prior written permission.
    43                           ; 
    44                           ; THIS SOFTWARE IS PROVIDED BY MICROCHIP "AS IS" AND ANY EXPRESS OR IMPLIED WARRANTIES,
    45                           ; INCLUDING, BUT NOT LIMITED TO, THE IMPLIED WARRANTIES OF MERCHANTABILITY AND FITNESS F
      +                          OR
    46                           ; PURPOSE ARE DISCLAIMED.  IN NO EVENT SHALL MICROCHIP BE LIABLE FOR ANY DIRECT, INDIREC
      +                          T,
    47                           ; INCIDENTAL, SPECIAL, EXEMPLARY, OR CONSEQUENTIAL DAMAGES (INCLUDING BUT NOT LIMITED TO
    48                           ; PROCUREMENT OF SUBSTITUTE GOODS OR SERVICES; LOSS OF USE, DATA OR PROFITS; OR BUSINESS
    49                           ; INTERRUPTION) HOWSOEVER CAUSED AND ON ANY THEORY OF LIABILITY, WHETHER IN CONTRACT, ST
      +                          RICT
    50                           ; LIABILITY, OR TORT (INCLUDING NEGLIGENCE OR OTHERWISE) ARISING IN ANY WAY OUT OF THE U
      +                          SE OF
    51                           ; THIS SOFTWARE, EVEN IF ADVISED OF THE POSSIBILITY OF SUCH DAMAGE.
    52                           ; 
    53                           ; 
    54                           ; Code-generator required, PIC16F887 Definitions
    55                           ; 
    56                           ; SFR Addresses
    57  0000                     	;# 
    58  0001                     	;# 
    59  0002                     	;# 
    60  0003                     	;# 
    61  0004                     	;# 
    62  0005                     	;# 
    63  0006                     	;# 
    64  0007                     	;# 
    65  0008                     	;# 
    66  0009                     	;# 
    67  000A                     	;# 
    68  000B                     	;# 
    69  000C                     	;# 
    70  000D                     	;# 
    71  000E                     	;# 
    72  000E                     	;# 
    73  000F                     	;# 
    74  0010                     	;# 
    75  0011                     	;# 
    76  0012                     	;# 
    77  0013                     	;# 
    78  0014                     	;# 
    79  0015                     	;# 
    80  0015                     	;# 
    81  0016                     	;# 
    82  0017                     	;# 
    83  0018                     	;# 
    84  0019                     	;# 
    85  001A                     	;# 
    86  001B                     	;# 
    87  001B                     	;# 
    88  001C                     	;# 
    89  001D                     	;# 
    90  001E                     	;# 
    91  001F                     	;# 
    92  0081                     	;# 
    93  0085                     	;# 
    94  0086                     	;# 
    95  0087                     	;# 
    96  0088                     	;# 
    97  0089                     	;# 
    98  008C                     	;# 
    99  008D                     	;# 
   100  008E                     	;# 
   101  008F                     	;# 
   102  0090                     	;# 
   103  0091                     	;# 
   104  0092                     	;# 
   105  0093                     	;# 
   106  0093                     	;# 
   107  0093                     	;# 
   108  0094                     	;# 
   109  0095                     	;# 
   110  0096                     	;# 
   111  0097                     	;# 
   112  0098                     	;# 
   113  0099                     	;# 
   114  009A                     	;# 
   115  009B                     	;# 
   116  009C                     	;# 
   117  009D                     	;# 
   118  009E                     	;# 
   119  009F                     	;# 
   120  0105                     	;# 
   121  0107                     	;# 
   122  0108                     	;# 
   123  0109                     	;# 
   124  010C                     	;# 
   125  010C                     	;# 
   126  010D                     	;# 
   127  010E                     	;# 
   128  010F                     	;# 
   129  0185                     	;# 
   130  0187                     	;# 
   131  0188                     	;# 
   132  0189                     	;# 
   133  018C                     	;# 
   134  018D                     	;# 
   135  0000                     	;# 
   136  0001                     	;# 
   137  0002                     	;# 
   138  0003                     	;# 
   139  0004                     	;# 
   140  0005                     	;# 
   141  0006                     	;# 
   142  0007                     	;# 
   143  0008                     	;# 
   144  0009                     	;# 
   145  000A                     	;# 
   146  000B                     	;# 
   147  000C                     	;# 
   148  000D                     	;# 
   149  000E                     	;# 
   150  000E                     	;# 
   151  000F                     	;# 
   152  0010                     	;# 
   153  0011                     	;# 
   154  0012                     	;# 
   155  0013                     	;# 
   156  0014                     	;# 
   157  0015                     	;# 
   158  0015                     	;# 
   159  0016                     	;# 
   160  0017                     	;# 
   161  0018                     	;# 
   162  0019                     	;# 
   163  001A                     	;# 
   164  001B                     	;# 
   165  001B                     	;# 
   166  001C                     	;# 
   167  001D                     	;# 
   168  001E                     	;# 
   169  001F                     	;# 
   170  0081                     	;# 
   171  0085                     	;# 
   172  0086                     	;# 
   173  0087                     	;# 
   174  0088                     	;# 
   175  0089                     	;# 
   176  008C                     	;# 
   177  008D                     	;# 
   178  008E                     	;# 
   179  008F                     	;# 
   180  0090                     	;# 
   181  0091                     	;# 
   182  0092                     	;# 
   183  0093                     	;# 
   184  0093                     	;# 
   185  0093                     	;# 
   186  0094                     	;# 
   187  0095                     	;# 
   188  0096                     	;# 
   189  0097                     	;# 
   190  0098                     	;# 
   191  0099                     	;# 
   192  009A                     	;# 
   193  009B                     	;# 
   194  009C                     	;# 
   195  009D                     	;# 
   196  009E                     	;# 
   197  009F                     	;# 
   198  0105                     	;# 
   199  0107                     	;# 
   200  0108                     	;# 
   201  0109                     	;# 
   202  010C                     	;# 
   203  010C                     	;# 
   204  010D                     	;# 
   205  010E                     	;# 
   206  010F                     	;# 
   207  0185                     	;# 
   208  0187                     	;# 
   209  0188                     	;# 
   210  0189                     	;# 
   211  018C                     	;# 
   212  018D                     	;# 
   213  0000                     	;# 
   214  0001                     	;# 
   215  0002                     	;# 
   216  0003                     	;# 
   217  0004                     	;# 
   218  0005                     	;# 
   219  0006                     	;# 
   220  0007                     	;# 
   221  0008                     	;# 
   222  0009                     	;# 
   223  000A                     	;# 
   224  000B                     	;# 
   225  000C                     	;# 
   226  000D                     	;# 
   227  000E                     	;# 
   228  000E                     	;# 
   229  000F                     	;# 
   230  0010                     	;# 
   231  0011                     	;# 
   232  0012                     	;# 
   233  0013                     	;# 
   234  0014                     	;# 
   235  0015                     	;# 
   236  0015                     	;# 
   237  0016                     	;# 
   238  0017                     	;# 
   239  0018                     	;# 
   240  0019                     	;# 
   241  001A                     	;# 
   242  001B                     	;# 
   243  001B                     	;# 
   244  001C                     	;# 
   245  001D                     	;# 
   246  001E                     	;# 
   247  001F                     	;# 
   248  0081                     	;# 
   249  0085                     	;# 
   250  0086                     	;# 
   251  0087                     	;# 
   252  0088                     	;# 
   253  0089                     	;# 
   254  008C                     	;# 
   255  008D                     	;# 
   256  008E                     	;# 
   257  008F                     	;# 
   258  0090                     	;# 
   259  0091                     	;# 
   260  0092                     	;# 
   261  0093                     	;# 
   262  0093                     	;# 
   263  0093                     	;# 
   264  0094                     	;# 
   265  0095                     	;# 
   266  0096                     	;# 
   267  0097                     	;# 
   268  0098                     	;# 
   269  0099                     	;# 
   270  009A                     	;# 
   271  009B                     	;# 
   272  009C                     	;# 
   273  009D                     	;# 
   274  009E                     	;# 
   275  009F                     	;# 
   276  0105                     	;# 
   277  0107                     	;# 
   278  0108                     	;# 
   279  0109                     	;# 
   280  010C                     	;# 
   281  010C                     	;# 
   282  010D                     	;# 
   283  010E                     	;# 
   284  010F                     	;# 
   285  0185                     	;# 
   286  0187                     	;# 
   287  0188                     	;# 
   288  0189                     	;# 
   289  018C                     	;# 
   290  018D                     	;# 
   291                           
   292                           	psect	stringtext
   293  0800                     __pstringtext:	
   294  0800                     stringtab:	
   295  0800                     __stringtab:	
   296                           
   297                           ;	String table - string pointers are 2 bytes each
   298  0800  1BFF               	btfsc	btemp+1,7
   299  0801  280A               	ljmp	stringcode
   300  0802  1383               	bcf	3,7
   301  0803  187F               	btfsc	btemp+1,0
   302  0804  1783               	bsf	3,7
   303  0805  0800               	movf	0,w
   304  0806  0A84               	incf	4,f
   305  0807  1903               	skipnz
   306  0808  0AFF               	incf	btemp+1,f
   307  0809  0008               	return
   308  080A                     stringcode:	
   309  080A  087F               	movf	btemp+1,w
   310  080B  397F               	andlw	127
   311  080C  008A               	movwf	10
   312  080D  0804               	movf	4,w
   313  080E  0A84               	incf	4,f
   314  080F  1903               	skipnz
   315  0810  0AFF               	incf	btemp+1,f
   316  0811  0082               	movwf	2
   317  0812                     __stringbase:	
   318  0812                     __end_of__stringtab:	
   319  0812                     _A_GlcdFontTable_U8:	
   320  0812  3400               	retlw	0
   321  0813  3400               	retlw	0
   322  0814  3400               	retlw	0
   323  0815  3400               	retlw	0
   324  0816  3400               	retlw	0
   325  0817  3400               	retlw	0
   326  0818  3400               	retlw	0
   327  0819  342F               	retlw	47
   328  081A  3400               	retlw	0
   329  081B  3400               	retlw	0
   330  081C  3400               	retlw	0
   331  081D  3407               	retlw	7
   332  081E  3400               	retlw	0
   333  081F  3407               	retlw	7
   334  0820  3400               	retlw	0
   335  0821  3414               	retlw	20
   336  0822  347F               	retlw	127
   337  0823  3414               	retlw	20
   338  0824  347F               	retlw	127
   339  0825  3414               	retlw	20
   340  0826  3424               	retlw	36
   341  0827  342A               	retlw	42
   342  0828  347F               	retlw	127
   343  0829  342A               	retlw	42
   344  082A  3412               	retlw	18
   345  082B  3423               	retlw	35
   346  082C  3413               	retlw	19
   347  082D  3408               	retlw	8
   348  082E  3464               	retlw	100
   349  082F  3462               	retlw	98
   350  0830  3436               	retlw	54
   351  0831  3449               	retlw	73
   352  0832  3455               	retlw	85
   353  0833  3422               	retlw	34
   354  0834  3450               	retlw	80
   355  0835  3400               	retlw	0
   356  0836  3405               	retlw	5
   357  0837  3403               	retlw	3
   358  0838  3400               	retlw	0
   359  0839  3400               	retlw	0
   360  083A  3400               	retlw	0
   361  083B  341C               	retlw	28
   362  083C  3422               	retlw	34
   363  083D  3441               	retlw	65
   364  083E  3400               	retlw	0
   365  083F  3400               	retlw	0
   366  0840  3441               	retlw	65
   367  0841  3422               	retlw	34
   368  0842  341C               	retlw	28
   369  0843  3400               	retlw	0
   370  0844  3414               	retlw	20
   371  0845  3408               	retlw	8
   372  0846  343E               	retlw	62
   373  0847  3408               	retlw	8
   374  0848  3414               	retlw	20
   375  0849  3408               	retlw	8
   376  084A  3408               	retlw	8
   377  084B  343E               	retlw	62
   378  084C  3408               	retlw	8
   379  084D  3408               	retlw	8
   380  084E  3400               	retlw	0
   381  084F  3400               	retlw	0
   382  0850  34A0               	retlw	160
   383  0851  3460               	retlw	96
   384  0852  3400               	retlw	0
   385  0853  3408               	retlw	8
   386  0854  3408               	retlw	8
   387  0855  3408               	retlw	8
   388  0856  3408               	retlw	8
   389  0857  3408               	retlw	8
   390  0858  3400               	retlw	0
   391  0859  3460               	retlw	96
   392  085A  3460               	retlw	96
   393  085B  3400               	retlw	0
   394  085C  3400               	retlw	0
   395  085D  3420               	retlw	32
   396  085E  3410               	retlw	16
   397  085F  3408               	retlw	8
   398  0860  3404               	retlw	4
   399  0861  3402               	retlw	2
   400  0862  343E               	retlw	62
   401  0863  3451               	retlw	81
   402  0864  3449               	retlw	73
   403  0865  3445               	retlw	69
   404  0866  343E               	retlw	62
   405  0867  3400               	retlw	0
   406  0868  3442               	retlw	66
   407  0869  347F               	retlw	127
   408  086A  3440               	retlw	64
   409  086B  3400               	retlw	0
   410  086C  3442               	retlw	66
   411  086D  3461               	retlw	97
   412  086E  3451               	retlw	81
   413  086F  3449               	retlw	73
   414  0870  3446               	retlw	70
   415  0871  3421               	retlw	33
   416  0872  3441               	retlw	65
   417  0873  3445               	retlw	69
   418  0874  344B               	retlw	75
   419  0875  3431               	retlw	49
   420  0876  3418               	retlw	24
   421  0877  3414               	retlw	20
   422  0878  3412               	retlw	18
   423  0879  347F               	retlw	127
   424  087A  3410               	retlw	16
   425  087B  3427               	retlw	39
   426  087C  3445               	retlw	69
   427  087D  3445               	retlw	69
   428  087E  3445               	retlw	69
   429  087F  3439               	retlw	57
   430  0880  343C               	retlw	60
   431  0881  344A               	retlw	74
   432  0882  3449               	retlw	73
   433  0883  3449               	retlw	73
   434  0884  3430               	retlw	48
   435  0885  3401               	retlw	1
   436  0886  3471               	retlw	113
   437  0887  3409               	retlw	9
   438  0888  3405               	retlw	5
   439  0889  3403               	retlw	3
   440  088A  3436               	retlw	54
   441  088B  3449               	retlw	73
   442  088C  3449               	retlw	73
   443  088D  3449               	retlw	73
   444  088E  3436               	retlw	54
   445  088F  3406               	retlw	6
   446  0890  3449               	retlw	73
   447  0891  3449               	retlw	73
   448  0892  3429               	retlw	41
   449  0893  341E               	retlw	30
   450  0894  3400               	retlw	0
   451  0895  3436               	retlw	54
   452  0896  3436               	retlw	54
   453  0897  3400               	retlw	0
   454  0898  3400               	retlw	0
   455  0899  3400               	retlw	0
   456  089A  3456               	retlw	86
   457  089B  3436               	retlw	54
   458  089C  3400               	retlw	0
   459  089D  3400               	retlw	0
   460  089E  3408               	retlw	8
   461  089F  3414               	retlw	20
   462  08A0  3422               	retlw	34
   463  08A1  3441               	retlw	65
   464  08A2  3400               	retlw	0
   465  08A3  3414               	retlw	20
   466  08A4  3414               	retlw	20
   467  08A5  3414               	retlw	20
   468  08A6  3414               	retlw	20
   469  08A7  3414               	retlw	20
   470  08A8  3400               	retlw	0
   471  08A9  3441               	retlw	65
   472  08AA  3422               	retlw	34
   473  08AB  3414               	retlw	20
   474  08AC  3408               	retlw	8
   475  08AD  3402               	retlw	2
   476  08AE  3401               	retlw	1
   477  08AF  3451               	retlw	81
   478  08B0  3409               	retlw	9
   479  08B1  3406               	retlw	6
   480  08B2  3432               	retlw	50
   481  08B3  3449               	retlw	73
   482  08B4  3459               	retlw	89
   483  08B5  3451               	retlw	81
   484  08B6  343E               	retlw	62
   485  08B7  347C               	retlw	124
   486  08B8  3412               	retlw	18
   487  08B9  3411               	retlw	17
   488  08BA  3412               	retlw	18
   489  08BB  347C               	retlw	124
   490  08BC  347F               	retlw	127
   491  08BD  3449               	retlw	73
   492  08BE  3449               	retlw	73
   493  08BF  3449               	retlw	73
   494  08C0  3436               	retlw	54
   495  08C1  343E               	retlw	62
   496  08C2  3441               	retlw	65
   497  08C3  3441               	retlw	65
   498  08C4  3441               	retlw	65
   499  08C5  3422               	retlw	34
   500  08C6  347F               	retlw	127
   501  08C7  3441               	retlw	65
   502  08C8  3441               	retlw	65
   503  08C9  3422               	retlw	34
   504  08CA  341C               	retlw	28
   505  08CB  347F               	retlw	127
   506  08CC  3449               	retlw	73
   507  08CD  3449               	retlw	73
   508  08CE  3449               	retlw	73
   509  08CF  3441               	retlw	65
   510  08D0  347F               	retlw	127
   511  08D1  3409               	retlw	9
   512  08D2  3409               	retlw	9
   513  08D3  3409               	retlw	9
   514  08D4  3401               	retlw	1
   515  08D5  343E               	retlw	62
   516  08D6  3441               	retlw	65
   517  08D7  3449               	retlw	73
   518  08D8  3449               	retlw	73
   519  08D9  347A               	retlw	122
   520  08DA  347F               	retlw	127
   521  08DB  3408               	retlw	8
   522  08DC  3408               	retlw	8
   523  08DD  3408               	retlw	8
   524  08DE  347F               	retlw	127
   525  08DF  3400               	retlw	0
   526  08E0  3441               	retlw	65
   527  08E1  347F               	retlw	127
   528  08E2  3441               	retlw	65
   529  08E3  3400               	retlw	0
   530  08E4  3420               	retlw	32
   531  08E5  3440               	retlw	64
   532  08E6  3441               	retlw	65
   533  08E7  343F               	retlw	63
   534  08E8  3401               	retlw	1
   535  08E9  347F               	retlw	127
   536  08EA  3408               	retlw	8
   537  08EB  3414               	retlw	20
   538  08EC  3422               	retlw	34
   539  08ED  3441               	retlw	65
   540  08EE  347F               	retlw	127
   541  08EF  3440               	retlw	64
   542  08F0  3440               	retlw	64
   543  08F1  3440               	retlw	64
   544  08F2  3440               	retlw	64
   545  08F3  347F               	retlw	127
   546  08F4  3402               	retlw	2
   547  08F5  340C               	retlw	12
   548  08F6  3402               	retlw	2
   549  08F7  347F               	retlw	127
   550  08F8  347F               	retlw	127
   551  08F9  3404               	retlw	4
   552  08FA  3408               	retlw	8
   553  08FB  3410               	retlw	16
   554  08FC  347F               	retlw	127
   555  08FD  343E               	retlw	62
   556  08FE  3441               	retlw	65
   557  08FF  3441               	retlw	65
   558  0900  3441               	retlw	65
   559  0901  343E               	retlw	62
   560  0902  347F               	retlw	127
   561  0903  3409               	retlw	9
   562  0904  3409               	retlw	9
   563  0905  3409               	retlw	9
   564  0906  3406               	retlw	6
   565  0907  343E               	retlw	62
   566  0908  3441               	retlw	65
   567  0909  3451               	retlw	81
   568  090A  3421               	retlw	33
   569  090B  345E               	retlw	94
   570  090C  347F               	retlw	127
   571  090D  3409               	retlw	9
   572  090E  3419               	retlw	25
   573  090F  3429               	retlw	41
   574  0910  3446               	retlw	70
   575  0911  3446               	retlw	70
   576  0912  3449               	retlw	73
   577  0913  3449               	retlw	73
   578  0914  3449               	retlw	73
   579  0915  3431               	retlw	49
   580  0916  3401               	retlw	1
   581  0917  3401               	retlw	1
   582  0918  347F               	retlw	127
   583  0919  3401               	retlw	1
   584  091A  3401               	retlw	1
   585  091B  343F               	retlw	63
   586  091C  3440               	retlw	64
   587  091D  3440               	retlw	64
   588  091E  3440               	retlw	64
   589  091F  343F               	retlw	63
   590  0920  341F               	retlw	31
   591  0921  3420               	retlw	32
   592  0922  3440               	retlw	64
   593  0923  3420               	retlw	32
   594  0924  341F               	retlw	31
   595  0925  343F               	retlw	63
   596  0926  3440               	retlw	64
   597  0927  3438               	retlw	56
   598  0928  3440               	retlw	64
   599  0929  343F               	retlw	63
   600  092A  3463               	retlw	99
   601  092B  3414               	retlw	20
   602  092C  3408               	retlw	8
   603  092D  3414               	retlw	20
   604  092E  3463               	retlw	99
   605  092F  3407               	retlw	7
   606  0930  3408               	retlw	8
   607  0931  3470               	retlw	112
   608  0932  3408               	retlw	8
   609  0933  3407               	retlw	7
   610  0934  3461               	retlw	97
   611  0935  3451               	retlw	81
   612  0936  3449               	retlw	73
   613  0937  3445               	retlw	69
   614  0938  3443               	retlw	67
   615  0939  3400               	retlw	0
   616  093A  347F               	retlw	127
   617  093B  3441               	retlw	65
   618  093C  3441               	retlw	65
   619  093D  3400               	retlw	0
   620  093E  3455               	retlw	85
   621  093F  34AA               	retlw	170
   622  0940  3455               	retlw	85
   623  0941  34AA               	retlw	170
   624  0942  3455               	retlw	85
   625  0943  3400               	retlw	0
   626  0944  3441               	retlw	65
   627  0945  3441               	retlw	65
   628  0946  347F               	retlw	127
   629  0947  3400               	retlw	0
   630  0948  3404               	retlw	4
   631  0949  3402               	retlw	2
   632  094A  3401               	retlw	1
   633  094B  3402               	retlw	2
   634  094C  3404               	retlw	4
   635  094D  3440               	retlw	64
   636  094E  3440               	retlw	64
   637  094F  3440               	retlw	64
   638  0950  3440               	retlw	64
   639  0951  3440               	retlw	64
   640  0952  3400               	retlw	0
   641  0953  3403               	retlw	3
   642  0954  3405               	retlw	5
   643  0955  3400               	retlw	0
   644  0956  3400               	retlw	0
   645  0957  3420               	retlw	32
   646  0958  3454               	retlw	84
   647  0959  3454               	retlw	84
   648  095A  3454               	retlw	84
   649  095B  3478               	retlw	120
   650  095C  347F               	retlw	127
   651  095D  3448               	retlw	72
   652  095E  3444               	retlw	68
   653  095F  3444               	retlw	68
   654  0960  3438               	retlw	56
   655  0961  3438               	retlw	56
   656  0962  3444               	retlw	68
   657  0963  3444               	retlw	68
   658  0964  3444               	retlw	68
   659  0965  3420               	retlw	32
   660  0966  3438               	retlw	56
   661  0967  3444               	retlw	68
   662  0968  3444               	retlw	68
   663  0969  3448               	retlw	72
   664  096A  347F               	retlw	127
   665  096B  3438               	retlw	56
   666  096C  3454               	retlw	84
   667  096D  3454               	retlw	84
   668  096E  3454               	retlw	84
   669  096F  3418               	retlw	24
   670  0970  3408               	retlw	8
   671  0971  347E               	retlw	126
   672  0972  3409               	retlw	9
   673  0973  3401               	retlw	1
   674  0974  3402               	retlw	2
   675  0975  3418               	retlw	24
   676  0976  34A4               	retlw	164
   677  0977  34A4               	retlw	164
   678  0978  34A4               	retlw	164
   679  0979  347C               	retlw	124
   680  097A  347F               	retlw	127
   681  097B  3408               	retlw	8
   682  097C  3404               	retlw	4
   683  097D  3404               	retlw	4
   684  097E  3478               	retlw	120
   685  097F  3400               	retlw	0
   686  0980  3444               	retlw	68
   687  0981  347D               	retlw	125
   688  0982  3440               	retlw	64
   689  0983  3400               	retlw	0
   690  0984  3440               	retlw	64
   691  0985  3480               	retlw	128
   692  0986  3484               	retlw	132
   693  0987  347D               	retlw	125
   694  0988  3400               	retlw	0
   695  0989  347F               	retlw	127
   696  098A  3410               	retlw	16
   697  098B  3428               	retlw	40
   698  098C  3444               	retlw	68
   699  098D  3400               	retlw	0
   700  098E  3400               	retlw	0
   701  098F  3441               	retlw	65
   702  0990  347F               	retlw	127
   703  0991  3440               	retlw	64
   704  0992  3400               	retlw	0
   705  0993  347C               	retlw	124
   706  0994  3404               	retlw	4
   707  0995  3418               	retlw	24
   708  0996  3404               	retlw	4
   709  0997  3478               	retlw	120
   710  0998  347C               	retlw	124
   711  0999  3408               	retlw	8
   712  099A  3404               	retlw	4
   713  099B  3404               	retlw	4
   714  099C  3478               	retlw	120
   715  099D  3438               	retlw	56
   716  099E  3444               	retlw	68
   717  099F  3444               	retlw	68
   718  09A0  3444               	retlw	68
   719  09A1  3438               	retlw	56
   720  09A2  34FC               	retlw	252
   721  09A3  3424               	retlw	36
   722  09A4  3424               	retlw	36
   723  09A5  3424               	retlw	36
   724  09A6  3418               	retlw	24
   725  09A7  3418               	retlw	24
   726  09A8  3424               	retlw	36
   727  09A9  3424               	retlw	36
   728  09AA  3418               	retlw	24
   729  09AB  34FC               	retlw	252
   730  09AC  347C               	retlw	124
   731  09AD  3408               	retlw	8
   732  09AE  3404               	retlw	4
   733  09AF  3404               	retlw	4
   734  09B0  3408               	retlw	8
   735  09B1  3448               	retlw	72
   736  09B2  3454               	retlw	84
   737  09B3  3454               	retlw	84
   738  09B4  3454               	retlw	84
   739  09B5  3420               	retlw	32
   740  09B6  3404               	retlw	4
   741  09B7  343F               	retlw	63
   742  09B8  3444               	retlw	68
   743  09B9  3440               	retlw	64
   744  09BA  3420               	retlw	32
   745  09BB  343C               	retlw	60
   746  09BC  3440               	retlw	64
   747  09BD  3440               	retlw	64
   748  09BE  3420               	retlw	32
   749  09BF  347C               	retlw	124
   750  09C0  341C               	retlw	28
   751  09C1  3420               	retlw	32
   752  09C2  3440               	retlw	64
   753  09C3  3420               	retlw	32
   754  09C4  341C               	retlw	28
   755  09C5  343C               	retlw	60
   756  09C6  3440               	retlw	64
   757  09C7  3430               	retlw	48
   758  09C8  3440               	retlw	64
   759  09C9  343C               	retlw	60
   760  09CA  3444               	retlw	68
   761  09CB  3428               	retlw	40
   762  09CC  3410               	retlw	16
   763  09CD  3428               	retlw	40
   764  09CE  3444               	retlw	68
   765  09CF  341C               	retlw	28
   766  09D0  34A0               	retlw	160
   767  09D1  34A0               	retlw	160
   768  09D2  34A0               	retlw	160
   769  09D3  347C               	retlw	124
   770  09D4  3444               	retlw	68
   771  09D5  3464               	retlw	100
   772  09D6  3454               	retlw	84
   773  09D7  344C               	retlw	76
   774  09D8  3444               	retlw	68
   775  09D9  3400               	retlw	0
   776  09DA  3410               	retlw	16
   777  09DB  347C               	retlw	124
   778  09DC  3482               	retlw	130
   779  09DD  3400               	retlw	0
   780  09DE  3400               	retlw	0
   781  09DF  3400               	retlw	0
   782  09E0  34FF               	retlw	255
   783  09E1  3400               	retlw	0
   784  09E2  3400               	retlw	0
   785  09E3  3400               	retlw	0
   786  09E4  3482               	retlw	130
   787  09E5  347C               	retlw	124
   788  09E6  3410               	retlw	16
   789  09E7  3400               	retlw	0
   790  09E8  3400               	retlw	0
   791  09E9  3406               	retlw	6
   792  09EA  3409               	retlw	9
   793  09EB  3409               	retlw	9
   794  09EC  3406               	retlw	6
   795  09ED                     __end_of_A_GlcdFontTable_U8:	
   796  09ED                     _meme:	
   797  09ED  34FF               	retlw	255
   798  09EE  34FF               	retlw	255
   799  09EF  34FF               	retlw	255
   800  09F0  34FF               	retlw	255
   801  09F1  34FF               	retlw	255
   802  09F2  34FF               	retlw	255
   803  09F3  34FF               	retlw	255
   804  09F4  34FF               	retlw	255
   805  09F5  34FF               	retlw	255
   806  09F6  34FF               	retlw	255
   807  09F7  34FF               	retlw	255
   808  09F8  34FF               	retlw	255
   809  09F9  34FF               	retlw	255
   810  09FA  34FF               	retlw	255
   811  09FB  34FF               	retlw	255
   812  09FC  34FF               	retlw	255
   813  09FD  34FF               	retlw	255
   814  09FE  34FF               	retlw	255
   815  09FF  34FF               	retlw	255
   816  0A00  34FF               	retlw	255
   817  0A01  34FF               	retlw	255
   818  0A02  34FF               	retlw	255
   819  0A03  34FF               	retlw	255
   820  0A04  34FF               	retlw	255
   821  0A05  34C0               	retlw	192
   822  0A06  3400               	retlw	0
   823  0A07  3400               	retlw	0
   824  0A08  3400               	retlw	0
   825  0A09  3400               	retlw	0
   826  0A0A  3400               	retlw	0
   827  0A0B  3400               	retlw	0
   828  0A0C  3400               	retlw	0
   829  0A0D  3400               	retlw	0
   830  0A0E  3400               	retlw	0
   831  0A0F  3400               	retlw	0
   832  0A10  3401               	retlw	1
   833  0A11  3403               	retlw	3
   834  0A12  3403               	retlw	3
   835  0A13  3407               	retlw	7
   836  0A14  3407               	retlw	7
   837  0A15  340F               	retlw	15
   838  0A16  341F               	retlw	31
   839  0A17  341F               	retlw	31
   840  0A18  343F               	retlw	63
   841  0A19  347F               	retlw	127
   842  0A1A  347F               	retlw	127
   843  0A1B  34FF               	retlw	255
   844  0A1C  34FF               	retlw	255
   845  0A1D  34FF               	retlw	255
   846  0A1E  34FF               	retlw	255
   847  0A1F  34FF               	retlw	255
   848  0A20  34FF               	retlw	255
   849  0A21  34FF               	retlw	255
   850  0A22  34FF               	retlw	255
   851  0A23  34FF               	retlw	255
   852  0A24  34FF               	retlw	255
   853  0A25  34FF               	retlw	255
   854  0A26  34FF               	retlw	255
   855  0A27  34FF               	retlw	255
   856  0A28  34FF               	retlw	255
   857  0A29  34FF               	retlw	255
   858  0A2A  34FF               	retlw	255
   859  0A2B  34FF               	retlw	255
   860  0A2C  34FF               	retlw	255
   861  0A2D  34FF               	retlw	255
   862  0A2E  34FF               	retlw	255
   863  0A2F  34FF               	retlw	255
   864  0A30  34FF               	retlw	255
   865  0A31  34FF               	retlw	255
   866  0A32  34FF               	retlw	255
   867  0A33  34FF               	retlw	255
   868  0A34  34FF               	retlw	255
   869  0A35  34FF               	retlw	255
   870  0A36  34FF               	retlw	255
   871  0A37  34FF               	retlw	255
   872  0A38  34FF               	retlw	255
   873  0A39  34FF               	retlw	255
   874  0A3A  34FF               	retlw	255
   875  0A3B  34FF               	retlw	255
   876  0A3C  34FF               	retlw	255
   877  0A3D  34FF               	retlw	255
   878  0A3E  34FF               	retlw	255
   879  0A3F  34FF               	retlw	255
   880  0A40  34FF               	retlw	255
   881  0A41  34FF               	retlw	255
   882  0A42  34FF               	retlw	255
   883  0A43  34FF               	retlw	255
   884  0A44  34FF               	retlw	255
   885  0A45  34FF               	retlw	255
   886  0A46  34FF               	retlw	255
   887  0A47  34FF               	retlw	255
   888  0A48  34FF               	retlw	255
   889  0A49  34FF               	retlw	255
   890  0A4A  34FF               	retlw	255
   891  0A4B  34FF               	retlw	255
   892  0A4C  34FF               	retlw	255
   893  0A4D  34FF               	retlw	255
   894  0A4E  34FF               	retlw	255
   895  0A4F  34FF               	retlw	255
   896  0A50  34FF               	retlw	255
   897  0A51  34FF               	retlw	255
   898  0A52  34FF               	retlw	255
   899  0A53  34FF               	retlw	255
   900  0A54  34FF               	retlw	255
   901  0A55  34FF               	retlw	255
   902  0A56  34FF               	retlw	255
   903  0A57  34FF               	retlw	255
   904  0A58  347F               	retlw	127
   905  0A59  347F               	retlw	127
   906  0A5A  343F               	retlw	63
   907  0A5B  343F               	retlw	63
   908  0A5C  341F               	retlw	31
   909  0A5D  341F               	retlw	31
   910  0A5E  341F               	retlw	31
   911  0A5F  340F               	retlw	15
   912  0A60  340F               	retlw	15
   913  0A61  340F               	retlw	15
   914  0A62  3407               	retlw	7
   915  0A63  3407               	retlw	7
   916  0A64  3403               	retlw	3
   917  0A65  3403               	retlw	3
   918  0A66  3403               	retlw	3
   919  0A67  3403               	retlw	3
   920  0A68  3401               	retlw	1
   921  0A69  34FF               	retlw	255
   922  0A6A  34FF               	retlw	255
   923  0A6B  34FF               	retlw	255
   924  0A6C  34FF               	retlw	255
   925  0A6D  34FF               	retlw	255
   926  0A6E  34FF               	retlw	255
   927  0A6F  34FF               	retlw	255
   928  0A70  34FF               	retlw	255
   929  0A71  34FF               	retlw	255
   930  0A72  34FF               	retlw	255
   931  0A73  34FF               	retlw	255
   932  0A74  34FF               	retlw	255
   933  0A75  34FF               	retlw	255
   934  0A76  34FF               	retlw	255
   935  0A77  34FF               	retlw	255
   936  0A78  34FF               	retlw	255
   937  0A79  34FF               	retlw	255
   938  0A7A  34FF               	retlw	255
   939  0A7B  34FF               	retlw	255
   940  0A7C  34FF               	retlw	255
   941  0A7D  34FF               	retlw	255
   942  0A7E  34FF               	retlw	255
   943  0A7F  34FF               	retlw	255
   944  0A80  34FF               	retlw	255
   945  0A81  34FF               	retlw	255
   946  0A82  34FF               	retlw	255
   947  0A83  34FF               	retlw	255
   948  0A84  34FF               	retlw	255
   949  0A85  34FF               	retlw	255
   950  0A86  34FE               	retlw	254
   951  0A87  34F8               	retlw	248
   952  0A88  34E0               	retlw	224
   953  0A89  3480               	retlw	128
   954  0A8A  3400               	retlw	0
   955  0A8B  3400               	retlw	0
   956  0A8C  3400               	retlw	0
   957  0A8D  3400               	retlw	0
   958  0A8E  3400               	retlw	0
   959  0A8F  3400               	retlw	0
   960  0A90  3400               	retlw	0
   961  0A91  3400               	retlw	0
   962  0A92  3400               	retlw	0
   963  0A93  3400               	retlw	0
   964  0A94  3400               	retlw	0
   965  0A95  3400               	retlw	0
   966  0A96  3400               	retlw	0
   967  0A97  3400               	retlw	0
   968  0A98  3400               	retlw	0
   969  0A99  3400               	retlw	0
   970  0A9A  3400               	retlw	0
   971  0A9B  3400               	retlw	0
   972  0A9C  3401               	retlw	1
   973  0A9D  3403               	retlw	3
   974  0A9E  3403               	retlw	3
   975  0A9F  3407               	retlw	7
   976  0AA0  340F               	retlw	15
   977  0AA1  341F               	retlw	31
   978  0AA2  343F               	retlw	63
   979  0AA3  347F               	retlw	127
   980  0AA4  34FF               	retlw	255
   981  0AA5  34FF               	retlw	255
   982  0AA6  34FF               	retlw	255
   983  0AA7  34FF               	retlw	255
   984  0AA8  34FF               	retlw	255
   985  0AA9  34FF               	retlw	255
   986  0AAA  34FF               	retlw	255
   987  0AAB  34FF               	retlw	255
   988  0AAC  34FF               	retlw	255
   989  0AAD  34FF               	retlw	255
   990  0AAE  34FF               	retlw	255
   991  0AAF  34FF               	retlw	255
   992  0AB0  34FF               	retlw	255
   993  0AB1  34FF               	retlw	255
   994  0AB2  34FF               	retlw	255
   995  0AB3  34FF               	retlw	255
   996  0AB4  34FF               	retlw	255
   997  0AB5  34FF               	retlw	255
   998  0AB6  34FF               	retlw	255
   999  0AB7  34FF               	retlw	255
  1000  0AB8  34FF               	retlw	255
  1001  0AB9  34FF               	retlw	255
  1002  0ABA  34FF               	retlw	255
  1003  0ABB  34FF               	retlw	255
  1004  0ABC  34FF               	retlw	255
  1005  0ABD  34FF               	retlw	255
  1006  0ABE  34FF               	retlw	255
  1007  0ABF  34FF               	retlw	255
  1008  0AC0  34FF               	retlw	255
  1009  0AC1  34FF               	retlw	255
  1010  0AC2  34FF               	retlw	255
  1011  0AC3  34FF               	retlw	255
  1012  0AC4  34FF               	retlw	255
  1013  0AC5  34FF               	retlw	255
  1014  0AC6  34FF               	retlw	255
  1015  0AC7  347F               	retlw	127
  1016  0AC8  347F               	retlw	127
  1017  0AC9  343F               	retlw	63
  1018  0ACA  343F               	retlw	63
  1019  0ACB  341F               	retlw	31
  1020  0ACC  341F               	retlw	31
  1021  0ACD  340F               	retlw	15
  1022  0ACE  340F               	retlw	15
  1023  0ACF  3407               	retlw	7
  1024  0AD0  3407               	retlw	7
  1025  0AD1  3403               	retlw	3
  1026  0AD2  3403               	retlw	3
  1027  0AD3  3401               	retlw	1
  1028  0AD4  3401               	retlw	1
  1029  0AD5  3401               	retlw	1
  1030  0AD6  3400               	retlw	0
  1031  0AD7  3400               	retlw	0
  1032  0AD8  3400               	retlw	0
  1033  0AD9  3400               	retlw	0
  1034  0ADA  3400               	retlw	0
  1035  0ADB  3400               	retlw	0
  1036  0ADC  3400               	retlw	0
  1037  0ADD  3400               	retlw	0
  1038  0ADE  3400               	retlw	0
  1039  0ADF  3400               	retlw	0
  1040  0AE0  3400               	retlw	0
  1041  0AE1  3400               	retlw	0
  1042  0AE2  3400               	retlw	0
  1043  0AE3  3400               	retlw	0
  1044  0AE4  3400               	retlw	0
  1045  0AE5  3400               	retlw	0
  1046  0AE6  3480               	retlw	128
  1047  0AE7  34F0               	retlw	240
  1048  0AE8  34FF               	retlw	255
  1049  0AE9  34FF               	retlw	255
  1050  0AEA  34FF               	retlw	255
  1051  0AEB  34FF               	retlw	255
  1052  0AEC  34FF               	retlw	255
  1053  0AED  34FF               	retlw	255
  1054  0AEE  34FF               	retlw	255
  1055  0AEF  34FF               	retlw	255
  1056  0AF0  34FF               	retlw	255
  1057  0AF1  34FF               	retlw	255
  1058  0AF2  34FF               	retlw	255
  1059  0AF3  34FF               	retlw	255
  1060  0AF4  34FF               	retlw	255
  1061  0AF5  34FF               	retlw	255
  1062  0AF6  34FF               	retlw	255
  1063  0AF7  34FF               	retlw	255
  1064  0AF8  34FF               	retlw	255
  1065  0AF9  34FF               	retlw	255
  1066  0AFA  34FF               	retlw	255
  1067  0AFB  34FF               	retlw	255
  1068  0AFC  34FF               	retlw	255
  1069  0AFD  34FF               	retlw	255
  1070  0AFE  34FF               	retlw	255
  1071  0AFF  34FF               	retlw	255
  1072  0B00  34FF               	retlw	255
  1073  0B01  34FF               	retlw	255
  1074  0B02  34FF               	retlw	255
  1075  0B03  34FF               	retlw	255
  1076  0B04  34FF               	retlw	255
  1077  0B05  34FF               	retlw	255
  1078  0B06  34FF               	retlw	255
  1079  0B07  34FF               	retlw	255
  1080  0B08  34FF               	retlw	255
  1081  0B09  34FF               	retlw	255
  1082  0B0A  34FF               	retlw	255
  1083  0B0B  34FC               	retlw	252
  1084  0B0C  34F8               	retlw	248
  1085  0B0D  34F0               	retlw	240
  1086  0B0E  34E0               	retlw	224
  1087  0B0F  34C0               	retlw	192
  1088  0B10  3400               	retlw	0
  1089  0B11  3400               	retlw	0
  1090  0B12  3400               	retlw	0
  1091  0B13  3400               	retlw	0
  1092  0B14  3400               	retlw	0
  1093  0B15  3400               	retlw	0
  1094  0B16  3400               	retlw	0
  1095  0B17  3400               	retlw	0
  1096  0B18  3400               	retlw	0
  1097  0B19  3400               	retlw	0
  1098  0B1A  3400               	retlw	0
  1099  0B1B  3400               	retlw	0
  1100  0B1C  3400               	retlw	0
  1101  0B1D  3400               	retlw	0
  1102  0B1E  3400               	retlw	0
  1103  0B1F  3400               	retlw	0
  1104  0B20  3400               	retlw	0
  1105  0B21  3400               	retlw	0
  1106  0B22  3400               	retlw	0
  1107  0B23  3400               	retlw	0
  1108  0B24  3400               	retlw	0
  1109  0B25  3401               	retlw	1
  1110  0B26  3401               	retlw	1
  1111  0B27  3401               	retlw	1
  1112  0B28  3401               	retlw	1
  1113  0B29  3401               	retlw	1
  1114  0B2A  3401               	retlw	1
  1115  0B2B  3401               	retlw	1
  1116  0B2C  3400               	retlw	0
  1117  0B2D  3400               	retlw	0
  1118  0B2E  3400               	retlw	0
  1119  0B2F  3400               	retlw	0
  1120  0B30  3400               	retlw	0
  1121  0B31  3400               	retlw	0
  1122  0B32  3400               	retlw	0
  1123  0B33  3400               	retlw	0
  1124  0B34  3400               	retlw	0
  1125  0B35  3400               	retlw	0
  1126  0B36  3400               	retlw	0
  1127  0B37  3400               	retlw	0
  1128  0B38  3400               	retlw	0
  1129  0B39  3400               	retlw	0
  1130  0B3A  3400               	retlw	0
  1131  0B3B  3400               	retlw	0
  1132  0B3C  3400               	retlw	0
  1133  0B3D  3400               	retlw	0
  1134  0B3E  3400               	retlw	0
  1135  0B3F  3400               	retlw	0
  1136  0B40  3400               	retlw	0
  1137  0B41  3400               	retlw	0
  1138  0B42  3400               	retlw	0
  1139  0B43  3400               	retlw	0
  1140  0B44  3401               	retlw	1
  1141  0B45  3400               	retlw	0
  1142  0B46  3400               	retlw	0
  1143  0B47  3400               	retlw	0
  1144  0B48  3400               	retlw	0
  1145  0B49  3400               	retlw	0
  1146  0B4A  3400               	retlw	0
  1147  0B4B  3400               	retlw	0
  1148  0B4C  3400               	retlw	0
  1149  0B4D  3400               	retlw	0
  1150  0B4E  3400               	retlw	0
  1151  0B4F  3400               	retlw	0
  1152  0B50  3400               	retlw	0
  1153  0B51  3400               	retlw	0
  1154  0B52  3400               	retlw	0
  1155  0B53  3400               	retlw	0
  1156  0B54  3400               	retlw	0
  1157  0B55  3400               	retlw	0
  1158  0B56  3400               	retlw	0
  1159  0B57  3400               	retlw	0
  1160  0B58  3400               	retlw	0
  1161  0B59  3400               	retlw	0
  1162  0B5A  3400               	retlw	0
  1163  0B5B  3400               	retlw	0
  1164  0B5C  3400               	retlw	0
  1165  0B5D  3400               	retlw	0
  1166  0B5E  3400               	retlw	0
  1167  0B5F  3400               	retlw	0
  1168  0B60  3400               	retlw	0
  1169  0B61  34C0               	retlw	192
  1170  0B62  34E0               	retlw	224
  1171  0B63  34F0               	retlw	240
  1172  0B64  34FC               	retlw	252
  1173  0B65  34FE               	retlw	254
  1174  0B66  34FF               	retlw	255
  1175  0B67  34FF               	retlw	255
  1176  0B68  34FF               	retlw	255
  1177  0B69  34FF               	retlw	255
  1178  0B6A  34FF               	retlw	255
  1179  0B6B  34FF               	retlw	255
  1180  0B6C  34FF               	retlw	255
  1181  0B6D  34FF               	retlw	255
  1182  0B6E  34FF               	retlw	255
  1183  0B6F  34FF               	retlw	255
  1184  0B70  34FF               	retlw	255
  1185  0B71  34FF               	retlw	255
  1186  0B72  34FF               	retlw	255
  1187  0B73  34FF               	retlw	255
  1188  0B74  34FF               	retlw	255
  1189  0B75  34FF               	retlw	255
  1190  0B76  34FF               	retlw	255
  1191  0B77  34FF               	retlw	255
  1192  0B78  34FF               	retlw	255
  1193  0B79  34FF               	retlw	255
  1194  0B7A  34FF               	retlw	255
  1195  0B7B  34FF               	retlw	255
  1196  0B7C  34FF               	retlw	255
  1197  0B7D  34FF               	retlw	255
  1198  0B7E  34FF               	retlw	255
  1199  0B7F  34FF               	retlw	255
  1200  0B80  34FF               	retlw	255
  1201  0B81  34FF               	retlw	255
  1202  0B82  34FF               	retlw	255
  1203  0B83  34FF               	retlw	255
  1204  0B84  34FF               	retlw	255
  1205  0B85  34FF               	retlw	255
  1206  0B86  34FF               	retlw	255
  1207  0B87  34FF               	retlw	255
  1208  0B88  34FF               	retlw	255
  1209  0B89  34FF               	retlw	255
  1210  0B8A  34FF               	retlw	255
  1211  0B8B  34FF               	retlw	255
  1212  0B8C  34FF               	retlw	255
  1213  0B8D  34FF               	retlw	255
  1214  0B8E  34FF               	retlw	255
  1215  0B8F  34FF               	retlw	255
  1216  0B90  34FF               	retlw	255
  1217  0B91  34FE               	retlw	254
  1218  0B92  34FC               	retlw	252
  1219  0B93  34F8               	retlw	248
  1220  0B94  34F0               	retlw	240
  1221  0B95  3430               	retlw	48
  1222  0B96  3408               	retlw	8
  1223  0B97  3404               	retlw	4
  1224  0B98  3406               	retlw	6
  1225  0B99  3400               	retlw	0
  1226  0B9A  3400               	retlw	0
  1227  0B9B  3400               	retlw	0
  1228  0B9C  3400               	retlw	0
  1229  0B9D  3400               	retlw	0
  1230  0B9E  3400               	retlw	0
  1231  0B9F  3400               	retlw	0
  1232  0BA0  3400               	retlw	0
  1233  0BA1  3400               	retlw	0
  1234  0BA2  3400               	retlw	0
  1235  0BA3  3400               	retlw	0
  1236  0BA4  3400               	retlw	0
  1237  0BA5  3400               	retlw	0
  1238  0BA6  3400               	retlw	0
  1239  0BA7  3400               	retlw	0
  1240  0BA8  3400               	retlw	0
  1241  0BA9  3400               	retlw	0
  1242  0BAA  3400               	retlw	0
  1243  0BAB  3400               	retlw	0
  1244  0BAC  3400               	retlw	0
  1245  0BAD  3400               	retlw	0
  1246  0BAE  3400               	retlw	0
  1247  0BAF  3400               	retlw	0
  1248  0BB0  3400               	retlw	0
  1249  0BB1  3400               	retlw	0
  1250  0BB2  3400               	retlw	0
  1251  0BB3  3400               	retlw	0
  1252  0BB4  3400               	retlw	0
  1253  0BB5  3400               	retlw	0
  1254  0BB6  3400               	retlw	0
  1255  0BB7  3400               	retlw	0
  1256  0BB8  3400               	retlw	0
  1257  0BB9  3400               	retlw	0
  1258  0BBA  3400               	retlw	0
  1259  0BBB  3400               	retlw	0
  1260  0BBC  3400               	retlw	0
  1261  0BBD  3400               	retlw	0
  1262  0BBE  3400               	retlw	0
  1263  0BBF  3400               	retlw	0
  1264  0BC0  3400               	retlw	0
  1265  0BC1  3400               	retlw	0
  1266  0BC2  3400               	retlw	0
  1267  0BC3  3400               	retlw	0
  1268  0BC4  3400               	retlw	0
  1269  0BC5  3400               	retlw	0
  1270  0BC6  3400               	retlw	0
  1271  0BC7  3400               	retlw	0
  1272  0BC8  3400               	retlw	0
  1273  0BC9  3400               	retlw	0
  1274  0BCA  3400               	retlw	0
  1275  0BCB  3400               	retlw	0
  1276  0BCC  3400               	retlw	0
  1277  0BCD  3400               	retlw	0
  1278  0BCE  3400               	retlw	0
  1279  0BCF  3400               	retlw	0
  1280  0BD0  3400               	retlw	0
  1281  0BD1  3400               	retlw	0
  1282  0BD2  3400               	retlw	0
  1283  0BD3  3400               	retlw	0
  1284  0BD4  3410               	retlw	16
  1285  0BD5  3420               	retlw	32
  1286  0BD6  34C0               	retlw	192
  1287  0BD7  3480               	retlw	128
  1288  0BD8  34C0               	retlw	192
  1289  0BD9  34C0               	retlw	192
  1290  0BDA  34E0               	retlw	224
  1291  0BDB  34F0               	retlw	240
  1292  0BDC  34F8               	retlw	248
  1293  0BDD  34F8               	retlw	248
  1294  0BDE  34FC               	retlw	252
  1295  0BDF  34FE               	retlw	254
  1296  0BE0  34FF               	retlw	255
  1297  0BE1  34FF               	retlw	255
  1298  0BE2  34FF               	retlw	255
  1299  0BE3  34FF               	retlw	255
  1300  0BE4  34FF               	retlw	255
  1301  0BE5  34FF               	retlw	255
  1302  0BE6  34FF               	retlw	255
  1303  0BE7  34FF               	retlw	255
  1304  0BE8  34FF               	retlw	255
  1305  0BE9  34FF               	retlw	255
  1306  0BEA  34FF               	retlw	255
  1307  0BEB  34FF               	retlw	255
  1308  0BEC  34FF               	retlw	255
  1309  0BED  34FF               	retlw	255
  1310  0BEE  34FF               	retlw	255
  1311  0BEF  34FF               	retlw	255
  1312  0BF0  34FF               	retlw	255
  1313  0BF1  34FF               	retlw	255
  1314  0BF2  34FF               	retlw	255
  1315  0BF3  34FF               	retlw	255
  1316  0BF4  34FF               	retlw	255
  1317  0BF5  34FF               	retlw	255
  1318  0BF6  34FF               	retlw	255
  1319  0BF7  34FF               	retlw	255
  1320  0BF8  34FF               	retlw	255
  1321  0BF9  34FF               	retlw	255
  1322  0BFA  34FF               	retlw	255
  1323  0BFB  34FF               	retlw	255
  1324  0BFC  34FF               	retlw	255
  1325  0BFD  34FF               	retlw	255
  1326  0BFE  34FF               	retlw	255
  1327  0BFF  34FF               	retlw	255
  1328  0C00  34FF               	retlw	255
  1329  0C01  34FF               	retlw	255
  1330  0C02  34FF               	retlw	255
  1331  0C03  34FF               	retlw	255
  1332  0C04  34FF               	retlw	255
  1333  0C05  34FF               	retlw	255
  1334  0C06  34FF               	retlw	255
  1335  0C07  34FF               	retlw	255
  1336  0C08  34FF               	retlw	255
  1337  0C09  34FF               	retlw	255
  1338  0C0A  34FF               	retlw	255
  1339  0C0B  34FF               	retlw	255
  1340  0C0C  34FF               	retlw	255
  1341  0C0D  34FF               	retlw	255
  1342  0C0E  34FF               	retlw	255
  1343  0C0F  34FF               	retlw	255
  1344  0C10  34FF               	retlw	255
  1345  0C11  34FF               	retlw	255
  1346  0C12  341F               	retlw	31
  1347  0C13  3403               	retlw	3
  1348  0C14  3400               	retlw	0
  1349  0C15  3400               	retlw	0
  1350  0C16  3400               	retlw	0
  1351  0C17  3400               	retlw	0
  1352  0C18  3400               	retlw	0
  1353  0C19  3400               	retlw	0
  1354  0C1A  3400               	retlw	0
  1355  0C1B  3400               	retlw	0
  1356  0C1C  3400               	retlw	0
  1357  0C1D  3480               	retlw	128
  1358  0C1E  34F0               	retlw	240
  1359  0C1F  3498               	retlw	152
  1360  0C20  3408               	retlw	8
  1361  0C21  3408               	retlw	8
  1362  0C22  3498               	retlw	152
  1363  0C23  34F8               	retlw	248
  1364  0C24  34F0               	retlw	240
  1365  0C25  34E0               	retlw	224
  1366  0C26  3400               	retlw	0
  1367  0C27  3400               	retlw	0
  1368  0C28  3400               	retlw	0
  1369  0C29  3400               	retlw	0
  1370  0C2A  3400               	retlw	0
  1371  0C2B  3400               	retlw	0
  1372  0C2C  3400               	retlw	0
  1373  0C2D  3400               	retlw	0
  1374  0C2E  3400               	retlw	0
  1375  0C2F  3400               	retlw	0
  1376  0C30  3400               	retlw	0
  1377  0C31  3400               	retlw	0
  1378  0C32  3400               	retlw	0
  1379  0C33  3400               	retlw	0
  1380  0C34  3400               	retlw	0
  1381  0C35  3400               	retlw	0
  1382  0C36  3400               	retlw	0
  1383  0C37  3400               	retlw	0
  1384  0C38  3400               	retlw	0
  1385  0C39  3400               	retlw	0
  1386  0C3A  3400               	retlw	0
  1387  0C3B  3400               	retlw	0
  1388  0C3C  3400               	retlw	0
  1389  0C3D  3400               	retlw	0
  1390  0C3E  3400               	retlw	0
  1391  0C3F  3400               	retlw	0
  1392  0C40  3400               	retlw	0
  1393  0C41  34C0               	retlw	192
  1394  0C42  34F0               	retlw	240
  1395  0C43  3408               	retlw	8
  1396  0C44  3408               	retlw	8
  1397  0C45  3408               	retlw	8
  1398  0C46  34F8               	retlw	248
  1399  0C47  34F8               	retlw	248
  1400  0C48  34F0               	retlw	240
  1401  0C49  34E0               	retlw	224
  1402  0C4A  3400               	retlw	0
  1403  0C4B  3400               	retlw	0
  1404  0C4C  3400               	retlw	0
  1405  0C4D  3400               	retlw	0
  1406  0C4E  3400               	retlw	0
  1407  0C4F  3400               	retlw	0
  1408  0C50  3400               	retlw	0
  1409  0C51  3400               	retlw	0
  1410  0C52  3400               	retlw	0
  1411  0C53  3400               	retlw	0
  1412  0C54  3400               	retlw	0
  1413  0C55  3400               	retlw	0
  1414  0C56  3400               	retlw	0
  1415  0C57  3401               	retlw	1
  1416  0C58  3407               	retlw	7
  1417  0C59  341F               	retlw	31
  1418  0C5A  34FF               	retlw	255
  1419  0C5B  34FF               	retlw	255
  1420  0C5C  34FF               	retlw	255
  1421  0C5D  34FF               	retlw	255
  1422  0C5E  34FF               	retlw	255
  1423  0C5F  34FF               	retlw	255
  1424  0C60  34FF               	retlw	255
  1425  0C61  34FF               	retlw	255
  1426  0C62  34FF               	retlw	255
  1427  0C63  34FF               	retlw	255
  1428  0C64  34FF               	retlw	255
  1429  0C65  34FF               	retlw	255
  1430  0C66  34FF               	retlw	255
  1431  0C67  34FF               	retlw	255
  1432  0C68  34FF               	retlw	255
  1433  0C69  34FF               	retlw	255
  1434  0C6A  34FF               	retlw	255
  1435  0C6B  34FF               	retlw	255
  1436  0C6C  34FF               	retlw	255
  1437  0C6D  34FF               	retlw	255
  1438  0C6E  34FF               	retlw	255
  1439  0C6F  34FF               	retlw	255
  1440  0C70  34FF               	retlw	255
  1441  0C71  34FF               	retlw	255
  1442  0C72  34FF               	retlw	255
  1443  0C73  34FF               	retlw	255
  1444  0C74  34FF               	retlw	255
  1445  0C75  34FF               	retlw	255
  1446  0C76  34FF               	retlw	255
  1447  0C77  34FF               	retlw	255
  1448  0C78  34FF               	retlw	255
  1449  0C79  34FF               	retlw	255
  1450  0C7A  34FF               	retlw	255
  1451  0C7B  34FF               	retlw	255
  1452  0C7C  34FF               	retlw	255
  1453  0C7D  34FF               	retlw	255
  1454  0C7E  34FF               	retlw	255
  1455  0C7F  34FF               	retlw	255
  1456  0C80  34FF               	retlw	255
  1457  0C81  34FF               	retlw	255
  1458  0C82  34FF               	retlw	255
  1459  0C83  34FF               	retlw	255
  1460  0C84  34FF               	retlw	255
  1461  0C85  34FF               	retlw	255
  1462  0C86  34FF               	retlw	255
  1463  0C87  34FF               	retlw	255
  1464  0C88  34FF               	retlw	255
  1465  0C89  34FF               	retlw	255
  1466  0C8A  34FF               	retlw	255
  1467  0C8B  34FF               	retlw	255
  1468  0C8C  34FF               	retlw	255
  1469  0C8D  34FF               	retlw	255
  1470  0C8E  34FF               	retlw	255
  1471  0C8F  343F               	retlw	63
  1472  0C90  3407               	retlw	7
  1473  0C91  3400               	retlw	0
  1474  0C92  3400               	retlw	0
  1475  0C93  3400               	retlw	0
  1476  0C94  3400               	retlw	0
  1477  0C95  3400               	retlw	0
  1478  0C96  3400               	retlw	0
  1479  0C97  3400               	retlw	0
  1480  0C98  3400               	retlw	0
  1481  0C99  3400               	retlw	0
  1482  0C9A  3400               	retlw	0
  1483  0C9B  3400               	retlw	0
  1484  0C9C  3400               	retlw	0
  1485  0C9D  3401               	retlw	1
  1486  0C9E  3407               	retlw	7
  1487  0C9F  340F               	retlw	15
  1488  0CA0  340F               	retlw	15
  1489  0CA1  341F               	retlw	31
  1490  0CA2  341F               	retlw	31
  1491  0CA3  340F               	retlw	15
  1492  0CA4  340F               	retlw	15
  1493  0CA5  3407               	retlw	7
  1494  0CA6  3400               	retlw	0
  1495  0CA7  3400               	retlw	0
  1496  0CA8  3400               	retlw	0
  1497  0CA9  3400               	retlw	0
  1498  0CAA  3400               	retlw	0
  1499  0CAB  3400               	retlw	0
  1500  0CAC  3400               	retlw	0
  1501  0CAD  3400               	retlw	0
  1502  0CAE  3480               	retlw	128
  1503  0CAF  34C0               	retlw	192
  1504  0CB0  34C0               	retlw	192
  1505  0CB1  34C0               	retlw	192
  1506  0CB2  3480               	retlw	128
  1507  0CB3  3480               	retlw	128
  1508  0CB4  3400               	retlw	0
  1509  0CB5  3400               	retlw	0
  1510  0CB6  3400               	retlw	0
  1511  0CB7  3400               	retlw	0
  1512  0CB8  3400               	retlw	0
  1513  0CB9  3400               	retlw	0
  1514  0CBA  3400               	retlw	0
  1515  0CBB  3400               	retlw	0
  1516  0CBC  3400               	retlw	0
  1517  0CBD  3400               	retlw	0
  1518  0CBE  3400               	retlw	0
  1519  0CBF  3400               	retlw	0
  1520  0CC0  3400               	retlw	0
  1521  0CC1  3403               	retlw	3
  1522  0CC2  3407               	retlw	7
  1523  0CC3  340F               	retlw	15
  1524  0CC4  341F               	retlw	31
  1525  0CC5  341F               	retlw	31
  1526  0CC6  341F               	retlw	31
  1527  0CC7  340F               	retlw	15
  1528  0CC8  3407               	retlw	7
  1529  0CC9  3403               	retlw	3
  1530  0CCA  3400               	retlw	0
  1531  0CCB  3400               	retlw	0
  1532  0CCC  3400               	retlw	0
  1533  0CCD  3400               	retlw	0
  1534  0CCE  3400               	retlw	0
  1535  0CCF  3400               	retlw	0
  1536  0CD0  3400               	retlw	0
  1537  0CD1  3400               	retlw	0
  1538  0CD2  3400               	retlw	0
  1539  0CD3  3400               	retlw	0
  1540  0CD4  3400               	retlw	0
  1541  0CD5  3400               	retlw	0
  1542  0CD6  3400               	retlw	0
  1543  0CD7  3400               	retlw	0
  1544  0CD8  3400               	retlw	0
  1545  0CD9  3400               	retlw	0
  1546  0CDA  3400               	retlw	0
  1547  0CDB  340F               	retlw	15
  1548  0CDC  347F               	retlw	127
  1549  0CDD  34FF               	retlw	255
  1550  0CDE  34FF               	retlw	255
  1551  0CDF  34FF               	retlw	255
  1552  0CE0  34FF               	retlw	255
  1553  0CE1  34FF               	retlw	255
  1554  0CE2  34FF               	retlw	255
  1555  0CE3  34FF               	retlw	255
  1556  0CE4  34FF               	retlw	255
  1557  0CE5  34FF               	retlw	255
  1558  0CE6  34FF               	retlw	255
  1559  0CE7  34FF               	retlw	255
  1560  0CE8  34FF               	retlw	255
  1561  0CE9  34FF               	retlw	255
  1562  0CEA  34FF               	retlw	255
  1563  0CEB  34FF               	retlw	255
  1564  0CEC  34FF               	retlw	255
  1565  0CED  34FF               	retlw	255
  1566  0CEE  34FF               	retlw	255
  1567  0CEF  34FF               	retlw	255
  1568  0CF0  34FF               	retlw	255
  1569  0CF1  34FF               	retlw	255
  1570  0CF2  34FF               	retlw	255
  1571  0CF3  34FF               	retlw	255
  1572  0CF4  34FF               	retlw	255
  1573  0CF5  34FF               	retlw	255
  1574  0CF6  34FF               	retlw	255
  1575  0CF7  34FF               	retlw	255
  1576  0CF8  34FF               	retlw	255
  1577  0CF9  34FF               	retlw	255
  1578  0CFA  34FF               	retlw	255
  1579  0CFB  34FF               	retlw	255
  1580  0CFC  34FF               	retlw	255
  1581  0CFD  34FF               	retlw	255
  1582  0CFE  34FF               	retlw	255
  1583  0CFF  34FF               	retlw	255
  1584  0D00  34FF               	retlw	255
  1585  0D01  34FF               	retlw	255
  1586  0D02  34FF               	retlw	255
  1587  0D03  34FF               	retlw	255
  1588  0D04  34FF               	retlw	255
  1589  0D05  34FF               	retlw	255
  1590  0D06  34FF               	retlw	255
  1591  0D07  34FF               	retlw	255
  1592  0D08  34FF               	retlw	255
  1593  0D09  34FF               	retlw	255
  1594  0D0A  34FF               	retlw	255
  1595  0D0B  34FF               	retlw	255
  1596  0D0C  34FF               	retlw	255
  1597  0D0D  34FF               	retlw	255
  1598  0D0E  3407               	retlw	7
  1599  0D0F  34C0               	retlw	192
  1600  0D10  34F0               	retlw	240
  1601  0D11  34F8               	retlw	248
  1602  0D12  34FC               	retlw	252
  1603  0D13  34FC               	retlw	252
  1604  0D14  34FC               	retlw	252
  1605  0D15  34FE               	retlw	254
  1606  0D16  34FE               	retlw	254
  1607  0D17  34FC               	retlw	252
  1608  0D18  34FC               	retlw	252
  1609  0D19  34F8               	retlw	248
  1610  0D1A  34F8               	retlw	248
  1611  0D1B  34E0               	retlw	224
  1612  0D1C  3400               	retlw	0
  1613  0D1D  3400               	retlw	0
  1614  0D1E  3400               	retlw	0
  1615  0D1F  3400               	retlw	0
  1616  0D20  3400               	retlw	0
  1617  0D21  3400               	retlw	0
  1618  0D22  3400               	retlw	0
  1619  0D23  3400               	retlw	0
  1620  0D24  3400               	retlw	0
  1621  0D25  3400               	retlw	0
  1622  0D26  3400               	retlw	0
  1623  0D27  3400               	retlw	0
  1624  0D28  3400               	retlw	0
  1625  0D29  3400               	retlw	0
  1626  0D2A  3400               	retlw	0
  1627  0D2B  3400               	retlw	0
  1628  0D2C  3400               	retlw	0
  1629  0D2D  3400               	retlw	0
  1630  0D2E  3401               	retlw	1
  1631  0D2F  3401               	retlw	1
  1632  0D30  3401               	retlw	1
  1633  0D31  3481               	retlw	129
  1634  0D32  3481               	retlw	129
  1635  0D33  3481               	retlw	129
  1636  0D34  3480               	retlw	128
  1637  0D35  3480               	retlw	128
  1638  0D36  3480               	retlw	128
  1639  0D37  3400               	retlw	0
  1640  0D38  3400               	retlw	0
  1641  0D39  3400               	retlw	0
  1642  0D3A  3400               	retlw	0
  1643  0D3B  3400               	retlw	0
  1644  0D3C  3400               	retlw	0
  1645  0D3D  3400               	retlw	0
  1646  0D3E  3400               	retlw	0
  1647  0D3F  3400               	retlw	0
  1648  0D40  3400               	retlw	0
  1649  0D41  3400               	retlw	0
  1650  0D42  3400               	retlw	0
  1651  0D43  3400               	retlw	0
  1652  0D44  3400               	retlw	0
  1653  0D45  3400               	retlw	0
  1654  0D46  3400               	retlw	0
  1655  0D47  3400               	retlw	0
  1656  0D48  3400               	retlw	0
  1657  0D49  34E0               	retlw	224
  1658  0D4A  34F0               	retlw	240
  1659  0D4B  34F8               	retlw	248
  1660  0D4C  34FC               	retlw	252
  1661  0D4D  34FC               	retlw	252
  1662  0D4E  34FC               	retlw	252
  1663  0D4F  34FE               	retlw	254
  1664  0D50  34FE               	retlw	254
  1665  0D51  34FC               	retlw	252
  1666  0D52  34FC               	retlw	252
  1667  0D53  34FC               	retlw	252
  1668  0D54  34F8               	retlw	248
  1669  0D55  34F0               	retlw	240
  1670  0D56  34E0               	retlw	224
  1671  0D57  3400               	retlw	0
  1672  0D58  3400               	retlw	0
  1673  0D59  3400               	retlw	0
  1674  0D5A  3400               	retlw	0
  1675  0D5B  3400               	retlw	0
  1676  0D5C  3400               	retlw	0
  1677  0D5D  3407               	retlw	7
  1678  0D5E  347F               	retlw	127
  1679  0D5F  34FF               	retlw	255
  1680  0D60  34FF               	retlw	255
  1681  0D61  34FF               	retlw	255
  1682  0D62  34FF               	retlw	255
  1683  0D63  34FF               	retlw	255
  1684  0D64  34FF               	retlw	255
  1685  0D65  34FF               	retlw	255
  1686  0D66  34FF               	retlw	255
  1687  0D67  34FF               	retlw	255
  1688  0D68  34FF               	retlw	255
  1689  0D69  34FF               	retlw	255
  1690  0D6A  34FF               	retlw	255
  1691  0D6B  34FF               	retlw	255
  1692  0D6C  34FF               	retlw	255
  1693  0D6D  34FF               	retlw	255
  1694  0D6E  34FF               	retlw	255
  1695  0D6F  34FF               	retlw	255
  1696  0D70  34FF               	retlw	255
  1697  0D71  34FF               	retlw	255
  1698  0D72  34FF               	retlw	255
  1699  0D73  34FF               	retlw	255
  1700  0D74  34FF               	retlw	255
  1701  0D75  34FF               	retlw	255
  1702  0D76  34FF               	retlw	255
  1703  0D77  34FF               	retlw	255
  1704  0D78  34FF               	retlw	255
  1705  0D79  34FF               	retlw	255
  1706  0D7A  34FF               	retlw	255
  1707  0D7B  34FF               	retlw	255
  1708  0D7C  34FF               	retlw	255
  1709  0D7D  34FF               	retlw	255
  1710  0D7E  34FF               	retlw	255
  1711  0D7F  34FF               	retlw	255
  1712  0D80  34FF               	retlw	255
  1713  0D81  34FF               	retlw	255
  1714  0D82  34FF               	retlw	255
  1715  0D83  34FF               	retlw	255
  1716  0D84  34FF               	retlw	255
  1717  0D85  34FF               	retlw	255
  1718  0D86  34FF               	retlw	255
  1719  0D87  34FF               	retlw	255
  1720  0D88  34FF               	retlw	255
  1721  0D89  34FF               	retlw	255
  1722  0D8A  34FF               	retlw	255
  1723  0D8B  34FF               	retlw	255
  1724  0D8C  34FF               	retlw	255
  1725  0D8D  34FF               	retlw	255
  1726  0D8E  34C0               	retlw	192
  1727  0D8F  3400               	retlw	0
  1728  0D90  3403               	retlw	3
  1729  0D91  3407               	retlw	7
  1730  0D92  3407               	retlw	7
  1731  0D93  340F               	retlw	15
  1732  0D94  340F               	retlw	15
  1733  0D95  340F               	retlw	15
  1734  0D96  340F               	retlw	15
  1735  0D97  340F               	retlw	15
  1736  0D98  3407               	retlw	7
  1737  0D99  3407               	retlw	7
  1738  0D9A  3403               	retlw	3
  1739  0D9B  3401               	retlw	1
  1740  0D9C  3400               	retlw	0
  1741  0D9D  3400               	retlw	0
  1742  0D9E  3400               	retlw	0
  1743  0D9F  3400               	retlw	0
  1744  0DA0  3400               	retlw	0
  1745  0DA1  3400               	retlw	0
  1746  0DA2  3400               	retlw	0
  1747  0DA3  3400               	retlw	0
  1748  0DA4  3400               	retlw	0
  1749  0DA5  3400               	retlw	0
  1750  0DA6  3400               	retlw	0
  1751  0DA7  3400               	retlw	0
  1752  0DA8  3400               	retlw	0
  1753  0DA9  3400               	retlw	0
  1754  0DAA  3400               	retlw	0
  1755  0DAB  3400               	retlw	0
  1756  0DAC  347C               	retlw	124
  1757  0DAD  3486               	retlw	134
  1758  0DAE  3403               	retlw	3
  1759  0DAF  3401               	retlw	1
  1760  0DB0  3401               	retlw	1
  1761  0DB1  3401               	retlw	1
  1762  0DB2  3401               	retlw	1
  1763  0DB3  3401               	retlw	1
  1764  0DB4  3401               	retlw	1
  1765  0DB5  3401               	retlw	1
  1766  0DB6  3401               	retlw	1
  1767  0DB7  3401               	retlw	1
  1768  0DB8  3403               	retlw	3
  1769  0DB9  340E               	retlw	14
  1770  0DBA  34F8               	retlw	248
  1771  0DBB  3400               	retlw	0
  1772  0DBC  3400               	retlw	0
  1773  0DBD  3400               	retlw	0
  1774  0DBE  3400               	retlw	0
  1775  0DBF  3400               	retlw	0
  1776  0DC0  3400               	retlw	0
  1777  0DC1  3400               	retlw	0
  1778  0DC2  3400               	retlw	0
  1779  0DC3  3400               	retlw	0
  1780  0DC4  3400               	retlw	0
  1781  0DC5  3400               	retlw	0
  1782  0DC6  3400               	retlw	0
  1783  0DC7  3400               	retlw	0
  1784  0DC8  3400               	retlw	0
  1785  0DC9  3401               	retlw	1
  1786  0DCA  3407               	retlw	7
  1787  0DCB  340F               	retlw	15
  1788  0DCC  340F               	retlw	15
  1789  0DCD  341F               	retlw	31
  1790  0DCE  341F               	retlw	31
  1791  0DCF  341F               	retlw	31
  1792  0DD0  341F               	retlw	31
  1793  0DD1  341F               	retlw	31
  1794  0DD2  341F               	retlw	31
  1795  0DD3  340F               	retlw	15
  1796  0DD4  340F               	retlw	15
  1797  0DD5  3407               	retlw	7
  1798  0DD6  3401               	retlw	1
  1799  0DD7  3400               	retlw	0
  1800  0DD8  3400               	retlw	0
  1801  0DD9  3400               	retlw	0
  1802  0DDA  3400               	retlw	0
  1803  0DDB  3400               	retlw	0
  1804  0DDC  3400               	retlw	0
  1805  0DDD  3400               	retlw	0
  1806  0DDE  3400               	retlw	0
  1807  0DDF  3407               	retlw	7
  1808  0DE0  347F               	retlw	127
  1809  0DE1  34FF               	retlw	255
  1810  0DE2  34FF               	retlw	255
  1811  0DE3  34FF               	retlw	255
  1812  0DE4  34FF               	retlw	255
  1813  0DE5  34FF               	retlw	255
  1814  0DE6  34FF               	retlw	255
  1815  0DE7  34FF               	retlw	255
  1816  0DE8  34FF               	retlw	255
  1817  0DE9  34FF               	retlw	255
  1818  0DEA  34FF               	retlw	255
  1819  0DEB  34FF               	retlw	255
  1820  0DEC  34FF               	retlw	255
  1821  0DED                     __end_of_meme:	
  1822  0008                     _PORTD	set	8
  1823  0006                     _PORTB	set	6
  1824  0088                     _TRISD	set	136
  1825  0086                     _TRISB	set	134
  1826                           
  1827                           ; #config settings
  1828  0000                     
  1829                           	psect	cinit
  1830  07F6                     start_initialization:	
  1831  07F6                     __initialization:	
  1832                           
  1833                           ; Clear objects allocated to BANK0
  1834  07F6  1283               	bcf	3,5	;RP0=0, select bank0
  1835  07F7  1303               	bcf	3,6	;RP1=0, select bank0
  1836  07F8  01A0               	clrf	__pbssBANK0& (0+127)
  1837  07F9  01A1               	clrf	(__pbssBANK0+1)& (0+127)
  1838  07FA  01A2               	clrf	(__pbssBANK0+2)& (0+127)
  1839  07FB  01A3               	clrf	(__pbssBANK0+3)& (0+127)
  1840  07FC                     end_of_initialization:	
  1841                           ;End of C runtime variable initialization code
  1842                           
  1843  07FC                     __end_of__initialization:	
  1844  07FC  0183               	clrf	3
  1845  07FD  120A  118A  2E43   	ljmp	_main	;jump to C main() function
  1846                           
  1847                           	psect	bssBANK0
  1848  0020                     __pbssBANK0:	
  1849  0020                     _GLCD:	
  1850  0020                     	ds	4
  1851                           
  1852                           	psect	cstackCOMMON
  1853  0070                     __pcstackCOMMON:	
  1854  0070                     ?_GLCD_Init:	
  1855  0070                     ?_glcd_SelectPage0:	
  1856                           ; 1 bytes @ 0x0
  1857                           
  1858  0070                     ??_glcd_SelectPage0:	
  1859                           ; 1 bytes @ 0x0
  1860                           
  1861  0070                     ?_glcd_CmdWrite:	
  1862                           ; 1 bytes @ 0x0
  1863                           
  1864  0070                     ?_glcd_SelectPage1:	
  1865                           ; 1 bytes @ 0x0
  1866                           
  1867  0070                     ??_glcd_SelectPage1:	
  1868                           ; 1 bytes @ 0x0
  1869                           
  1870  0070                     ?_GLCD_GoToPage:	
  1871                           ; 1 bytes @ 0x0
  1872                           
  1873  0070                     ?_GLCD_Clear:	
  1874                           ; 1 bytes @ 0x0
  1875                           
  1876  0070                     ?_glcd_DataWrite:	
  1877                           ; 1 bytes @ 0x0
  1878                           
  1879  0070                     ?_GLCD_GoToLine:	
  1880                           ; 1 bytes @ 0x0
  1881                           
  1882  0070                     ?_glcd_BusyCheck:	
  1883                           ; 1 bytes @ 0x0
  1884                           
  1885  0070                     ?_DELAY_us:	
  1886                           ; 1 bytes @ 0x0
  1887                           
  1888  0070                     ?_main:	
  1889                           ; 1 bytes @ 0x0
  1890                           
  1891  0070                     DELAY_us@us_count:	
  1892                           ; 1 bytes @ 0x0
  1893                           
  1894                           
  1895                           ; 2 bytes @ 0x0
  1896  0070                     	ds	2
  1897  0072                     ??_glcd_CmdWrite:	
  1898  0072                     ?_DELAY_ms:	
  1899                           ; 1 bytes @ 0x2
  1900                           
  1901  0072                     ??_glcd_DataWrite:	
  1902                           ; 1 bytes @ 0x2
  1903                           
  1904  0072                     ??_glcd_BusyCheck:	
  1905                           ; 1 bytes @ 0x2
  1906                           
  1907  0072                     ??_DELAY_us:	
  1908                           ; 1 bytes @ 0x2
  1909                           
  1910  0072                     DELAY_ms@ms_count:	
  1911                           ; 1 bytes @ 0x2
  1912                           
  1913                           
  1914                           ; 2 bytes @ 0x2
  1915  0072                     	ds	1
  1916  0073                     glcd_CmdWrite@cmd:	
  1917  0073                     glcd_DataWrite@dat:	
  1918                           ; 1 bytes @ 0x3
  1919                           
  1920                           
  1921                           ; 1 bytes @ 0x3
  1922  0073                     	ds	1
  1923  0074                     ?_GLCD_DisplayLogo:	
  1924  0074                     ??_DELAY_ms:	
  1925                           ; 1 bytes @ 0x4
  1926                           
  1927  0074                     ??_GLCD_GoToPage:	
  1928                           ; 1 bytes @ 0x4
  1929                           
  1930  0074                     GLCD_DisplayLogo@ptr_Logo:	
  1931                           ; 1 bytes @ 0x4
  1932                           
  1933                           
  1934                           ; 2 bytes @ 0x4
  1935  0074                     	ds	1
  1936  0075                     GLCD_GoToPage@pageNumber:	
  1937                           
  1938                           ; 1 bytes @ 0x5
  1939  0075                     	ds	1
  1940  0076                     ??_GLCD_DisplayLogo:	
  1941  0076                     ??_GLCD_GoToLine:	
  1942                           ; 1 bytes @ 0x6
  1943                           
  1944                           
  1945                           ; 1 bytes @ 0x6
  1946  0076                     	ds	1
  1947  0077                     GLCD_GoToLine@lineNumber:	
  1948  0077                     GLCD_DisplayLogo@cursor:	
  1949                           ; 1 bytes @ 0x7
  1950                           
  1951                           
  1952                           ; 1 bytes @ 0x7
  1953  0077                     	ds	1
  1954  0078                     ??_GLCD_Clear:	
  1955  0078                     GLCD_DisplayLogo@line:	
  1956                           ; 1 bytes @ 0x8
  1957                           
  1958                           
  1959                           ; 1 bytes @ 0x8
  1960  0078                     	ds	1
  1961  0079                     GLCD_Clear@cursor:	
  1962                           
  1963                           ; 1 bytes @ 0x9
  1964  0079                     	ds	1
  1965  007A                     GLCD_Clear@line:	
  1966                           
  1967                           ; 1 bytes @ 0xA
  1968  007A                     	ds	1
  1969  007B                     ??_GLCD_Init:	
  1970                           
  1971                           ; 1 bytes @ 0xB
  1972  007B                     	ds	1
  1973  007C                     ??_main:	
  1974                           
  1975                           	psect	maintext
  1976  0643                     __pmaintext:	
  1977                           ; 1 bytes @ 0xC
  1978 ;;
  1979 ;;Main: autosize = 0, tempsize = 0, incstack = 0, save=0
  1980 ;;
  1981 ;; *************** function _main *****************
  1982 ;; Defined at:
  1983 ;;		line 102 in file "Main.c"
  1984 ;; Parameters:    Size  Location     Type
  1985 ;;		None
  1986 ;; Auto vars:     Size  Location     Type
  1987 ;;		None
  1988 ;; Return value:  Size  Location     Type
  1989 ;;                  1    wreg      void 
  1990 ;; Registers used:
  1991 ;;		wreg, fsr0l, fsr0h, status,2, status,0, btemp+1, pclath, cstack
  1992 ;; Tracked objects:
  1993 ;;		On entry : B00/0
  1994 ;;		On exit  : 0/0
  1995 ;;		Unchanged: 0/0
  1996 ;; Data sizes:     COMMON   BANK0   BANK1   BANK3   BANK2
  1997 ;;      Params:         0       0       0       0       0
  1998 ;;      Locals:         0       0       0       0       0
  1999 ;;      Temps:          0       0       0       0       0
  2000 ;;      Totals:         0       0       0       0       0
  2001 ;;Total ram usage:        0 bytes
  2002 ;; Hardware stack levels required when called:    7
  2003 ;; This function calls:
  2004 ;;		_GLCD_DisplayLogo
  2005 ;;		_GLCD_Init
  2006 ;; This function is called by:
  2007 ;;		Startup code after reset
  2008 ;; This function uses a non-reentrant model
  2009 ;;
  2010                           
  2011                           
  2012                           ;psect for function _main
  2013  0643                     _main:	
  2014  0643                     l1631:	
  2015                           ;incstack = 0
  2016                           ; Regs used in _main: [wreg-fsr0h+status,2+status,0+btemp+1+pclath+cstack]
  2017                           
  2018                           
  2019                           ;Main.c: 104:     GLCD_Init();
  2020  0643  120A  118A  279D  120A  118A  	fcall	_GLCD_Init
  2021  0648                     l1633:	
  2022                           
  2023                           ;Main.c: 105:     GLCD_DisplayLogo(meme);
  2024  0648  30ED               	movlw	low (_meme| (0+32768))
  2025  0649  00F4               	movwf	GLCD_DisplayLogo@ptr_Logo
  2026  064A  3089               	movlw	high (_meme| (0+32768))
  2027  064B  00F5               	movwf	GLCD_DisplayLogo@ptr_Logo+1
  2028  064C  120A  118A  2746  120A  118A  	fcall	_GLCD_DisplayLogo
  2029  0651                     l11:	
  2030                           ;Main.c: 107:     while(1);
  2031                           
  2032  0651                     l12:	
  2033  0651  2E51               	goto	l11
  2034  0652  120A  118A  2800   	ljmp	start
  2035  0655                     __end_of_main:	
  2036                           
  2037                           	psect	text1
  2038  079D                     __ptext1:	
  2039 ;; *************** function _GLCD_Init *****************
  2040 ;; Defined at:
  2041 ;;		line 164 in file "glcd.c"
  2042 ;; Parameters:    Size  Location     Type
  2043 ;;		None
  2044 ;; Auto vars:     Size  Location     Type
  2045 ;;		None
  2046 ;; Return value:  Size  Location     Type
  2047 ;;                  1    wreg      void 
  2048 ;; Registers used:
  2049 ;;		wreg, status,2, status,0, pclath, cstack
  2050 ;; Tracked objects:
  2051 ;;		On entry : 0/0
  2052 ;;		On exit  : 0/0
  2053 ;;		Unchanged: 0/0
  2054 ;; Data sizes:     COMMON   BANK0   BANK1   BANK3   BANK2
  2055 ;;      Params:         0       0       0       0       0
  2056 ;;      Locals:         0       0       0       0       0
  2057 ;;      Temps:          1       0       0       0       0
  2058 ;;      Totals:         1       0       0       0       0
  2059 ;;Total ram usage:        1 bytes
  2060 ;; Hardware stack levels used:    1
  2061 ;; Hardware stack levels required when called:    6
  2062 ;; This function calls:
  2063 ;;		_DELAY_ms
  2064 ;;		_GLCD_Clear
  2065 ;;		_GLCD_GoToPage
  2066 ;;		_glcd_CmdWrite
  2067 ;;		_glcd_SelectPage0
  2068 ;;		_glcd_SelectPage1
  2069 ;; This function is called by:
  2070 ;;		_main
  2071 ;; This function uses a non-reentrant model
  2072 ;;
  2073                           
  2074                           
  2075                           ;psect for function _GLCD_Init
  2076  079D                     _GLCD_Init:	
  2077  079D                     l1481:	
  2078                           ;incstack = 0
  2079                           ; Regs used in _GLCD_Init: [wreg+status,2+status,0+pclath+cstack]
  2080                           
  2081                           
  2082                           ;glcd.c: 166:     TRISB = 0x00;
  2083  079D  1683               	bsf	3,5	;RP0=1, select bank1
  2084  079E  1303               	bcf	3,6	;RP1=0, select bank1
  2085  079F  0186               	clrf	6	;volatile
  2086  07A0                     l1483:	
  2087                           
  2088                           ;glcd.c: 167:     TRISD &= ~((1<<0)|(1<<1)|(1<<2)|(1<<3)|(1<<4));
  2089  07A0  30E0               	movlw	224
  2090  07A1  00FB               	movwf	??_GLCD_Init
  2091  07A2  087B               	movf	??_GLCD_Init,w
  2092  07A3  0588               	andwf	8,f	;volatile
  2093  07A4                     l1485:	
  2094                           
  2095                           ;glcd.c: 170:  glcd_SelectPage0();
  2096  07A4  120A  118A  261B  120A  118A  	fcall	_glcd_SelectPage0
  2097  07A9                     l1487:	
  2098                           
  2099                           ;glcd.c: 171:  glcd_CmdWrite(0x3f);
  2100  07A9  303F               	movlw	63
  2101  07AA  120A  118A  26A2  120A  118A  	fcall	_glcd_CmdWrite
  2102  07AF                     l1489:	
  2103                           
  2104                           ;glcd.c: 172:  glcd_SelectPage1();
  2105  07AF  120A  118A  2623  120A  118A  	fcall	_glcd_SelectPage1
  2106  07B4                     l1491:	
  2107                           
  2108                           ;glcd.c: 173:  glcd_CmdWrite(0x3f);
  2109  07B4  303F               	movlw	63
  2110  07B5  120A  118A  26A2  120A  118A  	fcall	_glcd_CmdWrite
  2111  07BA                     l1493:	
  2112                           
  2113                           ;glcd.c: 174:  DELAY_ms(10);
  2114  07BA  300A               	movlw	10
  2115  07BB  00F2               	movwf	DELAY_ms@ms_count
  2116  07BC  3000               	movlw	0
  2117  07BD  00F3               	movwf	DELAY_ms@ms_count+1
  2118  07BE  120A  118A  266A  120A  118A  	fcall	_DELAY_ms
  2119  07C3                     l1495:	
  2120                           
  2121                           ;glcd.c: 177:  glcd_SelectPage0();
  2122  07C3  120A  118A  261B  120A  118A  	fcall	_glcd_SelectPage0
  2123  07C8                     l1497:	
  2124                           
  2125                           ;glcd.c: 178:  glcd_CmdWrite(0xc0);
  2126  07C8  30C0               	movlw	192
  2127  07C9  120A  118A  26A2  120A  118A  	fcall	_glcd_CmdWrite
  2128  07CE                     l1499:	
  2129                           
  2130                           ;glcd.c: 179:  glcd_SelectPage1();
  2131  07CE  120A  118A  2623  120A  118A  	fcall	_glcd_SelectPage1
  2132  07D3                     l1501:	
  2133                           
  2134                           ;glcd.c: 180:  glcd_CmdWrite(0xc0);
  2135  07D3  30C0               	movlw	192
  2136  07D4  120A  118A  26A2  120A  118A  	fcall	_glcd_CmdWrite
  2137  07D9                     l1503:	
  2138                           
  2139                           ;glcd.c: 181:  GLCD_GoToPage(0);
  2140  07D9  3000               	movlw	0
  2141  07DA  120A  118A  26C5  120A  118A  	fcall	_GLCD_GoToPage
  2142  07DF                     l1505:	
  2143                           
  2144                           ;glcd.c: 184:  GLCD_Clear();
  2145  07DF  120A  118A  26F9  120A  118A  	fcall	_GLCD_Clear
  2146  07E4                     l1507:	
  2147                           
  2148                           ;glcd.c: 187:  GLCD.PageNum=0;
  2149  07E4  1283               	bcf	3,5	;RP0=0, select bank0
  2150  07E5  1303               	bcf	3,6	;RP1=0, select bank0
  2151  07E6  01A0               	clrf	_GLCD
  2152  07E7                     l1509:	
  2153                           
  2154                           ;glcd.c: 188:  GLCD.LineNum=0xB8;
  2155  07E7  30B8               	movlw	184
  2156  07E8  00FB               	movwf	??_GLCD_Init
  2157  07E9  087B               	movf	??_GLCD_Init,w
  2158  07EA  00A1               	movwf	_GLCD+1
  2159  07EB                     l1511:	
  2160                           
  2161                           ;glcd.c: 189:  GLCD.CursorPos=0x40;
  2162  07EB  3040               	movlw	64
  2163  07EC  00FB               	movwf	??_GLCD_Init
  2164  07ED  087B               	movf	??_GLCD_Init,w
  2165  07EE  00A2               	movwf	_GLCD+2
  2166  07EF                     l1513:	
  2167                           
  2168                           ;glcd.c: 190:  GLCD_GoToPage(0);
  2169  07EF  3000               	movlw	0
  2170  07F0  120A  118A  26C5  120A  118A  	fcall	_GLCD_GoToPage
  2171  07F5                     l55:	
  2172  07F5  0008               	return
  2173  07F6                     __end_of_GLCD_Init:	
  2174                           
  2175                           	psect	text2
  2176  06F9                     __ptext2:	
  2177 ;; *************** function _GLCD_Clear *****************
  2178 ;; Defined at:
  2179 ;;		line 667 in file "glcd.c"
  2180 ;; Parameters:    Size  Location     Type
  2181 ;;		None
  2182 ;; Auto vars:     Size  Location     Type
  2183 ;;  line            1   10[COMMON] unsigned char 
  2184 ;;  cursor          1    9[COMMON] unsigned char 
  2185 ;; Return value:  Size  Location     Type
  2186 ;;                  1    wreg      void 
  2187 ;; Registers used:
  2188 ;;		wreg, status,2, status,0, pclath, cstack
  2189 ;; Tracked objects:
  2190 ;;		On entry : 0/0
  2191 ;;		On exit  : 0/0
  2192 ;;		Unchanged: 0/0
  2193 ;; Data sizes:     COMMON   BANK0   BANK1   BANK3   BANK2
  2194 ;;      Params:         0       0       0       0       0
  2195 ;;      Locals:         2       0       0       0       0
  2196 ;;      Temps:          1       0       0       0       0
  2197 ;;      Totals:         3       0       0       0       0
  2198 ;;Total ram usage:        3 bytes
  2199 ;; Hardware stack levels used:    1
  2200 ;; Hardware stack levels required when called:    5
  2201 ;; This function calls:
  2202 ;;		_GLCD_GoToLine
  2203 ;;		_glcd_CmdWrite
  2204 ;;		_glcd_DataWrite
  2205 ;;		_glcd_SelectPage0
  2206 ;;		_glcd_SelectPage1
  2207 ;; This function is called by:
  2208 ;;		_GLCD_Init
  2209 ;; This function uses a non-reentrant model
  2210 ;;
  2211                           
  2212                           
  2213                           ;psect for function _GLCD_Clear
  2214  06F9                     _GLCD_Clear:	
  2215  06F9                     l1421:	
  2216                           ;incstack = 0
  2217                           ; Regs used in _GLCD_Clear: [wreg+status,2+status,0+pclath+cstack]
  2218                           
  2219                           
  2220                           ;glcd.c: 669:  uint8_t line,cursor;;glcd.c: 671:  for(line=0;line<8;line++)
  2221  06F9  01FA               	clrf	GLCD_Clear@line
  2222  06FA                     l1427:	
  2223                           
  2224                           ;glcd.c: 672:  {;glcd.c: 673:   glcd_SelectPage0();
  2225  06FA  120A  118A  261B  120A  118A  	fcall	_glcd_SelectPage0
  2226                           
  2227                           ;glcd.c: 674:   glcd_CmdWrite(0x40);
  2228  06FF  3040               	movlw	64
  2229  0700  120A  118A  26A2  120A  118A  	fcall	_glcd_CmdWrite
  2230                           
  2231                           ;glcd.c: 675:   glcd_CmdWrite(0xB8 +line);
  2232  0705  087A               	movf	GLCD_Clear@line,w
  2233  0706  3EB8               	addlw	184
  2234  0707  120A  118A  26A2  120A  118A  	fcall	_glcd_CmdWrite
  2235  070C                     l1429:	
  2236                           
  2237                           ;glcd.c: 676:   for(cursor=0;cursor<128;cursor++)
  2238  070C  01F9               	clrf	GLCD_Clear@cursor
  2239  070D                     l1435:	
  2240                           
  2241                           ;glcd.c: 677:   {;glcd.c: 678:    if(cursor==64)
  2242  070D  3040               	movlw	64
  2243  070E  0679               	xorwf	GLCD_Clear@cursor,w
  2244  070F  1D03               	btfss	3,2
  2245  0710  2F12               	goto	u731
  2246  0711  2F13               	goto	u730
  2247  0712                     u731:	
  2248  0712  2F25               	goto	l149
  2249  0713                     u730:	
  2250  0713                     l1437:	
  2251                           
  2252                           ;glcd.c: 679:    {;glcd.c: 680:     glcd_SelectPage1();
  2253  0713  120A  118A  2623  120A  118A  	fcall	_glcd_SelectPage1
  2254                           
  2255                           ;glcd.c: 681:     glcd_CmdWrite(0x40);
  2256  0718  3040               	movlw	64
  2257  0719  120A  118A  26A2  120A  118A  	fcall	_glcd_CmdWrite
  2258                           
  2259                           ;glcd.c: 682:     glcd_CmdWrite(0xB8 +line);
  2260  071E  087A               	movf	GLCD_Clear@line,w
  2261  071F  3EB8               	addlw	184
  2262  0720  120A  118A  26A2  120A  118A  	fcall	_glcd_CmdWrite
  2263  0725                     l149:	
  2264                           ;glcd.c: 683:    }
  2265                           
  2266                           
  2267                           ;glcd.c: 684:    glcd_DataWrite(0x00);
  2268  0725  3000               	movlw	0
  2269  0726  120A  118A  2681  120A  118A  	fcall	_glcd_DataWrite
  2270  072B                     l1439:	
  2271                           
  2272                           ;glcd.c: 685:   }
  2273  072B  3001               	movlw	1
  2274  072C  00F8               	movwf	??_GLCD_Clear
  2275  072D  0878               	movf	??_GLCD_Clear,w
  2276  072E  07F9               	addwf	GLCD_Clear@cursor,f
  2277  072F                     l1441:	
  2278  072F  3080               	movlw	128
  2279  0730  0279               	subwf	GLCD_Clear@cursor,w
  2280  0731  1C03               	skipc
  2281  0732  2F34               	goto	u741
  2282  0733  2F35               	goto	u740
  2283  0734                     u741:	
  2284  0734  2F0D               	goto	l1435
  2285  0735                     u740:	
  2286  0735                     l1443:	
  2287                           
  2288                           ;glcd.c: 686:  }
  2289  0735  3001               	movlw	1
  2290  0736  00F8               	movwf	??_GLCD_Clear
  2291  0737  0878               	movf	??_GLCD_Clear,w
  2292  0738  07FA               	addwf	GLCD_Clear@line,f
  2293  0739                     l1445:	
  2294  0739  3008               	movlw	8
  2295  073A  027A               	subwf	GLCD_Clear@line,w
  2296  073B  1C03               	skipc
  2297  073C  2F3E               	goto	u751
  2298  073D  2F3F               	goto	u750
  2299  073E                     u751:	
  2300  073E  2EFA               	goto	l1427
  2301  073F                     u750:	
  2302  073F                     l1447:	
  2303                           
  2304                           ;glcd.c: 688:  GLCD_GoToLine(0);
  2305  073F  3000               	movlw	0
  2306  0740  120A  118A  2655  120A  118A  	fcall	_GLCD_GoToLine
  2307  0745                     l150:	
  2308  0745  0008               	return
  2309  0746                     __end_of_GLCD_Clear:	
  2310                           
  2311                           	psect	text3
  2312  0655                     __ptext3:	
  2313 ;; *************** function _GLCD_GoToLine *****************
  2314 ;; Defined at:
  2315 ;;		line 740 in file "glcd.c"
  2316 ;; Parameters:    Size  Location     Type
  2317 ;;  lineNumber      1    wreg     unsigned char 
  2318 ;; Auto vars:     Size  Location     Type
  2319 ;;  lineNumber      1    7[COMMON] unsigned char 
  2320 ;; Return value:  Size  Location     Type
  2321 ;;                  1    wreg      void 
  2322 ;; Registers used:
  2323 ;;		wreg, status,2, status,0, pclath, cstack
  2324 ;; Tracked objects:
  2325 ;;		On entry : 0/0
  2326 ;;		On exit  : 0/0
  2327 ;;		Unchanged: 0/0
  2328 ;; Data sizes:     COMMON   BANK0   BANK1   BANK3   BANK2
  2329 ;;      Params:         0       0       0       0       0
  2330 ;;      Locals:         1       0       0       0       0
  2331 ;;      Temps:          1       0       0       0       0
  2332 ;;      Totals:         2       0       0       0       0
  2333 ;;Total ram usage:        2 bytes
  2334 ;; Hardware stack levels used:    1
  2335 ;; Hardware stack levels required when called:    4
  2336 ;; This function calls:
  2337 ;;		_GLCD_GoToPage
  2338 ;; This function is called by:
  2339 ;;		_GLCD_Clear
  2340 ;; This function uses a non-reentrant model
  2341 ;;
  2342                           
  2343                           
  2344                           ;psect for function _GLCD_GoToLine
  2345  0655                     _GLCD_GoToLine:	
  2346                           
  2347                           ;incstack = 0
  2348                           ; Regs used in _GLCD_GoToLine: [wreg+status,2+status,0+pclath+cstack]
  2349                           ;GLCD_GoToLine@lineNumber stored from wreg
  2350  0655  00F7               	movwf	GLCD_GoToLine@lineNumber
  2351  0656                     l1407:	
  2352                           
  2353                           ;glcd.c: 740: void GLCD_GoToLine(uint8_t lineNumber);glcd.c: 741: {;glcd.c: 742:  if(lin
      +                          eNumber<8)
  2354  0656  3008               	movlw	8
  2355  0657  0277               	subwf	GLCD_GoToLine@lineNumber,w
  2356  0658  1803               	skipnc
  2357  0659  2E5B               	goto	u711
  2358  065A  2E5C               	goto	u710
  2359  065B                     u711:	
  2360  065B  2E69               	goto	l162
  2361  065C                     u710:	
  2362  065C                     l1409:	
  2363                           
  2364                           ;glcd.c: 743:  {;glcd.c: 745:   GLCD.LineNum = lineNumber+0xB8;
  2365  065C  0877               	movf	GLCD_GoToLine@lineNumber,w
  2366  065D  3EB8               	addlw	184
  2367  065E  00F6               	movwf	??_GLCD_GoToLine
  2368  065F  0876               	movf	??_GLCD_GoToLine,w
  2369  0660  1283               	bcf	3,5	;RP0=0, select bank0
  2370  0661  1303               	bcf	3,6	;RP1=0, select bank0
  2371  0662  00A1               	movwf	_GLCD+1
  2372  0663                     l1411:	
  2373                           
  2374                           ;glcd.c: 746:   GLCD_GoToPage(0);
  2375  0663  3000               	movlw	0
  2376  0664  120A  118A  26C5  120A  118A  	fcall	_GLCD_GoToPage
  2377  0669                     l162:	
  2378  0669  0008               	return
  2379  066A                     __end_of_GLCD_GoToLine:	
  2380                           
  2381                           	psect	text4
  2382  06C5                     __ptext4:	
  2383 ;; *************** function _GLCD_GoToPage *****************
  2384 ;; Defined at:
  2385 ;;		line 704 in file "glcd.c"
  2386 ;; Parameters:    Size  Location     Type
  2387 ;;  pageNumber      1    wreg     unsigned char 
  2388 ;; Auto vars:     Size  Location     Type
  2389 ;;  pageNumber      1    5[COMMON] unsigned char 
  2390 ;; Return value:  Size  Location     Type
  2391 ;;                  1    wreg      void 
  2392 ;; Registers used:
  2393 ;;		wreg, status,2, status,0, pclath, cstack
  2394 ;; Tracked objects:
  2395 ;;		On entry : 0/0
  2396 ;;		On exit  : 0/0
  2397 ;;		Unchanged: 0/0
  2398 ;; Data sizes:     COMMON   BANK0   BANK1   BANK3   BANK2
  2399 ;;      Params:         0       0       0       0       0
  2400 ;;      Locals:         1       0       0       0       0
  2401 ;;      Temps:          1       0       0       0       0
  2402 ;;      Totals:         2       0       0       0       0
  2403 ;;Total ram usage:        2 bytes
  2404 ;; Hardware stack levels used:    1
  2405 ;; Hardware stack levels required when called:    3
  2406 ;; This function calls:
  2407 ;;		_glcd_CmdWrite
  2408 ;;		_glcd_SelectPage0
  2409 ;;		_glcd_SelectPage1
  2410 ;; This function is called by:
  2411 ;;		_GLCD_Init
  2412 ;;		_GLCD_GoToLine
  2413 ;;		_GLCD_DisplayChar
  2414 ;;		_GLCD_GoToNextLine
  2415 ;;		_GLCD_HorizontalGraph
  2416 ;; This function uses a non-reentrant model
  2417 ;;
  2418                           
  2419                           
  2420                           ;psect for function _GLCD_GoToPage
  2421  06C5                     _GLCD_GoToPage:	
  2422                           
  2423                           ;incstack = 0
  2424                           ; Regs used in _GLCD_GoToPage: [wreg+status,2+status,0+pclath+cstack]
  2425                           ;GLCD_GoToPage@pageNumber stored from wreg
  2426  06C5  00F5               	movwf	GLCD_GoToPage@pageNumber
  2427  06C6                     l1373:	
  2428                           
  2429                           ;glcd.c: 704: void GLCD_GoToPage(uint8_t pageNumber);glcd.c: 705: {;glcd.c: 707:  if((pa
      +                          geNumber==0) || (pageNumber ==1))
  2430  06C6  0875               	movf	GLCD_GoToPage@pageNumber,w
  2431  06C7  1903               	btfsc	3,2
  2432  06C8  2ECA               	goto	u671
  2433  06C9  2ECB               	goto	u670
  2434  06CA                     u671:	
  2435  06CA  2ED0               	goto	l1377
  2436  06CB                     u670:	
  2437  06CB                     l1375:	
  2438  06CB  0375               	decf	GLCD_GoToPage@pageNumber,w
  2439  06CC  1D03               	btfss	3,2
  2440  06CD  2ECF               	goto	u681
  2441  06CE  2ED0               	goto	u680
  2442  06CF                     u681:	
  2443  06CF  2EF8               	goto	l158
  2444  06D0                     u680:	
  2445  06D0                     l1377:	
  2446                           
  2447                           ;glcd.c: 708:  {;glcd.c: 710:   if(pageNumber == 0)
  2448  06D0  0875               	movf	GLCD_GoToPage@pageNumber,w
  2449  06D1  1D03               	btfss	3,2
  2450  06D2  2ED4               	goto	u691
  2451  06D3  2ED5               	goto	u690
  2452  06D4                     u691:	
  2453  06D4  2EDB               	goto	l1381
  2454  06D5                     u690:	
  2455  06D5                     l1379:	
  2456                           
  2457                           ;glcd.c: 711:   {;glcd.c: 713:    glcd_SelectPage0();
  2458  06D5  120A  118A  261B  120A  118A  	fcall	_glcd_SelectPage0
  2459                           
  2460                           ;glcd.c: 714:   }
  2461  06DA  2EE0               	goto	l1383
  2462  06DB                     l1381:	
  2463                           
  2464                           ;glcd.c: 716:   {;glcd.c: 717:    glcd_SelectPage1();
  2465  06DB  120A  118A  2623  120A  118A  	fcall	_glcd_SelectPage1
  2466  06E0                     l1383:	
  2467                           
  2468                           ;glcd.c: 720:   GLCD.PageNum=pageNumber;
  2469  06E0  0875               	movf	GLCD_GoToPage@pageNumber,w
  2470  06E1  00F4               	movwf	??_GLCD_GoToPage
  2471  06E2  0874               	movf	??_GLCD_GoToPage,w
  2472  06E3  1283               	bcf	3,5	;RP0=0, select bank0
  2473  06E4  1303               	bcf	3,6	;RP1=0, select bank0
  2474  06E5  00A0               	movwf	_GLCD
  2475  06E6                     l1385:	
  2476                           
  2477                           ;glcd.c: 721:   GLCD.CursorPos=0x40;
  2478  06E6  3040               	movlw	64
  2479  06E7  00F4               	movwf	??_GLCD_GoToPage
  2480  06E8  0874               	movf	??_GLCD_GoToPage,w
  2481  06E9  00A2               	movwf	_GLCD+2
  2482                           
  2483                           ;glcd.c: 722:   glcd_CmdWrite(GLCD.LineNum);
  2484  06EA  0821               	movf	_GLCD+1,w
  2485  06EB  120A  118A  26A2  120A  118A  	fcall	_glcd_CmdWrite
  2486                           
  2487                           ;glcd.c: 723:   glcd_CmdWrite(GLCD.CursorPos);
  2488  06F0  1283               	bcf	3,5	;RP0=0, select bank0
  2489  06F1  1303               	bcf	3,6	;RP1=0, select bank0
  2490  06F2  0822               	movf	_GLCD+2,w
  2491  06F3  120A  118A  26A2  120A  118A  	fcall	_glcd_CmdWrite
  2492  06F8                     l158:	
  2493  06F8  0008               	return
  2494  06F9                     __end_of_GLCD_GoToPage:	
  2495                           
  2496                           	psect	text5
  2497  066A                     __ptext5:	
  2498 ;; *************** function _DELAY_ms *****************
  2499 ;; Defined at:
  2500 ;;		line 70 in file "delay.c"
  2501 ;; Parameters:    Size  Location     Type
  2502 ;;  ms_count        2    2[COMMON] unsigned int 
  2503 ;; Auto vars:     Size  Location     Type
  2504 ;;		None
  2505 ;; Return value:  Size  Location     Type
  2506 ;;                  1    wreg      void 
  2507 ;; Registers used:
  2508 ;;		wreg, status,2, status,0, pclath, cstack
  2509 ;; Tracked objects:
  2510 ;;		On entry : 0/0
  2511 ;;		On exit  : 0/0
  2512 ;;		Unchanged: 0/0
  2513 ;; Data sizes:     COMMON   BANK0   BANK1   BANK3   BANK2
  2514 ;;      Params:         2       0       0       0       0
  2515 ;;      Locals:         0       0       0       0       0
  2516 ;;      Temps:          0       0       0       0       0
  2517 ;;      Totals:         2       0       0       0       0
  2518 ;;Total ram usage:        2 bytes
  2519 ;; Hardware stack levels used:    1
  2520 ;; Hardware stack levels required when called:    1
  2521 ;; This function calls:
  2522 ;;		_DELAY_us
  2523 ;; This function is called by:
  2524 ;;		_GLCD_Init
  2525 ;;		_DELAY_sec
  2526 ;; This function uses a non-reentrant model
  2527 ;;
  2528                           
  2529                           
  2530                           ;psect for function _DELAY_ms
  2531  066A                     _DELAY_ms:	
  2532  066A                     l1413:	
  2533                           ;incstack = 0
  2534                           ; Regs used in _DELAY_ms: [wreg+status,2+status,0+pclath+cstack]
  2535                           
  2536                           
  2537                           ;delay.c: 70: void DELAY_ms(uint16_t ms_count);delay.c: 71: {;delay.c: 72:     while (ms
      +                          _count != 0)
  2538  066A  2E7A               	goto	l1419
  2539  066B                     l1415:	
  2540                           
  2541                           ;delay.c: 73:     {;delay.c: 74:         DELAY_us(300u);
  2542  066B  302C               	movlw	44
  2543  066C  00F0               	movwf	DELAY_us@us_count
  2544  066D  3001               	movlw	1
  2545  066E  00F1               	movwf	DELAY_us@us_count+1
  2546  066F  120A  118A  2635  120A  118A  	fcall	_DELAY_us
  2547  0674                     l1417:	
  2548                           
  2549                           ;delay.c: 75:         ms_count--;
  2550  0674  3001               	movlw	1
  2551  0675  02F2               	subwf	DELAY_ms@ms_count,f
  2552  0676  3000               	movlw	0
  2553  0677  1C03               	skipc
  2554  0678  03F3               	decf	DELAY_ms@ms_count+1,f
  2555  0679  02F3               	subwf	DELAY_ms@ms_count+1,f
  2556  067A                     l1419:	
  2557                           
  2558                           ;delay.c: 72:     while (ms_count != 0)
  2559  067A  0872               	movf	DELAY_ms@ms_count,w
  2560  067B  0473               	iorwf	DELAY_ms@ms_count+1,w
  2561  067C  1D03               	btfss	3,2
  2562  067D  2E7F               	goto	u721
  2563  067E  2E80               	goto	u720
  2564  067F                     u721:	
  2565  067F  2E6B               	goto	l1415
  2566  0680                     u720:	
  2567  0680                     l233:	
  2568  0680  0008               	return
  2569  0681                     __end_of_DELAY_ms:	
  2570                           
  2571                           	psect	text6
  2572  0746                     __ptext6:	
  2573 ;; *************** function _GLCD_DisplayLogo *****************
  2574 ;; Defined at:
  2575 ;;		line 835 in file "glcd.c"
  2576 ;; Parameters:    Size  Location     Type
  2577 ;;  ptr_Logo        2    4[COMMON] PTR const unsigned char 
  2578 ;;		 -> meme(1024), 
  2579 ;; Auto vars:     Size  Location     Type
  2580 ;;  line            1    8[COMMON] unsigned char 
  2581 ;;  cursor          1    7[COMMON] unsigned char 
  2582 ;; Return value:  Size  Location     Type
  2583 ;;                  1    wreg      void 
  2584 ;; Registers used:
  2585 ;;		wreg, fsr0l, fsr0h, status,2, status,0, btemp+1, pclath, cstack
  2586 ;; Tracked objects:
  2587 ;;		On entry : 0/0
  2588 ;;		On exit  : 0/0
  2589 ;;		Unchanged: 0/0
  2590 ;; Data sizes:     COMMON   BANK0   BANK1   BANK3   BANK2
  2591 ;;      Params:         2       0       0       0       0
  2592 ;;      Locals:         2       0       0       0       0
  2593 ;;      Temps:          1       0       0       0       0
  2594 ;;      Totals:         5       0       0       0       0
  2595 ;;Total ram usage:        5 bytes
  2596 ;; Hardware stack levels used:    1
  2597 ;; Hardware stack levels required when called:    3
  2598 ;; This function calls:
  2599 ;;		_glcd_CmdWrite
  2600 ;;		_glcd_DataWrite
  2601 ;;		_glcd_SelectPage0
  2602 ;;		_glcd_SelectPage1
  2603 ;; This function is called by:
  2604 ;;		_main
  2605 ;; This function uses a non-reentrant model
  2606 ;;
  2607                           
  2608                           
  2609                           ;psect for function _GLCD_DisplayLogo
  2610  0746                     _GLCD_DisplayLogo:	
  2611  0746                     l1515:	
  2612                           ;incstack = 0
  2613                           ; Regs used in _GLCD_DisplayLogo: [wreg-fsr0h+status,2+status,0+btemp+1+pclath+cstack]
  2614                           
  2615                           
  2616                           ;glcd.c: 835: void GLCD_DisplayLogo(const char ptr_Logo[]);glcd.c: 836: {;glcd.c: 837:  
      +                          uint8_t line,cursor;;glcd.c: 839:  for(line=0;line<8;line++)
  2617  0746  01F8               	clrf	GLCD_DisplayLogo@line
  2618  0747                     l1521:	
  2619                           
  2620                           ;glcd.c: 840:  {;glcd.c: 841:   glcd_SelectPage0();
  2621  0747  120A  118A  261B  120A  118A  	fcall	_glcd_SelectPage0
  2622                           
  2623                           ;glcd.c: 842:      glcd_CmdWrite(0x40);
  2624  074C  3040               	movlw	64
  2625  074D  120A  118A  26A2  120A  118A  	fcall	_glcd_CmdWrite
  2626                           
  2627                           ;glcd.c: 843:   glcd_CmdWrite(0xB8 +line);
  2628  0752  0878               	movf	GLCD_DisplayLogo@line,w
  2629  0753  3EB8               	addlw	184
  2630  0754  120A  118A  26A2  120A  118A  	fcall	_glcd_CmdWrite
  2631  0759                     l1523:	
  2632                           
  2633                           ;glcd.c: 844:   for(cursor=0;cursor<128;cursor++)
  2634  0759  01F7               	clrf	GLCD_DisplayLogo@cursor
  2635  075A                     l1529:	
  2636                           
  2637                           ;glcd.c: 845:   {;glcd.c: 846:    if(cursor==64)
  2638  075A  3040               	movlw	64
  2639  075B  0677               	xorwf	GLCD_DisplayLogo@cursor,w
  2640  075C  1D03               	btfss	3,2
  2641  075D  2F5F               	goto	u831
  2642  075E  2F60               	goto	u830
  2643  075F                     u831:	
  2644  075F  2F72               	goto	l1533
  2645  0760                     u830:	
  2646  0760                     l1531:	
  2647                           
  2648                           ;glcd.c: 847:    {;glcd.c: 848:     glcd_SelectPage1();
  2649  0760  120A  118A  2623  120A  118A  	fcall	_glcd_SelectPage1
  2650                           
  2651                           ;glcd.c: 849:     glcd_CmdWrite(0x40);
  2652  0765  3040               	movlw	64
  2653  0766  120A  118A  26A2  120A  118A  	fcall	_glcd_CmdWrite
  2654                           
  2655                           ;glcd.c: 850:     glcd_CmdWrite(0xB8 +line);
  2656  076B  0878               	movf	GLCD_DisplayLogo@line,w
  2657  076C  3EB8               	addlw	184
  2658  076D  120A  118A  26A2  120A  118A  	fcall	_glcd_CmdWrite
  2659  0772                     l1533:	
  2660                           
  2661                           ;glcd.c: 852:    glcd_DataWrite(*ptr_Logo++);
  2662  0772  0875               	movf	GLCD_DisplayLogo@ptr_Logo+1,w
  2663  0773  1283               	bcf	3,5	;RP0=0, select bank0
  2664  0774  1303               	bcf	3,6	;RP1=0, select bank0
  2665  0775  00FF               	movwf	btemp+1
  2666  0776  0874               	movf	GLCD_DisplayLogo@ptr_Logo,w
  2667  0777  0084               	movwf	4
  2668  0778  120A  158A  2000  120A  118A  	fcall	stringtab
  2669  077D  120A  118A  2681  120A  118A  	fcall	_glcd_DataWrite
  2670  0782                     l1535:	
  2671  0782  3001               	movlw	1
  2672  0783  07F4               	addwf	GLCD_DisplayLogo@ptr_Logo,f
  2673  0784  1803               	skipnc
  2674  0785  0AF5               	incf	GLCD_DisplayLogo@ptr_Logo+1,f
  2675  0786  3000               	movlw	0
  2676  0787  07F5               	addwf	GLCD_DisplayLogo@ptr_Logo+1,f
  2677  0788                     l1537:	
  2678                           
  2679                           ;glcd.c: 853:   }
  2680  0788  3001               	movlw	1
  2681  0789  00F6               	movwf	??_GLCD_DisplayLogo
  2682  078A  0876               	movf	??_GLCD_DisplayLogo,w
  2683  078B  07F7               	addwf	GLCD_DisplayLogo@cursor,f
  2684  078C                     l1539:	
  2685  078C  3080               	movlw	128
  2686  078D  0277               	subwf	GLCD_DisplayLogo@cursor,w
  2687  078E  1C03               	skipc
  2688  078F  2F91               	goto	u841
  2689  0790  2F92               	goto	u840
  2690  0791                     u841:	
  2691  0791  2F5A               	goto	l1529
  2692  0792                     u840:	
  2693  0792                     l1541:	
  2694                           
  2695                           ;glcd.c: 854:  }
  2696  0792  3001               	movlw	1
  2697  0793  00F6               	movwf	??_GLCD_DisplayLogo
  2698  0794  0876               	movf	??_GLCD_DisplayLogo,w
  2699  0795  07F8               	addwf	GLCD_DisplayLogo@line,f
  2700  0796                     l1543:	
  2701  0796  3008               	movlw	8
  2702  0797  0278               	subwf	GLCD_DisplayLogo@line,w
  2703  0798  1C03               	skipc
  2704  0799  2F9B               	goto	u851
  2705  079A  2F9C               	goto	u850
  2706  079B                     u851:	
  2707  079B  2F47               	goto	l1521
  2708  079C                     u850:	
  2709  079C                     l180:	
  2710  079C  0008               	return
  2711  079D                     __end_of_GLCD_DisplayLogo:	
  2712                           
  2713                           	psect	text7
  2714  0623                     __ptext7:	
  2715 ;; *************** function _glcd_SelectPage1 *****************
  2716 ;; Defined at:
  2717 ;;		line 1047 in file "glcd.c"
  2718 ;; Parameters:    Size  Location     Type
  2719 ;;		None
  2720 ;; Auto vars:     Size  Location     Type
  2721 ;;		None
  2722 ;; Return value:  Size  Location     Type
  2723 ;;                  1    wreg      void 
  2724 ;; Registers used:
  2725 ;;		wreg, status,2, status,0
  2726 ;; Tracked objects:
  2727 ;;		On entry : 0/0
  2728 ;;		On exit  : 0/0
  2729 ;;		Unchanged: 0/0
  2730 ;; Data sizes:     COMMON   BANK0   BANK1   BANK3   BANK2
  2731 ;;      Params:         0       0       0       0       0
  2732 ;;      Locals:         0       0       0       0       0
  2733 ;;      Temps:          1       0       0       0       0
  2734 ;;      Totals:         1       0       0       0       0
  2735 ;;Total ram usage:        1 bytes
  2736 ;; Hardware stack levels used:    1
  2737 ;; This function calls:
  2738 ;;		Nothing
  2739 ;; This function is called by:
  2740 ;;		_GLCD_Init
  2741 ;;		_GLCD_Clear
  2742 ;;		_GLCD_GoToPage
  2743 ;;		_GLCD_DisplayLogo
  2744 ;;		_GLCD_SetCursor
  2745 ;; This function uses a non-reentrant model
  2746 ;;
  2747                           
  2748                           
  2749                           ;psect for function _glcd_SelectPage1
  2750  0623                     _glcd_SelectPage1:	
  2751  0623                     l1369:	
  2752                           ;incstack = 0
  2753                           ; Regs used in _glcd_SelectPage1: [wreg+status,2+status,0]
  2754                           
  2755                           
  2756                           ;glcd.c: 1049:  (((PORTD)) |= (1<<((4))));
  2757  0623  1283               	bcf	3,5	;RP0=0, select bank0
  2758  0624  1303               	bcf	3,6	;RP1=0, select bank0
  2759  0625  1608               	bsf	8,4	;volatile
  2760  0626                     l1371:	
  2761                           
  2762                           ;glcd.c: 1050:  (((PORTD)) &= ~(1<<((3))));
  2763  0626  30F7               	movlw	247
  2764  0627  00F0               	movwf	??_glcd_SelectPage1
  2765  0628  0870               	movf	??_glcd_SelectPage1,w
  2766  0629  0588               	andwf	8,f	;volatile
  2767  062A                     l218:	
  2768  062A  0008               	return
  2769  062B                     __end_of_glcd_SelectPage1:	
  2770                           
  2771                           	psect	text8
  2772  061B                     __ptext8:	
  2773 ;; *************** function _glcd_SelectPage0 *****************
  2774 ;; Defined at:
  2775 ;;		line 1039 in file "glcd.c"
  2776 ;; Parameters:    Size  Location     Type
  2777 ;;		None
  2778 ;; Auto vars:     Size  Location     Type
  2779 ;;		None
  2780 ;; Return value:  Size  Location     Type
  2781 ;;                  1    wreg      void 
  2782 ;; Registers used:
  2783 ;;		wreg, status,2, status,0
  2784 ;; Tracked objects:
  2785 ;;		On entry : 0/0
  2786 ;;		On exit  : 0/0
  2787 ;;		Unchanged: 0/0
  2788 ;; Data sizes:     COMMON   BANK0   BANK1   BANK3   BANK2
  2789 ;;      Params:         0       0       0       0       0
  2790 ;;      Locals:         0       0       0       0       0
  2791 ;;      Temps:          1       0       0       0       0
  2792 ;;      Totals:         1       0       0       0       0
  2793 ;;Total ram usage:        1 bytes
  2794 ;; Hardware stack levels used:    1
  2795 ;; This function calls:
  2796 ;;		Nothing
  2797 ;; This function is called by:
  2798 ;;		_GLCD_Init
  2799 ;;		_GLCD_Clear
  2800 ;;		_GLCD_GoToPage
  2801 ;;		_GLCD_DisplayLogo
  2802 ;;		_GLCD_SetCursor
  2803 ;; This function uses a non-reentrant model
  2804 ;;
  2805                           
  2806                           
  2807                           ;psect for function _glcd_SelectPage0
  2808  061B                     _glcd_SelectPage0:	
  2809  061B                     l1351:	
  2810                           ;incstack = 0
  2811                           ; Regs used in _glcd_SelectPage0: [wreg+status,2+status,0]
  2812                           
  2813                           
  2814                           ;glcd.c: 1041:  (((PORTD)) |= (1<<((3))));
  2815  061B  1283               	bcf	3,5	;RP0=0, select bank0
  2816  061C  1303               	bcf	3,6	;RP1=0, select bank0
  2817  061D  1588               	bsf	8,3	;volatile
  2818  061E                     l1353:	
  2819                           
  2820                           ;glcd.c: 1042:  (((PORTD)) &= ~(1<<((4))));
  2821  061E  30EF               	movlw	239
  2822  061F  00F0               	movwf	??_glcd_SelectPage0
  2823  0620  0870               	movf	??_glcd_SelectPage0,w
  2824  0621  0588               	andwf	8,f	;volatile
  2825  0622                     l215:	
  2826  0622  0008               	return
  2827  0623                     __end_of_glcd_SelectPage0:	
  2828                           
  2829                           	psect	text9
  2830  0681                     __ptext9:	
  2831 ;; *************** function _glcd_DataWrite *****************
  2832 ;; Defined at:
  2833 ;;		line 1025 in file "glcd.c"
  2834 ;; Parameters:    Size  Location     Type
  2835 ;;  dat             1    wreg     unsigned char 
  2836 ;; Auto vars:     Size  Location     Type
  2837 ;;  dat             1    3[COMMON] unsigned char 
  2838 ;; Return value:  Size  Location     Type
  2839 ;;                  1    wreg      void 
  2840 ;; Registers used:
  2841 ;;		wreg, status,2, status,0, pclath, cstack
  2842 ;; Tracked objects:
  2843 ;;		On entry : 0/0
  2844 ;;		On exit  : 0/0
  2845 ;;		Unchanged: 0/0
  2846 ;; Data sizes:     COMMON   BANK0   BANK1   BANK3   BANK2
  2847 ;;      Params:         0       0       0       0       0
  2848 ;;      Locals:         1       0       0       0       0
  2849 ;;      Temps:          1       0       0       0       0
  2850 ;;      Totals:         2       0       0       0       0
  2851 ;;Total ram usage:        2 bytes
  2852 ;; Hardware stack levels used:    1
  2853 ;; Hardware stack levels required when called:    2
  2854 ;; This function calls:
  2855 ;;		_DELAY_us
  2856 ;;		_glcd_BusyCheck
  2857 ;; This function is called by:
  2858 ;;		_GLCD_Clear
  2859 ;;		_GLCD_DisplayLogo
  2860 ;;		_GLCD_DisplayChar
  2861 ;;		_GLCD_VerticalGraph
  2862 ;;		_GLCD_HorizontalGraph
  2863 ;; This function uses a non-reentrant model
  2864 ;;
  2865                           
  2866                           
  2867                           ;psect for function _glcd_DataWrite
  2868  0681                     _glcd_DataWrite:	
  2869                           
  2870                           ;incstack = 0
  2871                           ; Regs used in _glcd_DataWrite: [wreg+status,2+status,0+pclath+cstack]
  2872                           ;glcd_DataWrite@dat stored from wreg
  2873  0681  00F3               	movwf	glcd_DataWrite@dat
  2874  0682                     l1395:	
  2875                           
  2876                           ;glcd.c: 1025: void glcd_DataWrite( uint8_t dat);glcd.c: 1026: {;glcd.c: 1027:  glcd_Bus
      +                          yCheck();
  2877  0682  120A  118A  262B  120A  118A  	fcall	_glcd_BusyCheck
  2878  0687                     l1397:	
  2879                           
  2880                           ;glcd.c: 1028:  PORTB = dat ^ GLCD.Invertdisplay;
  2881  0687  1283               	bcf	3,5	;RP0=0, select bank0
  2882  0688  1303               	bcf	3,6	;RP1=0, select bank0
  2883  0689  0823               	movf	_GLCD+3,w
  2884  068A  0673               	xorwf	glcd_DataWrite@dat,w
  2885  068B  0086               	movwf	6	;volatile
  2886  068C                     l1399:	
  2887                           
  2888                           ;glcd.c: 1029:  (((PORTD)) |= (1<<((0))));
  2889  068C  1408               	bsf	8,0	;volatile
  2890  068D                     l1401:	
  2891                           
  2892                           ;glcd.c: 1030:  (((PORTD)) &= ~(1<<((1))));
  2893  068D  30FD               	movlw	253
  2894  068E  00F2               	movwf	??_glcd_DataWrite
  2895  068F  0872               	movf	??_glcd_DataWrite,w
  2896  0690  0588               	andwf	8,f	;volatile
  2897  0691                     l1403:	
  2898                           
  2899                           ;glcd.c: 1031:  (((PORTD)) |= (1<<((2))));
  2900  0691  1508               	bsf	8,2	;volatile
  2901                           
  2902                           ;glcd.c: 1032:  DELAY_us(1);
  2903  0692  3001               	movlw	1
  2904  0693  00F0               	movwf	DELAY_us@us_count
  2905  0694  3000               	movlw	0
  2906  0695  00F1               	movwf	DELAY_us@us_count+1
  2907  0696  120A  118A  2635  120A  118A  	fcall	_DELAY_us
  2908  069B                     l1405:	
  2909                           
  2910                           ;glcd.c: 1033:  (((PORTD)) &= ~(1<<((2))));
  2911  069B  30FB               	movlw	251
  2912  069C  00F2               	movwf	??_glcd_DataWrite
  2913  069D  0872               	movf	??_glcd_DataWrite,w
  2914  069E  1283               	bcf	3,5	;RP0=0, select bank0
  2915  069F  1303               	bcf	3,6	;RP1=0, select bank0
  2916  06A0  0588               	andwf	8,f	;volatile
  2917  06A1                     l212:	
  2918  06A1  0008               	return
  2919  06A2                     __end_of_glcd_DataWrite:	
  2920                           
  2921                           	psect	text10
  2922  06A2                     __ptext10:	
  2923 ;; *************** function _glcd_CmdWrite *****************
  2924 ;; Defined at:
  2925 ;;		line 1011 in file "glcd.c"
  2926 ;; Parameters:    Size  Location     Type
  2927 ;;  cmd             1    wreg     unsigned char 
  2928 ;; Auto vars:     Size  Location     Type
  2929 ;;  cmd             1    3[COMMON] unsigned char 
  2930 ;; Return value:  Size  Location     Type
  2931 ;;                  1    wreg      void 
  2932 ;; Registers used:
  2933 ;;		wreg, status,2, status,0, pclath, cstack
  2934 ;; Tracked objects:
  2935 ;;		On entry : 0/0
  2936 ;;		On exit  : 0/0
  2937 ;;		Unchanged: 0/0
  2938 ;; Data sizes:     COMMON   BANK0   BANK1   BANK3   BANK2
  2939 ;;      Params:         0       0       0       0       0
  2940 ;;      Locals:         1       0       0       0       0
  2941 ;;      Temps:          1       0       0       0       0
  2942 ;;      Totals:         2       0       0       0       0
  2943 ;;Total ram usage:        2 bytes
  2944 ;; Hardware stack levels used:    1
  2945 ;; Hardware stack levels required when called:    2
  2946 ;; This function calls:
  2947 ;;		_DELAY_us
  2948 ;;		_glcd_BusyCheck
  2949 ;; This function is called by:
  2950 ;;		_GLCD_Init
  2951 ;;		_GLCD_Clear
  2952 ;;		_GLCD_GoToPage
  2953 ;;		_GLCD_DisplayLogo
  2954 ;;		_GLCD_SetCursor
  2955 ;; This function uses a non-reentrant model
  2956 ;;
  2957                           
  2958                           
  2959                           ;psect for function _glcd_CmdWrite
  2960  06A2                     _glcd_CmdWrite:	
  2961                           
  2962                           ;incstack = 0
  2963                           ; Regs used in _glcd_CmdWrite: [wreg+status,2+status,0+pclath+cstack]
  2964                           ;glcd_CmdWrite@cmd stored from wreg
  2965  06A2  00F3               	movwf	glcd_CmdWrite@cmd
  2966  06A3                     l1355:	
  2967                           
  2968                           ;glcd.c: 1011: void glcd_CmdWrite( uint8_t cmd);glcd.c: 1012: {;glcd.c: 1013:  glcd_Busy
      +                          Check();
  2969  06A3  120A  118A  262B  120A  118A  	fcall	_glcd_BusyCheck
  2970  06A8                     l1357:	
  2971                           
  2972                           ;glcd.c: 1014:  PORTB = cmd;
  2973  06A8  0873               	movf	glcd_CmdWrite@cmd,w
  2974  06A9  1283               	bcf	3,5	;RP0=0, select bank0
  2975  06AA  1303               	bcf	3,6	;RP1=0, select bank0
  2976  06AB  0086               	movwf	6	;volatile
  2977  06AC                     l1359:	
  2978                           
  2979                           ;glcd.c: 1015:  (((PORTD)) &= ~(1<<((0))));
  2980  06AC  30FE               	movlw	254
  2981  06AD  00F2               	movwf	??_glcd_CmdWrite
  2982  06AE  0872               	movf	??_glcd_CmdWrite,w
  2983  06AF  0588               	andwf	8,f	;volatile
  2984  06B0                     l1361:	
  2985                           
  2986                           ;glcd.c: 1016:  (((PORTD)) &= ~(1<<((1))));
  2987  06B0  30FD               	movlw	253
  2988  06B1  00F2               	movwf	??_glcd_CmdWrite
  2989  06B2  0872               	movf	??_glcd_CmdWrite,w
  2990  06B3  0588               	andwf	8,f	;volatile
  2991  06B4                     l1363:	
  2992                           
  2993                           ;glcd.c: 1017:  (((PORTD)) |= (1<<((2))));
  2994  06B4  1508               	bsf	8,2	;volatile
  2995  06B5                     l1365:	
  2996                           
  2997                           ;glcd.c: 1018:  DELAY_us(1);
  2998  06B5  3001               	movlw	1
  2999  06B6  00F0               	movwf	DELAY_us@us_count
  3000  06B7  3000               	movlw	0
  3001  06B8  00F1               	movwf	DELAY_us@us_count+1
  3002  06B9  120A  118A  2635  120A  118A  	fcall	_DELAY_us
  3003  06BE                     l1367:	
  3004                           
  3005                           ;glcd.c: 1019:  (((PORTD)) &= ~(1<<((2))));
  3006  06BE  30FB               	movlw	251
  3007  06BF  00F2               	movwf	??_glcd_CmdWrite
  3008  06C0  0872               	movf	??_glcd_CmdWrite,w
  3009  06C1  1283               	bcf	3,5	;RP0=0, select bank0
  3010  06C2  1303               	bcf	3,6	;RP1=0, select bank0
  3011  06C3  0588               	andwf	8,f	;volatile
  3012  06C4                     l209:	
  3013  06C4  0008               	return
  3014  06C5                     __end_of_glcd_CmdWrite:	
  3015                           
  3016                           	psect	text11
  3017  062B                     __ptext11:	
  3018 ;; *************** function _glcd_BusyCheck *****************
  3019 ;; Defined at:
  3020 ;;		line 1057 in file "glcd.c"
  3021 ;; Parameters:    Size  Location     Type
  3022 ;;		None
  3023 ;; Auto vars:     Size  Location     Type
  3024 ;;		None
  3025 ;; Return value:  Size  Location     Type
  3026 ;;                  1    wreg      void 
  3027 ;; Registers used:
  3028 ;;		wreg, status,2, status,0, pclath, cstack
  3029 ;; Tracked objects:
  3030 ;;		On entry : 0/0
  3031 ;;		On exit  : 0/0
  3032 ;;		Unchanged: 0/0
  3033 ;; Data sizes:     COMMON   BANK0   BANK1   BANK3   BANK2
  3034 ;;      Params:         0       0       0       0       0
  3035 ;;      Locals:         0       0       0       0       0
  3036 ;;      Temps:          0       0       0       0       0
  3037 ;;      Totals:         0       0       0       0       0
  3038 ;;Total ram usage:        0 bytes
  3039 ;; Hardware stack levels used:    1
  3040 ;; Hardware stack levels required when called:    1
  3041 ;; This function calls:
  3042 ;;		_DELAY_us
  3043 ;; This function is called by:
  3044 ;;		_glcd_CmdWrite
  3045 ;;		_glcd_DataWrite
  3046 ;; This function uses a non-reentrant model
  3047 ;;
  3048                           
  3049                           
  3050                           ;psect for function _glcd_BusyCheck
  3051  062B                     _glcd_BusyCheck:	
  3052  062B                     l1349:	
  3053                           ;incstack = 0
  3054                           ; Regs used in _glcd_BusyCheck: [wreg+status,2+status,0+pclath+cstack]
  3055                           
  3056                           
  3057                           ;glcd.c: 1077:  DELAY_us(10);
  3058  062B  300A               	movlw	10
  3059  062C  00F0               	movwf	DELAY_us@us_count
  3060  062D  3000               	movlw	0
  3061  062E  00F1               	movwf	DELAY_us@us_count+1
  3062  062F  120A  118A  2635  120A  118A  	fcall	_DELAY_us
  3063  0634                     l221:	
  3064  0634  0008               	return
  3065  0635                     __end_of_glcd_BusyCheck:	
  3066                           
  3067                           	psect	text12
  3068  0635                     __ptext12:	
  3069 ;; *************** function _DELAY_us *****************
  3070 ;; Defined at:
  3071 ;;		line 52 in file "delay.c"
  3072 ;; Parameters:    Size  Location     Type
  3073 ;;  us_count        2    0[COMMON] unsigned int 
  3074 ;; Auto vars:     Size  Location     Type
  3075 ;;		None
  3076 ;; Return value:  Size  Location     Type
  3077 ;;                  1    wreg      void 
  3078 ;; Registers used:
  3079 ;;		wreg, status,2, status,0
  3080 ;; Tracked objects:
  3081 ;;		On entry : 0/0
  3082 ;;		On exit  : 0/0
  3083 ;;		Unchanged: 0/0
  3084 ;; Data sizes:     COMMON   BANK0   BANK1   BANK3   BANK2
  3085 ;;      Params:         2       0       0       0       0
  3086 ;;      Locals:         0       0       0       0       0
  3087 ;;      Temps:          0       0       0       0       0
  3088 ;;      Totals:         2       0       0       0       0
  3089 ;;Total ram usage:        2 bytes
  3090 ;; Hardware stack levels used:    1
  3091 ;; This function calls:
  3092 ;;		Nothing
  3093 ;; This function is called by:
  3094 ;;		_glcd_CmdWrite
  3095 ;;		_glcd_DataWrite
  3096 ;;		_glcd_BusyCheck
  3097 ;;		_DELAY_ms
  3098 ;; This function uses a non-reentrant model
  3099 ;;
  3100                           
  3101                           
  3102                           ;psect for function _DELAY_us
  3103  0635                     _DELAY_us:	
  3104  0635                     l1343:	
  3105                           ;incstack = 0
  3106                           ; Regs used in _DELAY_us: [wreg+status,2+status,0]
  3107                           
  3108                           
  3109                           ;delay.c: 52: void DELAY_us(uint16_t us_count);delay.c: 53: {;delay.c: 54:     while (us
      +                          _count != 0)
  3110  0635  2E3C               	goto	l1347
  3111  0636                     l1345:	
  3112                           
  3113                           ;delay.c: 55:     {;delay.c: 56:         us_count--;
  3114  0636  3001               	movlw	1
  3115  0637  02F0               	subwf	DELAY_us@us_count,f
  3116  0638  3000               	movlw	0
  3117  0639  1C03               	skipc
  3118  063A  03F1               	decf	DELAY_us@us_count+1,f
  3119  063B  02F1               	subwf	DELAY_us@us_count+1,f
  3120  063C                     l1347:	
  3121                           
  3122                           ;delay.c: 54:     while (us_count != 0)
  3123  063C  0870               	movf	DELAY_us@us_count,w
  3124  063D  0471               	iorwf	DELAY_us@us_count+1,w
  3125  063E  1D03               	btfss	3,2
  3126  063F  2E41               	goto	u661
  3127  0640  2E42               	goto	u660
  3128  0641                     u661:	
  3129  0641  2E36               	goto	l1345
  3130  0642                     u660:	
  3131  0642                     l227:	
  3132  0642  0008               	return
  3133  0643                     __end_of_DELAY_us:	
  3134  007E                     btemp	set	126	;btemp
  3135  007E                     wtemp0	set	126


Data Sizes:
    Strings     0
    Constant    1499
    Data        0
    BSS         4
    Persistent  0
    Stack       0

Auto Spaces:
    Space          Size  Autos    Used
    COMMON           14     12      12
    BANK0            80      0       4
    BANK1            80      0       0
    BANK3            96      0       0
    BANK2            96      0       0

Pointer List with Targets:

    GLCD_DisplayLogo@ptr_Logo	PTR const unsigned char  size(2) Largest target is 1024
		 -> meme(CODE[1024]), 


Critical Paths under _main in COMMON

    _main->_GLCD_Init
    _GLCD_Init->_GLCD_Clear
    _GLCD_Clear->_GLCD_GoToLine
    _GLCD_GoToLine->_GLCD_GoToPage
    _GLCD_GoToPage->_glcd_CmdWrite
    _DELAY_ms->_DELAY_us
    _GLCD_DisplayLogo->_glcd_CmdWrite
    _GLCD_DisplayLogo->_glcd_DataWrite
    _glcd_DataWrite->_DELAY_us
    _glcd_CmdWrite->_DELAY_us
    _glcd_BusyCheck->_DELAY_us

Critical Paths under _main in BANK0

    None.

Critical Paths under _main in BANK1

    None.

Critical Paths under _main in BANK3

    None.

Critical Paths under _main in BANK2

    None.

Call Graph Tables:

 ---------------------------------------------------------------------------------
 (Depth) Function   	        Calls       Base Space   Used Autos Params    Refs
 ---------------------------------------------------------------------------------
 (0) _main                                                 0     0      0    5869
                   _GLCD_DisplayLogo
                          _GLCD_Init
 ---------------------------------------------------------------------------------
 (1) _GLCD_Init                                            1     1      0    4260
                                             11 COMMON     1     1      0
                           _DELAY_ms
                         _GLCD_Clear
                      _GLCD_GoToPage
                      _glcd_CmdWrite
                   _glcd_SelectPage0
                   _glcd_SelectPage1
 ---------------------------------------------------------------------------------
 (2) _GLCD_Clear                                           3     3      0    2318
                                              8 COMMON     3     3      0
                      _GLCD_GoToLine
                      _glcd_CmdWrite
                     _glcd_DataWrite
                   _glcd_SelectPage0
                   _glcd_SelectPage1
 ---------------------------------------------------------------------------------
 (3) _GLCD_GoToLine                                        2     2      0     808
                                              6 COMMON     2     2      0
                      _GLCD_GoToPage
 ---------------------------------------------------------------------------------
 (2) _GLCD_GoToPage                                        2     2      0     764
                                              4 COMMON     2     2      0
                      _glcd_CmdWrite
                   _glcd_SelectPage0
                   _glcd_SelectPage1
 ---------------------------------------------------------------------------------
 (2) _DELAY_ms                                             2     0      2     502
                                              2 COMMON     2     0      2
                           _DELAY_us
 ---------------------------------------------------------------------------------
 (1) _GLCD_DisplayLogo                                     5     3      2    1609
                                              4 COMMON     5     3      2
                      _glcd_CmdWrite
                     _glcd_DataWrite
                   _glcd_SelectPage0
                   _glcd_SelectPage1
 ---------------------------------------------------------------------------------
 (2) _glcd_SelectPage1                                     1     1      0       0
                                              0 COMMON     1     1      0
 ---------------------------------------------------------------------------------
 (2) _glcd_SelectPage0                                     1     1      0       0
                                              0 COMMON     1     1      0
 ---------------------------------------------------------------------------------
 (3) _glcd_DataWrite                                       2     2      0     676
                                              2 COMMON     2     2      0
                           _DELAY_us
                     _glcd_BusyCheck
 ---------------------------------------------------------------------------------
 (2) _glcd_CmdWrite                                        2     2      0     676
                                              2 COMMON     2     2      0
                           _DELAY_us
                     _glcd_BusyCheck
 ---------------------------------------------------------------------------------
 (3) _glcd_BusyCheck                                       0     0      0     327
                           _DELAY_us
 ---------------------------------------------------------------------------------
 (4) _DELAY_us                                             2     0      2     327
                                              0 COMMON     2     0      2
 ---------------------------------------------------------------------------------
 Estimated maximum stack depth 4
 ---------------------------------------------------------------------------------

 Call Graph Graphs:

 _main (ROOT)
   _GLCD_DisplayLogo
     _glcd_CmdWrite
       _DELAY_us
       _glcd_BusyCheck
         _DELAY_us
     _glcd_DataWrite
       _DELAY_us
       _glcd_BusyCheck
         _DELAY_us
     _glcd_SelectPage0
     _glcd_SelectPage1
   _GLCD_Init
     _DELAY_ms
       _DELAY_us
     _GLCD_Clear
       _GLCD_GoToLine
         _GLCD_GoToPage
           _glcd_CmdWrite
             _DELAY_us
             _glcd_BusyCheck
               _DELAY_us
           _glcd_SelectPage0
           _glcd_SelectPage1
       _glcd_CmdWrite
         _DELAY_us
         _glcd_BusyCheck
           _DELAY_us
       _glcd_DataWrite
         _DELAY_us
         _glcd_BusyCheck
           _DELAY_us
       _glcd_SelectPage0
       _glcd_SelectPage1
     _GLCD_GoToPage
       _glcd_CmdWrite
         _DELAY_us
         _glcd_BusyCheck
           _DELAY_us
       _glcd_SelectPage0
       _glcd_SelectPage1
     _glcd_CmdWrite
       _DELAY_us
       _glcd_BusyCheck
         _DELAY_us
     _glcd_SelectPage0
     _glcd_SelectPage1

 Address spaces:
Name               Size   Autos  Total    Cost      Usage
BITCOMMON            E      0       0       0        0.0%
EEDATA             100      0       0       0        0.0%
NULL                 0      0       0       0        0.0%
CODE                 0      0       0       0        0.0%
COMMON               E      C       C       1       85.7%
BITSFR0              0      0       0       1        0.0%
SFR0                 0      0       0       1        0.0%
BITSFR1              0      0       0       2        0.0%
SFR1                 0      0       0       2        0.0%
STACK                0      0       0       2        0.0%
ABS                  0      0      10       3        0.0%
BITBANK0            50      0       0       4        0.0%
BITSFR3              0      0       0       4        0.0%
SFR3                 0      0       0       4        0.0%
BANK0               50      0       4       5        5.0%
BITSFR2              0      0       0       5        0.0%
SFR2                 0      0       0       5        0.0%
BITBANK1            50      0       0       6        0.0%
BANK1               50      0       0       7        0.0%
BITBANK3            60      0       0       8        0.0%
BANK3               60      0       0       9        0.0%
BITBANK2            60      0       0      10        0.0%
BANK2               60      0       0      11        0.0%
DATA                 0      0      10      12        0.0%


Microchip Technology PIC Macro Assembler V2.10 build 88905656 
Symbol Table                                                                                   Sat Sep 07 22:58:33 2019

         ?_glcd_SelectPage0 0070           ?_glcd_SelectPage1 0070                           pc 0002  
               __CFG_CP$OFF 0000                          l11 0651                          l12 0651  
                        l55 07F5          ??_glcd_SelectPage0 0070          ??_glcd_SelectPage1 0070  
                        fsr 0004                         l212 06A1                         l221 0634  
                       l150 0745                         l215 0622                         l209 06C4  
                       l233 0680                         l218 062A                         l162 0669  
                       l227 0642                         l180 079C                         l149 0725  
                       l158 06F8                __CFG_CPD$OFF 0000                         u710 065C  
                       u711 065B                         u720 0680                         u721 067F  
                       u730 0713                         u731 0712                         u660 0642  
                       u740 0735                         u661 0641                         u741 0734  
                       u830 0760                         u670 06CB                         u750 073F  
                       u831 075F                         u671 06CA                         u751 073E  
                       u840 0792                         u680 06D0                         u841 0791  
                       u681 06CF                         u850 079C                         u690 06D5  
                       u851 079B                         u691 06D4                         fsr0 0004  
                       indf 0000                __CFG_IESO$ON 0000                __CFG_FOSC$HS 0000  
    GLCD_DisplayLogo@cursor 0077                __CFG_LVP$OFF 0000          __size_of_GLCD_Init 0059  
                      l1401 068D                        l1403 0691                        l1411 0663  
                      l1405 069B                        l1413 066A                        l1421 06F9  
                      l1501 07D3                        l1343 0635                        l1351 061B  
                      l1415 066B                        l1407 0656                        l1511 07EB  
                      l1503 07D9                        l1345 0636                        l1361 06B0  
                      l1353 061E                        l1521 0747                        l1417 0674  
                      l1409 065C                        l1441 072F                        l1513 07EF  
                      l1505 07DF                        l1347 063C                        l1363 06B4  
                      l1355 06A3                        l1371 0626                        l1531 0760  
                      l1523 0759                        l1515 0746                        l1419 067A  
                      l1443 0735                        l1435 070D                        l1427 06FA  
                      l1507 07E4                        l1349 062B                        l1365 06B5  
                      l1357 06A8                        l1541 0792                        l1533 0772  
                      l1381 06DB                        l1373 06C6                        l1445 0739  
                      l1437 0713                        l1429 070C                        l1509 07E7  
                      l1367 06BE                        l1359 06AC                        l1543 0796  
                      l1535 0782                        l1383 06E0                        l1375 06CB  
                      l1447 073F                        l1439 072B                        l1631 0643  
                      l1369 0623                        l1537 0788                        l1529 075A  
                      l1385 06E6                        l1377 06D0                        l1481 079D  
                      l1633 0648                        l1395 0682                        l1539 078C  
                      l1379 06D5                        l1491 07B4                        l1483 07A0  
                      l1397 0687                        l1493 07BA                        l1485 07A4  
                      l1399 068C                        l1495 07C3                        l1487 07A9  
                      l1497 07C8                        l1489 07AF                        l1499 07CE  
                      _GLCD 0020                __CFG_WRT$OFF 0000               __CFG_FCMEN$ON 0000  
                      _main 0643                        _meme 09ED                        btemp 007E  
             __CFG_BOREN$ON 0000                        start 0000            __end_of_DELAY_ms 0681  
          __end_of_DELAY_us 0643               __CFG_MCLRE$ON 0000    __end_of_GLCD_DisplayLogo 079D  
       __size_of_GLCD_Clear 004D                       ?_main 0070               __CFG_WDTE$OFF 0000  
__end_of_A_GlcdFontTable_U8 09ED                       _PORTB 0006                       _PORTD 0008  
                     _TRISB 0086                       _TRISD 0088               __CFG_PWRTE$ON 0000  
                     pclath 000A                       status 0003                       wtemp0 007E  
           __initialization 07F6                __end_of_main 0655                __end_of_meme 0DED  
         __end_of_GLCD_Init 07F6                      ??_main 007C    GLCD_DisplayLogo@ptr_Logo 0074  
          DELAY_ms@ms_count 0072                   ?_DELAY_ms 0072                   ?_DELAY_us 0070  
              ??_GLCD_Clear 0078     __end_of__initialization 07FC       __end_of_GLCD_GoToPage 06F9  
     __end_of_GLCD_GoToLine 066A           glcd_DataWrite@dat 0073              __pcstackCOMMON 0070  
   GLCD_GoToPage@pageNumber 0075          __end_of_GLCD_Clear 0746                  ??_DELAY_ms 0074  
                ??_DELAY_us 0072   __size_of_glcd_SelectPage0 0008   __size_of_glcd_SelectPage1 0008  
     __end_of_glcd_CmdWrite 06C5                  __pbssBANK0 0020                  __pmaintext 0643  
         ?_GLCD_DisplayLogo 0074          ??_GLCD_DisplayLogo 0076     __size_of_glcd_DataWrite 0021  
          DELAY_us@us_count 0070                  __stringtab 0800          _A_GlcdFontTable_U8 0812  
   __size_of_glcd_BusyCheck 000A              GLCD_Clear@line 007A                     __ptext1 079D  
                   __ptext2 06F9                     __ptext3 0655                     __ptext4 06C5  
                   __ptext5 066A                     __ptext6 0746                     __ptext7 0623  
                   __ptext8 061B                     __ptext9 0681                   _GLCD_Init 079D  
      end_of_initialization 07FC                __pstringtext 0800                  ?_GLCD_Init 0070  
          _glcd_SelectPage0 061B            _glcd_SelectPage1 0623        GLCD_DisplayLogo@line 0078  
         __size_of_DELAY_ms 0017           __size_of_DELAY_us 000E              _glcd_DataWrite 0681  
       start_initialization 07F6              _glcd_BusyCheck 062B      __end_of_glcd_DataWrite 06A2  
               ??_GLCD_Init 007B      __size_of_GLCD_GoToPage 0034      __size_of_GLCD_GoToLine 0015  
                 ___latbits 0002   __size_of_GLCD_DisplayLogo 0057      __end_of_glcd_BusyCheck 0635  
          GLCD_Clear@cursor 0079            glcd_CmdWrite@cmd 0073      __size_of_glcd_CmdWrite 0023  
           ?_glcd_DataWrite 0070                    _DELAY_ms 066A                    _DELAY_us 0635  
             _GLCD_GoToPage 06C5               _GLCD_GoToLine 0655             ?_glcd_BusyCheck 0070  
  __end_of_glcd_SelectPage0 0623    __end_of_glcd_SelectPage1 062B                 __stringbase 0812  
   GLCD_GoToLine@lineNumber 0077               _glcd_CmdWrite 06A2              ?_GLCD_GoToPage 0070  
            ?_GLCD_GoToLine 0070          __end_of__stringtab 0812                    __ptext10 06A2  
                  __ptext11 062B                    __ptext12 0635           __CFG_BOR4V$BOR40V 0000  
                _GLCD_Clear 06F9            _GLCD_DisplayLogo 0746              ?_glcd_CmdWrite 0070  
             __size_of_main 0012             ??_GLCD_GoToPage 0074             ??_GLCD_GoToLine 0076  
                 stringcode 080A            ??_glcd_DataWrite 0072                    stringtab 0800  
           ??_glcd_CmdWrite 0072                 ?_GLCD_Clear 0070            ??_glcd_BusyCheck 0072  
